[35m[MSG] [0mLog level set to LOG_DEBUG
[35m[MSG] [0mUsing input binary "bmarks/fac_it.a64"
[34m[DBG] [0mProgram section: p_type(0001) p_flags(0005) p_offset(00000000) p_vaddr(00000000) p_paddr(00000000) p_filesz(0384) p_memsz(0384) p_align(65536)
[34m[DBG] [0mLoaded 384 bytes at 0x7fd2c6015000; base: 0x7fd2c6015000
[33m[WRN] [0mCould not find section named ".data" (sections=6)
[33m[WRN] [0mCould not find section named ".data" (sections=6)
[35m[MSG] [0mPipelining is enabled
[34m[DBG] [0m   Fetcher: hard reset
[34m[DBG] [0m   Fetcher: soft reset
[34m[DBG] [0m   Decoder: hard reset
[34m[DBG] [0m   Decoder: soft reset
[34m[DBG] [0m   Logic: hard reset
[34m[DBG] [0m   Logic: soft reset
[34m[DBG] [0m   Scribe: soft reset
[35m[MSG] [0mPC at entry (main): 0xffa58c02a150 (global: 0x7fd2c6015150)
[35m[MSG] [0m.text scope:  0x7fd2c6015100 - 0x7fd2c6015180
[35m[MSG] [0mMemory scope: 0x7fd2c6015000 - 0x7fd2c6015180
[35m[MSG] [0mStack scope:  0x7fd2c6015200 - 0x7fd2c601d400
[34m[DBG] [0m======================================== Compute[0/0]
[34m[DBG] [0mPC Offsest: 0x150
[34m[DBG] [0m   Fetcher: at: 0x7fd2c6015150 (buffer 0:0)
[34m[DBG] [0m   Fetcher: front instr = 0x7fd2c6015150, fetched 64, tmpBuffer: 64
[34m[DBG] [0m   Decoder: fetcher buffer is dry
[34m[DBG] [0m   Logic: reservation station is dry
[34m[DBG] [0m   Scribe: retired 1 ROB entries (now: 0x7fd2c5c02da0:NoSucc)
[34m[DBG] [0m======================================== Update[0/0] 
[34m[DBG] [0m   Fetcher: buffer.size = 64
[34m[DBG] [0m   Logic: instr executed ? no: 0
[34m[DBG] [0m   Logic: rStation size <- 0, rsVacancy <- 64
[34m[DBG] [0m======================================== Sync [0/0] 
[34m[DBG] [0m======================================== Cycle End

[34m[DBG] [0m======================================== Compute[1/0]
[34m[DBG] [0mPC Offsest: 0x10c
[34m[DBG] [0m   Fetcher: at: 0x7fd2c601510c (buffer 0:64)
[34m[DBG] [0m   Fetcher: front instr = 0x7fd2c601510c, fetched 64, tmpBuffer: 64
[34m[DBG] [0m   Decoder: front instr = 0x7fd2c6015150
[34m[DBG] [0m   Logic: reservation station is dry
[34m[DBG] [0m   Scribe: retired 1 ROB entries (now: 0x7fd2c5c02da0:NoSucc)
[34m[DBG] [0m======================================== Update[1/0] 
[34m[DBG] [0m   Fetcher: buffer.size = 64
[34m[DBG] [0m   Logic: instr executed ? no: 0
[34m[DBG] [0m   Logic: rStation size <- 0, rsVacancy <- 64
[34m[DBG] [0m======================================== Sync [1/0] 
[34m[DBG] [0m======================================== Cycle End

[34m[DBG] [0m======================================== Compute[2/0]
[34m[DBG] [0mPC Offsest: 0x158
[34m[DBG] [0m   Fetcher: at: 0x7fd2c6015158 (buffer 0:64)
[34m[DBG] [0m   Fetcher: front instr = 0x7fd2c6015158, fetched 64, tmpBuffer: 64
[34m[DBG] [0m   Logic: reservation station is dry
[34m[DBG] [0m   Scribe: retired 1 ROB entries (now: 0x7fd2c5c07b10:Idle)
[34m[DBG] [0m======================================== Update[2/0] 
[34m[DBG] [0m   Fetcher: buffer.size = 128
[34m[DBG] [0m   Logic: instr executed ? no: 0
[34m[DBG] [0m   Logic: rStation size <- 64, rsVacancy <- 0
[34m[DBG] [0m======================================== Sync [2/0] 
[34m[DBG] [0m======================================== Cycle End

[34m[DBG] [0m======================================== Compute[3/0]
[34m[DBG] [0mPC Offsest: 0x114
[34m[DBG] [0m   Fetcher: at: 0x7fd2c6015114 (buffer 0:128)
[34m[DBG] [0m   Fetcher: front instr = 0x7fd2c6015114, fetched 64, tmpBuffer: 64
[34m[DBG] [0m   Decoder: front instr = 0x7fd2c601510c
0x00007fd2c6015150  a9bf7bfd		stp x29, x30, [sp, #-16]!
[33m[WRN] [0m[R31] RobCusor 0x7fd2c5c07b10 read can go ahead (init)
[33m[WRN] [0m[R31] RobCusor 0x7fd2c5c07b10 write can go ahead with ticket 0x7fd2c5c07a70
[33m[WRN] [0m[R29] RobCusor 0x7fd2c5c07b10 read can go ahead (init)
[33m[WRN] [0m[R30] RobCusor 0x7fd2c5c07b10 read can go ahead (init)
0x00007fd2c6015154  910003fd		mov x29, sp
[33m[WRN] [0m[R31] RobCusor 0x7fd2c5c07b70 read-depends on 0x7fd2c5c07a70
[33m[WRN] [0m[R29] RobCusor 0x7fd2c5c07b70 write can go ahead with ticket 0x7fd2c5c09e70
0x00007fd2c6015158  d10043ff		sub sp, sp, #0x10 (16)
[33m[WRN] [0m[R31] RobCusor 0x7fd2c5c07bd0 read-depends on 0x7fd2c5c07a70
[33m[WRN] [0m[R31] RobCusor 0x7fd2c5c07bd0 write can go ahead with ticket 0x7fd2c5c09fb0
0x00007fd2c601515c  52800140		mov w0, #0xa
[33m[WRN] [0m[R0] RobCusor 0x7fd2c5c07c30 write can go ahead with ticket 0x7fd2c5c0a060
0x00007fd2c6015160  52800008		mov w8, #0x0
[33m[WRN] [0m[R8] RobCusor 0x7fd2c5c07c90 write can go ahead with ticket 0x7fd2c5c0a110
0x00007fd2c6015164  b81fc3a8		stur w8, [x29, #-4]
[33m[WRN] [0m[R29] RobCusor 0x7fd2c5c07cf0 read-depends on 0x7fd2c5c09e70
[33m[WRN] [0m[R8] RobCusor 0x7fd2c5c07cf0 read-depends on 0x7fd2c5c0a110
[33m[WRN] [0mRobEntry 0x7fd2c5c07cf0 not ready due to 0x7fd2c5c09e70
0x00007fd2c6015168  97ffffe6		bl #-0x68 (addr 0x7fd2c6015100)
[33m[WRN] [0m[R30] RobCusor 0x7fd2c5c07d50 write can go ahead with ticket 0x7fd2c5c09dc0
0x00007fd2c6015100  d10043ff		sub sp, sp, #0x10 (16)
[33m[WRN] [0m[R31] RobCusor 0x7fd2c5c07db0 read-depends on 0x7fd2c5c09fb0
[33m[WRN] [0m[R31] RobCusor 0x7fd2c5c07db0 write can go ahead with ticket 0x7fd2c5c09dc0
0x00007fd2c6015104  320003e8		orr w8, wzr, #0x1
[33m[WRN] [0m[R8] RobCusor 0x7fd2c5c07e10 write can go ahead with ticket 0x7fd2c5c0a580
0x00007fd2c6015108  b9000fe0		str w0, [sp, #12]
[33m[WRN] [0m[R31] RobCusor 0x7fd2c5c07e70 read-depends on 0x7fd2c5c09dc0
[33m[WRN] [0m[R0] RobCusor 0x7fd2c5c07e70 read-depends on 0x7fd2c5c0a060
[33m[WRN] [0mRobEntry 0x7fd2c5c07e70 not ready due to 0x7fd2c5c09dc0
0x00007fd2c601510c  b9000be8		str w8, [sp, #8]
[33m[WRN] [0m[R31] RobCusor 0x7fd2c5c07ed0 read-depends on 0x7fd2c5c09dc0
[33m[WRN] [0m[R8] RobCusor 0x7fd2c5c07ed0 read-depends on 0x7fd2c5c0a580
[33m[WRN] [0mRobEntry 0x7fd2c5c07ed0 not ready due to 0x7fd2c5c09dc0
0x00007fd2c6015110  b9400fe8		ldr w8, [sp, #12]
[33m[WRN] [0m[R31] RobCusor 0x7fd2c5c07f30 read-depends on 0x7fd2c5c09dc0
[33m[WRN] [0mRobEntry 0x7fd2c5c07f30 not ready due to 0x7fd2c5c09dc0
[33m[WRN] [0m[R8] RobCusor 0x7fd2c5c07f30 write can go ahead with ticket 0x7fd2c5c0aaf0
0x00007fd2c6015114  7100051f		cmp w8, #0x1 (1)
[33m[WRN] [0m[R8] RobCusor 0x7fd2c5c07f90 read-depends on 0x7fd2c5c0aaf0
[33m[WRN] [0m[NZCV] RobCusor 0x7fd2c5c07f90 write can go ahead with ticket 0x7fd2c5c0ac30
[33m[WRN] [0m[NZCV] RobCusor 0x7fd2c5c07f90 write can go ahead with ticket 0x7fd2c5c0acf8
[33m[WRN] [0m[NZCV] RobCusor 0x7fd2c5c07f90 write can go ahead with ticket 0x7fd2c5c0adc0
[33m[WRN] [0m[NZCV] RobCusor 0x7fd2c5c07f90 write can go ahead with ticket 0x7fd2c5c0add8
0x00007fd2c6015118  54000041		b.ne #+0x8 (addr 0x7fd2c6015120)
[33m[WRN] [0m[NZCV] RobCusor 0x7fd2c5c07ff0 read-depends on 0x7fd2c5c0add8
0x00007fd2c601511c  1400000a		b #+0x28 (addr 0x7fd2c6015144)
0x00007fd2c6015144  b9400be0		ldr w0, [sp, #8]
[33m[WRN] [0m[R31] RobCusor 0x7fd2c5c080b0 read-depends on 0x7fd2c5c09dc0
[33m[WRN] [0mRobEntry 0x7fd2c5c080b0 not ready due to 0x7fd2c5c09dc0
[33m[WRN] [0m[R0] RobCusor 0x7fd2c5c080b0 write can go ahead with ticket 0x7fd2c5c0ace0
0x00007fd2c6015148  910043ff		add sp, sp, #0x10 (16)
[33m[WRN] [0m[R31] RobCusor 0x7fd2c5c08110 read-depends on 0x7fd2c5c09dc0
[33m[WRN] [0m[R31] RobCusor 0x7fd2c5c08110 write can go ahead with ticket 0x7fd2c5c0b1e0
0x00007fd2c601514c  d65f03c0		ret
[33m[WRN] [0m[R30] RobCusor 0x7fd2c5c08170 read-depends on 0x7fd2c5c09dc0
0x00007fd2c6015150  a9bf7bfd		stp x29, x30, [sp, #-16]!
[33m[WRN] [0m[R31] RobCusor 0x7fd2c5c081d0 read-depends on 0x7fd2c5c0b1e0
[33m[WRN] [0m[R31] RobCusor 0x7fd2c5c081d0 write can go ahead with ticket 0x7fd2c5c0b3e0
[33m[WRN] [0m[R29] RobCusor 0x7fd2c5c081d0 read-depends on 0x7fd2c5c09e70
[33m[WRN] [0mRobEntry 0x7fd2c5c081d0 not ready due to 0x7fd2c5c0b1e0
[33m[WRN] [0m[R30] RobCusor 0x7fd2c5c081d0 read-depends on 0x7fd2c5c09dc0
[33m[WRN] [0mRobEntry 0x7fd2c5c081d0 not ready due to 0x7fd2c5c0b1e0
0x00007fd2c6015154  910003fd		mov x29, sp
[33m[WRN] [0m[R31] RobCusor 0x7fd2c5c08230 read-depends on 0x7fd2c5c0b3e0
[33m[WRN] [0m[R29] RobCusor 0x7fd2c5c08230 write can go ahead with ticket 0x7fd2c5c0b730
0x00007fd2c6015158  d10043ff		sub sp, sp, #0x10 (16)
[33m[WRN] [0m[R31] RobCusor 0x7fd2c5c08290 read-depends on 0x7fd2c5c0b3e0
[33m[WRN] [0m[R31] RobCusor 0x7fd2c5c08290 write can go ahead with ticket 0x7fd2c5c0b870
0x00007fd2c601515c  52800140		mov w0, #0xa
[33m[WRN] [0m[R0] RobCusor 0x7fd2c5c082f0 write can go ahead with ticket 0x7fd2c5c0b920
0x00007fd2c6015160  52800008		mov w8, #0x0
[33m[WRN] [0m[R8] RobCusor 0x7fd2c5c08350 write can go ahead with ticket 0x7fd2c5c0b9d0
0x00007fd2c6015164  b81fc3a8		stur w8, [x29, #-4]
[33m[WRN] [0m[R29] RobCusor 0x7fd2c5c083b0 read-depends on 0x7fd2c5c0b730
[33m[WRN] [0m[R8] RobCusor 0x7fd2c5c083b0 read-depends on 0x7fd2c5c0b9d0
[33m[WRN] [0mRobEntry 0x7fd2c5c083b0 not ready due to 0x7fd2c5c0b730
0x00007fd2c6015168  97ffffe6		bl #-0x68 (addr 0x7fd2c6015100)
[33m[WRN] [0m[R30] RobCusor 0x7fd2c5c08410 write can go ahead with ticket 0x7fd2c5c0bc10
0x00007fd2c6015100  d10043ff		sub sp, sp, #0x10 (16)
[33m[WRN] [0m[R31] RobCusor 0x7fd2c5c08470 read-depends on 0x7fd2c5c0b870
[33m[WRN] [0m[R31] RobCusor 0x7fd2c5c08470 write can go ahead with ticket 0x7fd2c5c0bc10
0x00007fd2c6015104  320003e8		orr w8, wzr, #0x1
[33m[WRN] [0m[R8] RobCusor 0x7fd2c5c084d0 write can go ahead with ticket 0x7fd2c5c0be20
0x00007fd2c6015108  b9000fe0		str w0, [sp, #12]
[33m[WRN] [0m[R31] RobCusor 0x7fd2c5c08530 read-depends on 0x7fd2c5c0bc10
[33m[WRN] [0m[R0] RobCusor 0x7fd2c5c08530 read-depends on 0x7fd2c5c0b920
[33m[WRN] [0mRobEntry 0x7fd2c5c08530 not ready due to 0x7fd2c5c0bc10
0x00007fd2c601510c  b9000be8		str w8, [sp, #8]
[33m[WRN] [0m[R31] RobCusor 0x7fd2c5c08590 read-depends on 0x7fd2c5c0bc10
[33m[WRN] [0m[R8] RobCusor 0x7fd2c5c08590 read-depends on 0x7fd2c5c0be20
[33m[WRN] [0mRobEntry 0x7fd2c5c08590 not ready due to 0x7fd2c5c0bc10
0x00007fd2c6015110  b9400fe8		ldr w8, [sp, #12]
[33m[WRN] [0m[R31] RobCusor 0x7fd2c5c085f0 read-depends on 0x7fd2c5c0bc10
[33m[WRN] [0mRobEntry 0x7fd2c5c085f0 not ready due to 0x7fd2c5c0bc10
[33m[WRN] [0m[R8] RobCusor 0x7fd2c5c085f0 write can go ahead with ticket 0x7fd2c5c0b0b0
0x00007fd2c6015114  7100051f		cmp w8, #0x1 (1)
[33m[WRN] [0m[R8] RobCusor 0x7fd2c5c08650 read-depends on 0x7fd2c5c0b0b0
[33m[WRN] [0m[NZCV] RobCusor 0x7fd2c5c08650 write can go ahead with ticket 0x7fd2c5c0c4e0
[33m[WRN] [0m[NZCV] RobCusor 0x7fd2c5c08650 write can go ahead with ticket 0x7fd2c5c0c5a8
[33m[WRN] [0m[NZCV] RobCusor 0x7fd2c5c08650 write can go ahead with ticket 0x7fd2c5c0c680
[33m[WRN] [0m[NZCV] RobCusor 0x7fd2c5c08650 write can go ahead with ticket 0x7fd2c5c0c698
0x00007fd2c6015118  54000041		b.ne #+0x8 (addr 0x7fd2c6015120)
[33m[WRN] [0m[NZCV] RobCusor 0x7fd2c5c086b0 read-depends on 0x7fd2c5c0c698
0x00007fd2c601511c  1400000a		b #+0x28 (addr 0x7fd2c6015144)
0x00007fd2c6015144  b9400be0		ldr w0, [sp, #8]
[33m[WRN] [0m[R31] RobCusor 0x7fd2c5c078f0 read-depends on 0x7fd2c5c0bc10
[33m[WRN] [0mRobEntry 0x7fd2c5c078f0 not ready due to 0x7fd2c5c0bc10
[33m[WRN] [0m[R0] RobCusor 0x7fd2c5c078f0 write can go ahead with ticket 0x7fd2c5c0c9b0
0x00007fd2c6015148  910043ff		add sp, sp, #0x10 (16)
[33m[WRN] [0m[R31] RobCusor 0x7fd2c5c07950 read-depends on 0x7fd2c5c0bc10
[33m[WRN] [0m[R31] RobCusor 0x7fd2c5c07950 write can go ahead with ticket 0x7fd2c5c0caf0
0x00007fd2c601514c  d65f03c0		ret
[33m[WRN] [0m[R30] RobCusor 0x7fd2c5c079b0 read-depends on 0x7fd2c5c0bc10
0x00007fd2c6015150  a9bf7bfd		stp x29, x30, [sp, #-16]!
[33m[WRN] [0m[R31] RobCusor 0x7fd2c5c07a10 read-depends on 0x7fd2c5c0caf0
[33m[WRN] [0m[R31] RobCusor 0x7fd2c5c07a10 write can go ahead with ticket 0x7fd2c5c0ccf0
[33m[WRN] [0m[R29] RobCusor 0x7fd2c5c07a10 read-depends on 0x7fd2c5c0b730
[33m[WRN] [0mRobEntry 0x7fd2c5c07a10 not ready due to 0x7fd2c5c0caf0
[33m[WRN] [0m[R30] RobCusor 0x7fd2c5c07a10 read-depends on 0x7fd2c5c0bc10
[33m[WRN] [0mRobEntry 0x7fd2c5c07a10 not ready due to 0x7fd2c5c0caf0
0x00007fd2c6015154  910003fd		mov x29, sp
[33m[WRN] [0m[R31] RobCusor 0x7fd2c5c08710 read-depends on 0x7fd2c5c0ccf0
[33m[WRN] [0m[R29] RobCusor 0x7fd2c5c08710 write can go ahead with ticket 0x7fd2c5c0d020
0x00007fd2c6015158  d10043ff		sub sp, sp, #0x10 (16)
[33m[WRN] [0m[R31] RobCusor 0x7fd2c5c08770 read-depends on 0x7fd2c5c0ccf0
[33m[WRN] [0m[R31] RobCusor 0x7fd2c5c08770 write can go ahead with ticket 0x7fd2c5c0d150
0x00007fd2c601515c  52800140		mov w0, #0xa
[33m[WRN] [0m[R0] RobCusor 0x7fd2c5c087d0 write can go ahead with ticket 0x7fd2c5c0d200
0x00007fd2c6015160  52800008		mov w8, #0x0
[33m[WRN] [0m[R8] RobCusor 0x7fd2c5c08830 write can go ahead with ticket 0x7fd2c5c0d2b0
0x00007fd2c6015164  b81fc3a8		stur w8, [x29, #-4]
[33m[WRN] [0m[R29] RobCusor 0x7fd2c5c08890 read-depends on 0x7fd2c5c0d020
[33m[WRN] [0m[R8] RobCusor 0x7fd2c5c08890 read-depends on 0x7fd2c5c0d2b0
[33m[WRN] [0mRobEntry 0x7fd2c5c08890 not ready due to 0x7fd2c5c0d020
0x00007fd2c6015168  97ffffe6		bl #-0x68 (addr 0x7fd2c6015100)
[33m[WRN] [0m[R30] RobCusor 0x7fd2c5c088f0 write can go ahead with ticket 0x7fd2c5c0d4f0
0x00007fd2c6015100  d10043ff		sub sp, sp, #0x10 (16)
[33m[WRN] [0m[R31] RobCusor 0x7fd2c5c08950 read-depends on 0x7fd2c5c0d150
[33m[WRN] [0m[R31] RobCusor 0x7fd2c5c08950 write can go ahead with ticket 0x7fd2c5c0d4f0
0x00007fd2c6015104  320003e8		orr w8, wzr, #0x1
[33m[WRN] [0m[R8] RobCusor 0x7fd2c5c089b0 write can go ahead with ticket 0x7fd2c5c0d700
0x00007fd2c6015108  b9000fe0		str w0, [sp, #12]
[33m[WRN] [0m[R31] RobCusor 0x7fd2c5c08a10 read-depends on 0x7fd2c5c0d4f0
[33m[WRN] [0m[R0] RobCusor 0x7fd2c5c08a10 read-depends on 0x7fd2c5c0d200
[33m[WRN] [0mRobEntry 0x7fd2c5c08a10 not ready due to 0x7fd2c5c0d4f0
0x00007fd2c601510c  b9000be8		str w8, [sp, #8]
[33m[WRN] [0m[R31] RobCusor 0x7fd2c5c08a70 read-depends on 0x7fd2c5c0d4f0
[33m[WRN] [0m[R8] RobCusor 0x7fd2c5c08a70 read-depends on 0x7fd2c5c0d700
[33m[WRN] [0mRobEntry 0x7fd2c5c08a70 not ready due to 0x7fd2c5c0d4f0
0x00007fd2c6015110  b9400fe8		ldr w8, [sp, #12]
[33m[WRN] [0m[R31] RobCusor 0x7fd2c5c08ad0 read-depends on 0x7fd2c5c0d4f0
[33m[WRN] [0mRobEntry 0x7fd2c5c08ad0 not ready due to 0x7fd2c5c0d4f0
[33m[WRN] [0m[R8] RobCusor 0x7fd2c5c08ad0 write can go ahead with ticket 0x7fd2c5c0dc60
0x00007fd2c6015114  7100051f		cmp w8, #0x1 (1)
[33m[WRN] [0m[R8] RobCusor 0x7fd2c5c08b30 read-depends on 0x7fd2c5c0dc60
[33m[WRN] [0m[NZCV] RobCusor 0x7fd2c5c08b30 write can go ahead with ticket 0x7fd2c5c0dda0
[33m[WRN] [0m[NZCV] RobCusor 0x7fd2c5c08b30 write can go ahead with ticket 0x7fd2c5c0de68
[33m[WRN] [0m[NZCV] RobCusor 0x7fd2c5c08b30 write can go ahead with ticket 0x7fd2c5c0df30
[33m[WRN] [0m[NZCV] RobCusor 0x7fd2c5c08b30 write can go ahead with ticket 0x7fd2c5c0df48
0x00007fd2c6015118  54000041		b.ne #+0x8 (addr 0x7fd2c6015120)
[33m[WRN] [0m[NZCV] RobCusor 0x7fd2c5c08b90 read-depends on 0x7fd2c5c0df48
0x00007fd2c601511c  1400000a		b #+0x28 (addr 0x7fd2c6015144)
0x00007fd2c6015144  b9400be0		ldr w0, [sp, #8]
[33m[WRN] [0m[R31] RobCusor 0x7fd2c5c08c50 read-depends on 0x7fd2c5c0d4f0
[33m[WRN] [0mRobEntry 0x7fd2c5c08c50 not ready due to 0x7fd2c5c0d4f0
[33m[WRN] [0m[R0] RobCusor 0x7fd2c5c08c50 write can go ahead with ticket 0x7fd2c5c0e230
0x00007fd2c6015148  910043ff		add sp, sp, #0x10 (16)
[33m[WRN] [0m[R31] RobCusor 0x7fd2c5c08cb0 read-depends on 0x7fd2c5c0d4f0
[33m[WRN] [0m[R31] RobCusor 0x7fd2c5c08cb0 write can go ahead with ticket 0x7fd2c5c0e370
0x00007fd2c601514c  d65f03c0		ret
[33m[WRN] [0m[R30] RobCusor 0x7fd2c5c08d10 read-depends on 0x7fd2c5c0d4f0
0x00007fd2c6015150  a9bf7bfd		stp x29, x30, [sp, #-16]!
[33m[WRN] [0m[R31] RobCusor 0x7fd2c5c08d70 read-depends on 0x7fd2c5c0e370
[33m[WRN] [0m[R31] RobCusor 0x7fd2c5c08d70 write can go ahead with ticket 0x7fd2c5c0e570
[33m[WRN] [0m[R29] RobCusor 0x7fd2c5c08d70 read-depends on 0x7fd2c5c0d020
[33m[WRN] [0mRobEntry 0x7fd2c5c08d70 not ready due to 0x7fd2c5c0e370
[33m[WRN] [0m[R30] RobCusor 0x7fd2c5c08d70 read-depends on 0x7fd2c5c0d4f0
[33m[WRN] [0mRobEntry 0x7fd2c5c08d70 not ready due to 0x7fd2c5c0e370
0x00007fd2c6015154  910003fd		mov x29, sp
[33m[WRN] [0m[R31] RobCusor 0x7fd2c5c08dd0 read-depends on 0x7fd2c5c0e570
[33m[WRN] [0m[R29] RobCusor 0x7fd2c5c08dd0 write can go ahead with ticket 0x7fd2c5c0c0e0
0x00007fd2c6015158  d10043ff		sub sp, sp, #0x10 (16)
[33m[WRN] [0m[R31] RobCusor 0x7fd2c5c08e30 read-depends on 0x7fd2c5c0e570
[33m[WRN] [0m[R31] RobCusor 0x7fd2c5c08e30 write can go ahead with ticket 0x7fd2c5c0c110
0x00007fd2c601515c  52800140		mov w0, #0xa
[33m[WRN] [0m[R0] RobCusor 0x7fd2c5c08e90 write can go ahead with ticket 0x7fd2c5c0c140
0x00007fd2c6015160  52800008		mov w8, #0x0
[33m[WRN] [0m[R8] RobCusor 0x7fd2c5c08ef0 write can go ahead with ticket 0x7fd2c5c0ec30
0x00007fd2c6015164  b81fc3a8		stur w8, [x29, #-4]
[33m[WRN] [0m[R29] RobCusor 0x7fd2c5c08f50 read-depends on 0x7fd2c5c0c0e0
[33m[WRN] [0m[R8] RobCusor 0x7fd2c5c08f50 read-depends on 0x7fd2c5c0ec30
[33m[WRN] [0mRobEntry 0x7fd2c5c08f50 not ready due to 0x7fd2c5c0c0e0
0x00007fd2c6015168  97ffffe6		bl #-0x68 (addr 0x7fd2c6015100)
[33m[WRN] [0m[R30] RobCusor 0x7fd2c5c08fb0 write can go ahead with ticket 0x7fd2c5c0ee70
0x00007fd2c6015100  d10043ff		sub sp, sp, #0x10 (16)
[33m[WRN] [0m[R31] RobCusor 0x7fd2c5c09010 read-depends on 0x7fd2c5c0c110
[33m[WRN] [0m[R31] RobCusor 0x7fd2c5c09010 write can go ahead with ticket 0x7fd2c5c0ee70
0x00007fd2c6015104  320003e8		orr w8, wzr, #0x1
[33m[WRN] [0m[R8] RobCusor 0x7fd2c5c09070 write can go ahead with ticket 0x7fd2c5c0f080
0x00007fd2c6015108  b9000fe0		str w0, [sp, #12]
[33m[WRN] [0m[R31] RobCusor 0x7fd2c5c090d0 read-depends on 0x7fd2c5c0ee70
[33m[WRN] [0m[R0] RobCusor 0x7fd2c5c090d0 read-depends on 0x7fd2c5c0c140
[33m[WRN] [0mRobEntry 0x7fd2c5c090d0 not ready due to 0x7fd2c5c0ee70
[33m[WRN] [0m----------------------Experimental Execute--------------
[33m[WRN] [0mRobEntry 0x7fd2c5c07b70 not ready due to 0x7fd2c5c07a70
[33m[WRN] [0mRobEntry 0x7fd2c5c07bd0 not ready due to 0x7fd2c5c07a70
[33m[WRN] [0mRobEntry 0x7fd2c5c07db0 not ready due to 0x7fd2c5c09fb0
[33m[WRN] [0mRobEntry 0x7fd2c5c07f90 not ready due to 0x7fd2c5c0aaf0
[33m[WRN] [0mRobEntry 0x7fd2c5c07ff0 not ready due to 0x7fd2c5c0add8
[33m[WRN] [0mRobEntry 0x7fd2c5c08110 not ready due to 0x7fd2c5c09dc0
[33m[WRN] [0mRobEntry 0x7fd2c5c08170 not ready due to 0x7fd2c5c09dc0
[33m[WRN] [0mRobEntry 0x7fd2c5c08230 not ready due to 0x7fd2c5c0b3e0
[33m[WRN] [0mRobEntry 0x7fd2c5c08290 not ready due to 0x7fd2c5c0b3e0
[33m[WRN] [0mRobEntry 0x7fd2c5c08470 not ready due to 0x7fd2c5c0b870
[33m[WRN] [0mRobEntry 0x7fd2c5c08650 not ready due to 0x7fd2c5c0b0b0
[33m[WRN] [0mRobEntry 0x7fd2c5c086b0 not ready due to 0x7fd2c5c0c698
[33m[WRN] [0mRobEntry 0x7fd2c5c07950 not ready due to 0x7fd2c5c0bc10
[33m[WRN] [0mRobEntry 0x7fd2c5c079b0 not ready due to 0x7fd2c5c0bc10
[33m[WRN] [0mRobEntry 0x7fd2c5c08710 not ready due to 0x7fd2c5c0ccf0
[33m[WRN] [0mRobEntry 0x7fd2c5c08770 not ready due to 0x7fd2c5c0ccf0
[33m[WRN] [0mRobEntry 0x7fd2c5c08950 not ready due to 0x7fd2c5c0d150
[33m[WRN] [0mRobEntry 0x7fd2c5c08b30 not ready due to 0x7fd2c5c0dc60
[33m[WRN] [0mRobEntry 0x7fd2c5c08b90 not ready due to 0x7fd2c5c0df48
[33m[WRN] [0mRobEntry 0x7fd2c5c08cb0 not ready due to 0x7fd2c5c0d4f0
[33m[WRN] [0mRobEntry 0x7fd2c5c08d10 not ready due to 0x7fd2c5c0d4f0
[33m[WRN] [0mRobEntry 0x7fd2c5c08dd0 not ready due to 0x7fd2c5c0e570
[33m[WRN] [0mRobEntry 0x7fd2c5c08e30 not ready due to 0x7fd2c5c0e570
[33m[WRN] [0mRobEntry 0x7fd2c5c09010 not ready due to 0x7fd2c5c0c110
0x00007fd2c6015150  a9bf7bfd		stp x29, x30, [sp, #-16]!
[33m[WRN] [0m[R31] RobEntry 0x7fd2c5c07b10 reads init val 0x0
[33m[WRN] [0m[0x7fd2c5c07b10] filled ticket 0x7fd2c5c07a70
#    sp: 0x00007fd2c601d2f0
[33m[WRN] [0m[R29] RobEntry 0x7fd2c5c07b10 reads init val 0x0
[33m[WRN] [0mReal write: 0x7fd2c601d2f0, 0xbadbeef
[33m[WRN] [0m[R30] RobEntry 0x7fd2c5c07b10 reads init val 0x0
[33m[WRN] [0mReal write: 0x7fd2c601d2f8, 0x0
#   x29: 0x000000000badbeef -> 0x00007fd2c601d2f0
#    lr: 0x0000000000000000 -> 0x00007fd2c601d2f8
[34m[DBG] [0m   Logic[0]: newPc <- 0x7fd2c6015154
0x00007fd2c601515c  52800140		mov w0, #0xa
[33m[WRN] [0m[0x7fd2c5c07c30] filled ticket 0x7fd2c5c0a060
#    x0: 0x000000000000000a
[34m[DBG] [0m   Logic[1]: newPc <- 0x7fd2c6015160
[34m[DBG] [0m   Scribe: retired 0 ROB entries (now: 0x7fd2c5c07b10:Done)
[34m[DBG] [0m======================================== Update[3/0] 
[34m[DBG] [0m   Fetcher: buffer.size = 128
[34m[DBG] [0m   Logic: instr executed ? yes: 1
[34m[DBG] [0m   Logic: rStation size <- 63, rsVacancy <- 1
[34m[DBG] [0m======================================== Sync [3/0] 
[34m[DBG] [0m======================================== Cycle End

[34m[DBG] [0m======================================== Compute[4/0]
[34m[DBG] [0mPC Offsest: 0x160
[34m[DBG] [0m   Fetcher: at: 0x7fd2c6015160 (buffer 0:128)
[34m[DBG] [0m   Fetcher: front instr = 0x7fd2c6015160, fetched 64, tmpBuffer: 64
[34m[DBG] [0m   Decoder: Logic reservation station is full
0x00007fd2c6015154  910003fd		mov x29, sp
0x00007fd2c6015158  d10043ff		sub sp, sp, #0x10 (16)
0x00007fd2c6015160  52800008		mov w8, #0x0
0x00007fd2c6015164  b81fc3a8		stur w8, [x29, #-4]
[33m[WRN] [0mRobEntry 0x7fd2c5c07cf0 not ready due to 0x7fd2c5c09e70
0x00007fd2c6015168  97ffffe6		bl #-0x68 (addr 0x7fd2c6015100)
0x00007fd2c6015100  d10043ff		sub sp, sp, #0x10 (16)
0x00007fd2c6015104  320003e8		orr w8, wzr, #0x1
0x00007fd2c6015108  b9000fe0		str w0, [sp, #12]
[33m[WRN] [0mRobEntry 0x7fd2c5c07e70 not ready due to 0x7fd2c5c09dc0
0x00007fd2c601510c  b9000be8		str w8, [sp, #8]
[33m[WRN] [0mRobEntry 0x7fd2c5c07ed0 not ready due to 0x7fd2c5c09dc0
0x00007fd2c6015110  b9400fe8		ldr w8, [sp, #12]
[33m[WRN] [0mRobEntry 0x7fd2c5c07f30 not ready due to 0x7fd2c5c09dc0
0x00007fd2c6015114  7100051f		cmp w8, #0x1 (1)
0x00007fd2c6015118  54000041		b.ne #+0x8 (addr 0x7fd2c6015120)
0x00007fd2c601511c  1400000a		b #+0x28 (addr 0x7fd2c6015144)
0x00007fd2c6015144  b9400be0		ldr w0, [sp, #8]
[33m[WRN] [0mRobEntry 0x7fd2c5c080b0 not ready due to 0x7fd2c5c09dc0
0x00007fd2c6015148  910043ff		add sp, sp, #0x10 (16)
0x00007fd2c601514c  d65f03c0		ret
0x00007fd2c6015150  a9bf7bfd		stp x29, x30, [sp, #-16]!
[33m[WRN] [0mRobEntry 0x7fd2c5c081d0 not ready due to 0x7fd2c5c0b1e0
[33m[WRN] [0mRobEntry 0x7fd2c5c081d0 not ready due to 0x7fd2c5c0b1e0
0x00007fd2c6015154  910003fd		mov x29, sp
0x00007fd2c6015158  d10043ff		sub sp, sp, #0x10 (16)
0x00007fd2c601515c  52800140		mov w0, #0xa
0x00007fd2c6015160  52800008		mov w8, #0x0
0x00007fd2c6015164  b81fc3a8		stur w8, [x29, #-4]
[33m[WRN] [0mRobEntry 0x7fd2c5c083b0 not ready due to 0x7fd2c5c0b730
0x00007fd2c6015168  97ffffe6		bl #-0x68 (addr 0x7fd2c6015100)
0x00007fd2c6015100  d10043ff		sub sp, sp, #0x10 (16)
0x00007fd2c6015104  320003e8		orr w8, wzr, #0x1
0x00007fd2c6015108  b9000fe0		str w0, [sp, #12]
[33m[WRN] [0mRobEntry 0x7fd2c5c08530 not ready due to 0x7fd2c5c0bc10
0x00007fd2c601510c  b9000be8		str w8, [sp, #8]
[33m[WRN] [0mRobEntry 0x7fd2c5c08590 not ready due to 0x7fd2c5c0bc10
0x00007fd2c6015110  b9400fe8		ldr w8, [sp, #12]
[33m[WRN] [0mRobEntry 0x7fd2c5c085f0 not ready due to 0x7fd2c5c0bc10
0x00007fd2c6015114  7100051f		cmp w8, #0x1 (1)
0x00007fd2c6015118  54000041		b.ne #+0x8 (addr 0x7fd2c6015120)
0x00007fd2c601511c  1400000a		b #+0x28 (addr 0x7fd2c6015144)
0x00007fd2c6015144  b9400be0		ldr w0, [sp, #8]
[33m[WRN] [0mRobEntry 0x7fd2c5c078f0 not ready due to 0x7fd2c5c0bc10
0x00007fd2c6015148  910043ff		add sp, sp, #0x10 (16)
0x00007fd2c601514c  d65f03c0		ret
0x00007fd2c6015150  a9bf7bfd		stp x29, x30, [sp, #-16]!
[33m[WRN] [0mRobEntry 0x7fd2c5c07a10 not ready due to 0x7fd2c5c0caf0
[33m[WRN] [0mRobEntry 0x7fd2c5c07a10 not ready due to 0x7fd2c5c0caf0
0x00007fd2c6015154  910003fd		mov x29, sp
0x00007fd2c6015158  d10043ff		sub sp, sp, #0x10 (16)
0x00007fd2c601515c  52800140		mov w0, #0xa
0x00007fd2c6015160  52800008		mov w8, #0x0
0x00007fd2c6015164  b81fc3a8		stur w8, [x29, #-4]
[33m[WRN] [0mRobEntry 0x7fd2c5c08890 not ready due to 0x7fd2c5c0d020
0x00007fd2c6015168  97ffffe6		bl #-0x68 (addr 0x7fd2c6015100)
0x00007fd2c6015100  d10043ff		sub sp, sp, #0x10 (16)
0x00007fd2c6015104  320003e8		orr w8, wzr, #0x1
0x00007fd2c6015108  b9000fe0		str w0, [sp, #12]
[33m[WRN] [0mRobEntry 0x7fd2c5c08a10 not ready due to 0x7fd2c5c0d4f0
0x00007fd2c601510c  b9000be8		str w8, [sp, #8]
[33m[WRN] [0mRobEntry 0x7fd2c5c08a70 not ready due to 0x7fd2c5c0d4f0
0x00007fd2c6015110  b9400fe8		ldr w8, [sp, #12]
[33m[WRN] [0mRobEntry 0x7fd2c5c08ad0 not ready due to 0x7fd2c5c0d4f0
0x00007fd2c6015114  7100051f		cmp w8, #0x1 (1)
0x00007fd2c6015118  54000041		b.ne #+0x8 (addr 0x7fd2c6015120)
0x00007fd2c601511c  1400000a		b #+0x28 (addr 0x7fd2c6015144)
0x00007fd2c6015144  b9400be0		ldr w0, [sp, #8]
[33m[WRN] [0mRobEntry 0x7fd2c5c08c50 not ready due to 0x7fd2c5c0d4f0
0x00007fd2c6015148  910043ff		add sp, sp, #0x10 (16)
0x00007fd2c601514c  d65f03c0		ret
0x00007fd2c6015150  a9bf7bfd		stp x29, x30, [sp, #-16]!
[33m[WRN] [0mRobEntry 0x7fd2c5c08d70 not ready due to 0x7fd2c5c0e370
[33m[WRN] [0mRobEntry 0x7fd2c5c08d70 not ready due to 0x7fd2c5c0e370
0x00007fd2c6015154  910003fd		mov x29, sp
0x00007fd2c6015158  d10043ff		sub sp, sp, #0x10 (16)
0x00007fd2c601515c  52800140		mov w0, #0xa
0x00007fd2c6015160  52800008		mov w8, #0x0
0x00007fd2c6015164  b81fc3a8		stur w8, [x29, #-4]
[33m[WRN] [0mRobEntry 0x7fd2c5c08f50 not ready due to 0x7fd2c5c0c0e0
0x00007fd2c6015168  97ffffe6		bl #-0x68 (addr 0x7fd2c6015100)
0x00007fd2c6015100  d10043ff		sub sp, sp, #0x10 (16)
0x00007fd2c6015104  320003e8		orr w8, wzr, #0x1
0x00007fd2c6015108  b9000fe0		str w0, [sp, #12]
[33m[WRN] [0mRobEntry 0x7fd2c5c090d0 not ready due to 0x7fd2c5c0ee70
[33m[WRN] [0m----------------------Experimental Execute--------------
[33m[WRN] [0mRobEntry 0x7fd2c5c07b70 ready with 0x7fd2c5c07a70
[33m[WRN] [0mRobEntry 0x7fd2c5c07bd0 ready with 0x7fd2c5c07a70
[33m[WRN] [0mRobEntry 0x7fd2c5c07db0 not ready due to 0x7fd2c5c09fb0
[33m[WRN] [0mRobEntry 0x7fd2c5c07f90 not ready due to 0x7fd2c5c0aaf0
[33m[WRN] [0mRobEntry 0x7fd2c5c07ff0 not ready due to 0x7fd2c5c0add8
[33m[WRN] [0mRobEntry 0x7fd2c5c08110 not ready due to 0x7fd2c5c09dc0
[33m[WRN] [0mRobEntry 0x7fd2c5c08170 not ready due to 0x7fd2c5c09dc0
[33m[WRN] [0mRobEntry 0x7fd2c5c08230 not ready due to 0x7fd2c5c0b3e0
[33m[WRN] [0mRobEntry 0x7fd2c5c08290 not ready due to 0x7fd2c5c0b3e0
[33m[WRN] [0mRobEntry 0x7fd2c5c08470 not ready due to 0x7fd2c5c0b870
[33m[WRN] [0mRobEntry 0x7fd2c5c08650 not ready due to 0x7fd2c5c0b0b0
[33m[WRN] [0mRobEntry 0x7fd2c5c086b0 not ready due to 0x7fd2c5c0c698
[33m[WRN] [0mRobEntry 0x7fd2c5c07950 not ready due to 0x7fd2c5c0bc10
[33m[WRN] [0mRobEntry 0x7fd2c5c079b0 not ready due to 0x7fd2c5c0bc10
[33m[WRN] [0mRobEntry 0x7fd2c5c08710 not ready due to 0x7fd2c5c0ccf0
[33m[WRN] [0mRobEntry 0x7fd2c5c08770 not ready due to 0x7fd2c5c0ccf0
[33m[WRN] [0mRobEntry 0x7fd2c5c08950 not ready due to 0x7fd2c5c0d150
[33m[WRN] [0mRobEntry 0x7fd2c5c08b30 not ready due to 0x7fd2c5c0dc60
[33m[WRN] [0mRobEntry 0x7fd2c5c08b90 not ready due to 0x7fd2c5c0df48
[33m[WRN] [0mRobEntry 0x7fd2c5c08cb0 not ready due to 0x7fd2c5c0d4f0
[33m[WRN] [0mRobEntry 0x7fd2c5c08d10 not ready due to 0x7fd2c5c0d4f0
[33m[WRN] [0mRobEntry 0x7fd2c5c08dd0 not ready due to 0x7fd2c5c0e570
[33m[WRN] [0mRobEntry 0x7fd2c5c08e30 not ready due to 0x7fd2c5c0e570
[33m[WRN] [0mRobEntry 0x7fd2c5c09010 not ready due to 0x7fd2c5c0c110
0x00007fd2c6015154  910003fd		mov x29, sp
[33m[WRN] [0m[0x7fd2c5c07b70] filled ticket 0x7fd2c5c09e70
#   x29: 0x00007fd2c601d2f0
[34m[DBG] [0m   Logic[0]: newPc <- 0x7fd2c6015158
0x00007fd2c6015158  d10043ff		sub sp, sp, #0x10 (16)
[33m[WRN] [0m[0x7fd2c5c07bd0] filled ticket 0x7fd2c5c09fb0
#    sp: 0x00007fd2c601d2e0
[34m[DBG] [0m   Logic[1]: newPc <- 0x7fd2c601515c
[34m[DBG] [0m   Scribe: retired 1 ROB entries (now: 0x7fd2c5c07b70:Done)
[34m[DBG] [0m======================================== Update[4/1] 
[34m[DBG] [0m   Fetcher: buffer.size = 192
[34m[DBG] [0m   Logic: instr executed ? yes: 3
[34m[DBG] [0m   Logic: rStation size <- 61, rsVacancy <- 3
[34m[DBG] [0m======================================== Sync [4/1] 
[34m[DBG] [0m======================================== Cycle End

[34m[DBG] [0m======================================== Compute[5/1]
[34m[DBG] [0mPC Offsest: 0x11c
[34m[DBG] [0m   Fetcher: at: 0x7fd2c601511c (buffer 0:192)
[34m[DBG] [0m   Fetcher: front instr = 0x7fd2c601511c, fetched 64, tmpBuffer: 64
[34m[DBG] [0m   Decoder: front instr = 0x7fd2c6015158
[34m[DBG] [0m   Decoder: Logic reservation station is full
0x00007fd2c6015160  52800008		mov w8, #0x0
0x00007fd2c6015164  b81fc3a8		stur w8, [x29, #-4]
[33m[WRN] [0mRobEntry 0x7fd2c5c07cf0 ready with 0x7fd2c5c09e70
[33m[WRN] [0mRobEntry 0x7fd2c5c07cf0 not ready due to 0x7fd2c5c0a110
0x00007fd2c6015168  97ffffe6		bl #-0x68 (addr 0x7fd2c6015100)
0x00007fd2c6015100  d10043ff		sub sp, sp, #0x10 (16)
0x00007fd2c6015104  320003e8		orr w8, wzr, #0x1
0x00007fd2c6015108  b9000fe0		str w0, [sp, #12]
[33m[WRN] [0mRobEntry 0x7fd2c5c07e70 not ready due to 0x7fd2c5c09dc0
0x00007fd2c601510c  b9000be8		str w8, [sp, #8]
[33m[WRN] [0mRobEntry 0x7fd2c5c07ed0 not ready due to 0x7fd2c5c09dc0
0x00007fd2c6015110  b9400fe8		ldr w8, [sp, #12]
[33m[WRN] [0mRobEntry 0x7fd2c5c07f30 not ready due to 0x7fd2c5c09dc0
0x00007fd2c6015114  7100051f		cmp w8, #0x1 (1)
0x00007fd2c6015118  54000041		b.ne #+0x8 (addr 0x7fd2c6015120)
0x00007fd2c601511c  1400000a		b #+0x28 (addr 0x7fd2c6015144)
0x00007fd2c6015144  b9400be0		ldr w0, [sp, #8]
[33m[WRN] [0mRobEntry 0x7fd2c5c080b0 not ready due to 0x7fd2c5c09dc0
0x00007fd2c6015148  910043ff		add sp, sp, #0x10 (16)
0x00007fd2c601514c  d65f03c0		ret
0x00007fd2c6015150  a9bf7bfd		stp x29, x30, [sp, #-16]!
[33m[WRN] [0mRobEntry 0x7fd2c5c081d0 not ready due to 0x7fd2c5c0b1e0
[33m[WRN] [0mRobEntry 0x7fd2c5c081d0 not ready due to 0x7fd2c5c0b1e0
0x00007fd2c6015154  910003fd		mov x29, sp
0x00007fd2c6015158  d10043ff		sub sp, sp, #0x10 (16)
0x00007fd2c601515c  52800140		mov w0, #0xa
0x00007fd2c6015160  52800008		mov w8, #0x0
0x00007fd2c6015164  b81fc3a8		stur w8, [x29, #-4]
[33m[WRN] [0mRobEntry 0x7fd2c5c083b0 not ready due to 0x7fd2c5c0b730
0x00007fd2c6015168  97ffffe6		bl #-0x68 (addr 0x7fd2c6015100)
0x00007fd2c6015100  d10043ff		sub sp, sp, #0x10 (16)
0x00007fd2c6015104  320003e8		orr w8, wzr, #0x1
0x00007fd2c6015108  b9000fe0		str w0, [sp, #12]
[33m[WRN] [0mRobEntry 0x7fd2c5c08530 not ready due to 0x7fd2c5c0bc10
0x00007fd2c601510c  b9000be8		str w8, [sp, #8]
[33m[WRN] [0mRobEntry 0x7fd2c5c08590 not ready due to 0x7fd2c5c0bc10
0x00007fd2c6015110  b9400fe8		ldr w8, [sp, #12]
[33m[WRN] [0mRobEntry 0x7fd2c5c085f0 not ready due to 0x7fd2c5c0bc10
0x00007fd2c6015114  7100051f		cmp w8, #0x1 (1)
0x00007fd2c6015118  54000041		b.ne #+0x8 (addr 0x7fd2c6015120)
0x00007fd2c601511c  1400000a		b #+0x28 (addr 0x7fd2c6015144)
0x00007fd2c6015144  b9400be0		ldr w0, [sp, #8]
[33m[WRN] [0mRobEntry 0x7fd2c5c078f0 not ready due to 0x7fd2c5c0bc10
0x00007fd2c6015148  910043ff		add sp, sp, #0x10 (16)
0x00007fd2c601514c  d65f03c0		ret
0x00007fd2c6015150  a9bf7bfd		stp x29, x30, [sp, #-16]!
[33m[WRN] [0mRobEntry 0x7fd2c5c07a10 not ready due to 0x7fd2c5c0caf0
[33m[WRN] [0mRobEntry 0x7fd2c5c07a10 not ready due to 0x7fd2c5c0caf0
0x00007fd2c6015154  910003fd		mov x29, sp
0x00007fd2c6015158  d10043ff		sub sp, sp, #0x10 (16)
0x00007fd2c601515c  52800140		mov w0, #0xa
0x00007fd2c6015160  52800008		mov w8, #0x0
0x00007fd2c6015164  b81fc3a8		stur w8, [x29, #-4]
[33m[WRN] [0mRobEntry 0x7fd2c5c08890 not ready due to 0x7fd2c5c0d020
0x00007fd2c6015168  97ffffe6		bl #-0x68 (addr 0x7fd2c6015100)
0x00007fd2c6015100  d10043ff		sub sp, sp, #0x10 (16)
0x00007fd2c6015104  320003e8		orr w8, wzr, #0x1
0x00007fd2c6015108  b9000fe0		str w0, [sp, #12]
[33m[WRN] [0mRobEntry 0x7fd2c5c08a10 not ready due to 0x7fd2c5c0d4f0
0x00007fd2c601510c  b9000be8		str w8, [sp, #8]
[33m[WRN] [0mRobEntry 0x7fd2c5c08a70 not ready due to 0x7fd2c5c0d4f0
0x00007fd2c6015110  b9400fe8		ldr w8, [sp, #12]
[33m[WRN] [0mRobEntry 0x7fd2c5c08ad0 not ready due to 0x7fd2c5c0d4f0
0x00007fd2c6015114  7100051f		cmp w8, #0x1 (1)
0x00007fd2c6015118  54000041		b.ne #+0x8 (addr 0x7fd2c6015120)
0x00007fd2c601511c  1400000a		b #+0x28 (addr 0x7fd2c6015144)
0x00007fd2c6015144  b9400be0		ldr w0, [sp, #8]
[33m[WRN] [0mRobEntry 0x7fd2c5c08c50 not ready due to 0x7fd2c5c0d4f0
0x00007fd2c6015148  910043ff		add sp, sp, #0x10 (16)
0x00007fd2c601514c  d65f03c0		ret
0x00007fd2c6015150  a9bf7bfd		stp x29, x30, [sp, #-16]!
[33m[WRN] [0mRobEntry 0x7fd2c5c08d70 not ready due to 0x7fd2c5c0e370
[33m[WRN] [0mRobEntry 0x7fd2c5c08d70 not ready due to 0x7fd2c5c0e370
0x00007fd2c6015154  910003fd		mov x29, sp
0x00007fd2c6015158  d10043ff		sub sp, sp, #0x10 (16)
0x00007fd2c601515c  52800140		mov w0, #0xa
0x00007fd2c6015160  52800008		mov w8, #0x0
0x00007fd2c6015164  b81fc3a8		stur w8, [x29, #-4]
[33m[WRN] [0mRobEntry 0x7fd2c5c08f50 not ready due to 0x7fd2c5c0c0e0
0x00007fd2c6015168  97ffffe6		bl #-0x68 (addr 0x7fd2c6015100)
0x00007fd2c6015100  d10043ff		sub sp, sp, #0x10 (16)
0x00007fd2c6015104  320003e8		orr w8, wzr, #0x1
0x00007fd2c6015108  b9000fe0		str w0, [sp, #12]
[33m[WRN] [0mRobEntry 0x7fd2c5c090d0 not ready due to 0x7fd2c5c0ee70
0x00007fd2c601510c  b9000be8		str w8, [sp, #8]
[33m[WRN] [0m[R31] RobCusor 0x7fd2c5c10bb0 read-depends on 0x7fd2c5c0ee70
[33m[WRN] [0m[R8] RobCusor 0x7fd2c5c10bb0 read-depends on 0x7fd2c5c0f080
[33m[WRN] [0mRobEntry 0x7fd2c5c10bb0 not ready due to 0x7fd2c5c0ee70
[33m[WRN] [0m----------------------Experimental Execute--------------
[33m[WRN] [0mRobEntry 0x7fd2c5c07db0 ready with 0x7fd2c5c09fb0
[33m[WRN] [0mRobEntry 0x7fd2c5c07f90 not ready due to 0x7fd2c5c0aaf0
[33m[WRN] [0mRobEntry 0x7fd2c5c07ff0 not ready due to 0x7fd2c5c0add8
[33m[WRN] [0mRobEntry 0x7fd2c5c08110 not ready due to 0x7fd2c5c09dc0
[33m[WRN] [0mRobEntry 0x7fd2c5c08170 not ready due to 0x7fd2c5c09dc0
[33m[WRN] [0mRobEntry 0x7fd2c5c08230 not ready due to 0x7fd2c5c0b3e0
[33m[WRN] [0mRobEntry 0x7fd2c5c08290 not ready due to 0x7fd2c5c0b3e0
[33m[WRN] [0mRobEntry 0x7fd2c5c08470 not ready due to 0x7fd2c5c0b870
[33m[WRN] [0mRobEntry 0x7fd2c5c08650 not ready due to 0x7fd2c5c0b0b0
[33m[WRN] [0mRobEntry 0x7fd2c5c086b0 not ready due to 0x7fd2c5c0c698
[33m[WRN] [0mRobEntry 0x7fd2c5c07950 not ready due to 0x7fd2c5c0bc10
[33m[WRN] [0mRobEntry 0x7fd2c5c079b0 not ready due to 0x7fd2c5c0bc10
[33m[WRN] [0mRobEntry 0x7fd2c5c08710 not ready due to 0x7fd2c5c0ccf0
[33m[WRN] [0mRobEntry 0x7fd2c5c08770 not ready due to 0x7fd2c5c0ccf0
[33m[WRN] [0mRobEntry 0x7fd2c5c08950 not ready due to 0x7fd2c5c0d150
[33m[WRN] [0mRobEntry 0x7fd2c5c08b30 not ready due to 0x7fd2c5c0dc60
[33m[WRN] [0mRobEntry 0x7fd2c5c08b90 not ready due to 0x7fd2c5c0df48
[33m[WRN] [0mRobEntry 0x7fd2c5c08cb0 not ready due to 0x7fd2c5c0d4f0
[33m[WRN] [0mRobEntry 0x7fd2c5c08d10 not ready due to 0x7fd2c5c0d4f0
[33m[WRN] [0mRobEntry 0x7fd2c5c08dd0 not ready due to 0x7fd2c5c0e570
[33m[WRN] [0mRobEntry 0x7fd2c5c08e30 not ready due to 0x7fd2c5c0e570
[33m[WRN] [0mRobEntry 0x7fd2c5c09010 not ready due to 0x7fd2c5c0c110
0x00007fd2c6015160  52800008		mov w8, #0x0
[33m[WRN] [0m[0x7fd2c5c07c90] filled ticket 0x7fd2c5c0a110
#    x8: 0x0000000000000000
[34m[DBG] [0m   Logic[0]: newPc <- 0x7fd2c6015164
0x00007fd2c6015168  97ffffe6		bl #-0x68 (addr 0x7fd2c6015100)
[33m[WRN] [0m[0x7fd2c5c07d50] filled ticket 0x7fd2c5c0a420
[33m[WRN] [0m[0x7fd2c5c07d50] did not fill ticket 0x7fd2c5c0a438
#    lr: 0x00007fd2c601516c
#    pc: 0x7fd2c6015100 (by 0x7fd2c5c07d50)
[33m[WRN] [0m[0x7fd2c5c07d50] did not fill ticket 0x7fd2c5c0a420
[33m[WRN] [0m[0x7fd2c5c07d50] filled ticket 0x7fd2c5c0a438
[34m[DBG] [0m   Logic[1]: newPc <- 0x7fd2c6015100
[34m[DBG] [0m   Scribe: retired 3 ROB entries (now: 0x7fd2c5c07c90:Done)
[34m[DBG] [0m======================================== Update[5/4] 
[34m[DBG] [0m   Fetcher: buffer.size = 255
[34m[DBG] [0m   Logic: Branch prediction 0x7fd2c6015168 was correct: 1
[34m[DBG] [0m   Logic: Correct branch: 0x7fd2c5c07d50 succ 0x7fd2c5c07db0
[34m[DBG] [0mAdding new BP record for 0x7fd2c6015168 -> 0x7fd2c6015100
[34m[DBG] [0m   Logic: 0x7fd2c5c07d50 affirmed speculative RobEntry 0x7fd2c5c07db0
[34m[DBG] [0m   Logic: 0x7fd2c5c07d50 affirmed speculative RobEntry 0x7fd2c5c07e10
[34m[DBG] [0m   Logic: 0x7fd2c5c07d50 affirmed speculative RobEntry 0x7fd2c5c07e70
[34m[DBG] [0m   Logic: 0x7fd2c5c07d50 affirmed speculative RobEntry 0x7fd2c5c07ed0
[34m[DBG] [0m   Logic: 0x7fd2c5c07d50 affirmed speculative RobEntry 0x7fd2c5c07f30
[34m[DBG] [0m   Logic: 0x7fd2c5c07d50 affirmed speculative RobEntry 0x7fd2c5c07f90
[34m[DBG] [0m   Logic: 0x7fd2c5c07d50 affirmed speculative RobEntry 0x7fd2c5c07ff0
[34m[DBG] [0m   Logic: instr executed ? yes: 1
[34m[DBG] [0m   Logic: rStation size <- 63, rsVacancy <- 1
[34m[DBG] [0m======================================== Sync [5/4] 
[34m[DBG] [0m======================================== Cycle End

[34m[DBG] [0m======================================== Compute[6/4]
[34m[DBG] [0mPC Offsest: 0x168
[34m[DBG] [0m   Fetcher: at: 0x7fd2c6015168 (buffer 0:255)
[34m[DBG] [0m   Fetcher: front instr = 0x7fd2c6015168, fetched 64, tmpBuffer: 64
[34m[DBG] [0m   Decoder: front instr = 0x7fd2c601515c
[34m[DBG] [0m   Decoder: Logic reservation station is full
0x00007fd2c6015164  b81fc3a8		stur w8, [x29, #-4]
[33m[WRN] [0mRobEntry 0x7fd2c5c07cf0 ready with 0x7fd2c5c09e70
[33m[WRN] [0mRobEntry 0x7fd2c5c07cf0 ready with 0x7fd2c5c0a110
0x00007fd2c6015100  d10043ff		sub sp, sp, #0x10 (16)
0x00007fd2c6015104  320003e8		orr w8, wzr, #0x1
0x00007fd2c6015108  b9000fe0		str w0, [sp, #12]
[33m[WRN] [0mRobEntry 0x7fd2c5c07e70 not ready due to 0x7fd2c5c09dc0
0x00007fd2c601510c  b9000be8		str w8, [sp, #8]
[33m[WRN] [0mRobEntry 0x7fd2c5c07ed0 not ready due to 0x7fd2c5c09dc0
0x00007fd2c6015110  b9400fe8		ldr w8, [sp, #12]
[33m[WRN] [0mRobEntry 0x7fd2c5c07f30 not ready due to 0x7fd2c5c09dc0
0x00007fd2c6015114  7100051f		cmp w8, #0x1 (1)
0x00007fd2c6015118  54000041		b.ne #+0x8 (addr 0x7fd2c6015120)
0x00007fd2c601511c  1400000a		b #+0x28 (addr 0x7fd2c6015144)
0x00007fd2c6015144  b9400be0		ldr w0, [sp, #8]
[33m[WRN] [0mRobEntry 0x7fd2c5c080b0 not ready due to 0x7fd2c5c09dc0
0x00007fd2c6015148  910043ff		add sp, sp, #0x10 (16)
0x00007fd2c601514c  d65f03c0		ret
0x00007fd2c6015150  a9bf7bfd		stp x29, x30, [sp, #-16]!
[33m[WRN] [0mRobEntry 0x7fd2c5c081d0 not ready due to 0x7fd2c5c0b1e0
[33m[WRN] [0mRobEntry 0x7fd2c5c081d0 not ready due to 0x7fd2c5c0b1e0
0x00007fd2c6015154  910003fd		mov x29, sp
0x00007fd2c6015158  d10043ff		sub sp, sp, #0x10 (16)
0x00007fd2c601515c  52800140		mov w0, #0xa
0x00007fd2c6015160  52800008		mov w8, #0x0
0x00007fd2c6015164  b81fc3a8		stur w8, [x29, #-4]
[33m[WRN] [0mRobEntry 0x7fd2c5c083b0 not ready due to 0x7fd2c5c0b730
0x00007fd2c6015168  97ffffe6		bl #-0x68 (addr 0x7fd2c6015100)
0x00007fd2c6015100  d10043ff		sub sp, sp, #0x10 (16)
0x00007fd2c6015104  320003e8		orr w8, wzr, #0x1
0x00007fd2c6015108  b9000fe0		str w0, [sp, #12]
[33m[WRN] [0mRobEntry 0x7fd2c5c08530 not ready due to 0x7fd2c5c0bc10
0x00007fd2c601510c  b9000be8		str w8, [sp, #8]
[33m[WRN] [0mRobEntry 0x7fd2c5c08590 not ready due to 0x7fd2c5c0bc10
0x00007fd2c6015110  b9400fe8		ldr w8, [sp, #12]
[33m[WRN] [0mRobEntry 0x7fd2c5c085f0 not ready due to 0x7fd2c5c0bc10
0x00007fd2c6015114  7100051f		cmp w8, #0x1 (1)
0x00007fd2c6015118  54000041		b.ne #+0x8 (addr 0x7fd2c6015120)
0x00007fd2c601511c  1400000a		b #+0x28 (addr 0x7fd2c6015144)
0x00007fd2c6015144  b9400be0		ldr w0, [sp, #8]
[33m[WRN] [0mRobEntry 0x7fd2c5c078f0 not ready due to 0x7fd2c5c0bc10
0x00007fd2c6015148  910043ff		add sp, sp, #0x10 (16)
0x00007fd2c601514c  d65f03c0		ret
0x00007fd2c6015150  a9bf7bfd		stp x29, x30, [sp, #-16]!
[33m[WRN] [0mRobEntry 0x7fd2c5c07a10 not ready due to 0x7fd2c5c0caf0
[33m[WRN] [0mRobEntry 0x7fd2c5c07a10 not ready due to 0x7fd2c5c0caf0
0x00007fd2c6015154  910003fd		mov x29, sp
0x00007fd2c6015158  d10043ff		sub sp, sp, #0x10 (16)
0x00007fd2c601515c  52800140		mov w0, #0xa
0x00007fd2c6015160  52800008		mov w8, #0x0
0x00007fd2c6015164  b81fc3a8		stur w8, [x29, #-4]
[33m[WRN] [0mRobEntry 0x7fd2c5c08890 not ready due to 0x7fd2c5c0d020
0x00007fd2c6015168  97ffffe6		bl #-0x68 (addr 0x7fd2c6015100)
0x00007fd2c6015100  d10043ff		sub sp, sp, #0x10 (16)
0x00007fd2c6015104  320003e8		orr w8, wzr, #0x1
0x00007fd2c6015108  b9000fe0		str w0, [sp, #12]
[33m[WRN] [0mRobEntry 0x7fd2c5c08a10 not ready due to 0x7fd2c5c0d4f0
0x00007fd2c601510c  b9000be8		str w8, [sp, #8]
[33m[WRN] [0mRobEntry 0x7fd2c5c08a70 not ready due to 0x7fd2c5c0d4f0
0x00007fd2c6015110  b9400fe8		ldr w8, [sp, #12]
[33m[WRN] [0mRobEntry 0x7fd2c5c08ad0 not ready due to 0x7fd2c5c0d4f0
0x00007fd2c6015114  7100051f		cmp w8, #0x1 (1)
0x00007fd2c6015118  54000041		b.ne #+0x8 (addr 0x7fd2c6015120)
0x00007fd2c601511c  1400000a		b #+0x28 (addr 0x7fd2c6015144)
0x00007fd2c6015144  b9400be0		ldr w0, [sp, #8]
[33m[WRN] [0mRobEntry 0x7fd2c5c08c50 not ready due to 0x7fd2c5c0d4f0
0x00007fd2c6015148  910043ff		add sp, sp, #0x10 (16)
0x00007fd2c601514c  d65f03c0		ret
0x00007fd2c6015150  a9bf7bfd		stp x29, x30, [sp, #-16]!
[33m[WRN] [0mRobEntry 0x7fd2c5c08d70 not ready due to 0x7fd2c5c0e370
[33m[WRN] [0mRobEntry 0x7fd2c5c08d70 not ready due to 0x7fd2c5c0e370
0x00007fd2c6015154  910003fd		mov x29, sp
0x00007fd2c6015158  d10043ff		sub sp, sp, #0x10 (16)
0x00007fd2c601515c  52800140		mov w0, #0xa
0x00007fd2c6015160  52800008		mov w8, #0x0
0x00007fd2c6015164  b81fc3a8		stur w8, [x29, #-4]
[33m[WRN] [0mRobEntry 0x7fd2c5c08f50 not ready due to 0x7fd2c5c0c0e0
0x00007fd2c6015168  97ffffe6		bl #-0x68 (addr 0x7fd2c6015100)
0x00007fd2c6015100  d10043ff		sub sp, sp, #0x10 (16)
0x00007fd2c6015104  320003e8		orr w8, wzr, #0x1
0x00007fd2c6015108  b9000fe0		str w0, [sp, #12]
[33m[WRN] [0mRobEntry 0x7fd2c5c090d0 not ready due to 0x7fd2c5c0ee70
0x00007fd2c601510c  b9000be8		str w8, [sp, #8]
[33m[WRN] [0mRobEntry 0x7fd2c5c10bb0 not ready due to 0x7fd2c5c0ee70
0x00007fd2c6015110  b9400fe8		ldr w8, [sp, #12]
[33m[WRN] [0m[R31] RobCusor 0x7fd2c5c12e90 read-depends on 0x7fd2c5c0ee70
[33m[WRN] [0mRobEntry 0x7fd2c5c12e90 not ready due to 0x7fd2c5c0ee70
[33m[WRN] [0m[R8] RobCusor 0x7fd2c5c12e90 write can go ahead with ticket 0x7fd2c5c0f4f0
0x00007fd2c6015114  7100051f		cmp w8, #0x1 (1)
[33m[WRN] [0m[R8] RobCusor 0x7fd2c5c12ef0 read-depends on 0x7fd2c5c0f4f0
[33m[WRN] [0m[NZCV] RobCusor 0x7fd2c5c12ef0 write can go ahead with ticket 0x7fd2c5c16c40
[33m[WRN] [0m[NZCV] RobCusor 0x7fd2c5c12ef0 write can go ahead with ticket 0x7fd2c5c16d08
[33m[WRN] [0m[NZCV] RobCusor 0x7fd2c5c12ef0 write can go ahead with ticket 0x7fd2c5c16de0
[33m[WRN] [0m[NZCV] RobCusor 0x7fd2c5c12ef0 write can go ahead with ticket 0x7fd2c5c16df8
0x00007fd2c6015118  54000041		b.ne #+0x8 (addr 0x7fd2c6015120)
[33m[WRN] [0m[NZCV] RobCusor 0x7fd2c5c12f50 read-depends on 0x7fd2c5c16df8
[33m[WRN] [0m----------------------Experimental Execute--------------
[33m[WRN] [0mRobEntry 0x7fd2c5c07cf0 ready with 0x7fd2c5c09e70
[33m[WRN] [0mRobEntry 0x7fd2c5c07cf0 ready with 0x7fd2c5c0a110
[33m[WRN] [0mRobEntry 0x7fd2c5c07db0 ready with 0x7fd2c5c09fb0
[33m[WRN] [0mRobEntry 0x7fd2c5c07f90 not ready due to 0x7fd2c5c0aaf0
[33m[WRN] [0mRobEntry 0x7fd2c5c07ff0 not ready due to 0x7fd2c5c0add8
[33m[WRN] [0mRobEntry 0x7fd2c5c08110 not ready due to 0x7fd2c5c09dc0
[33m[WRN] [0mRobEntry 0x7fd2c5c08170 not ready due to 0x7fd2c5c09dc0
[33m[WRN] [0mRobEntry 0x7fd2c5c08230 not ready due to 0x7fd2c5c0b3e0
[33m[WRN] [0mRobEntry 0x7fd2c5c08290 not ready due to 0x7fd2c5c0b3e0
[33m[WRN] [0mRobEntry 0x7fd2c5c08470 not ready due to 0x7fd2c5c0b870
[33m[WRN] [0mRobEntry 0x7fd2c5c08650 not ready due to 0x7fd2c5c0b0b0
[33m[WRN] [0mRobEntry 0x7fd2c5c086b0 not ready due to 0x7fd2c5c0c698
[33m[WRN] [0mRobEntry 0x7fd2c5c07950 not ready due to 0x7fd2c5c0bc10
[33m[WRN] [0mRobEntry 0x7fd2c5c079b0 not ready due to 0x7fd2c5c0bc10
[33m[WRN] [0mRobEntry 0x7fd2c5c08710 not ready due to 0x7fd2c5c0ccf0
[33m[WRN] [0mRobEntry 0x7fd2c5c08770 not ready due to 0x7fd2c5c0ccf0
[33m[WRN] [0mRobEntry 0x7fd2c5c08950 not ready due to 0x7fd2c5c0d150
[33m[WRN] [0mRobEntry 0x7fd2c5c08b30 not ready due to 0x7fd2c5c0dc60
[33m[WRN] [0mRobEntry 0x7fd2c5c08b90 not ready due to 0x7fd2c5c0df48
[33m[WRN] [0mRobEntry 0x7fd2c5c08cb0 not ready due to 0x7fd2c5c0d4f0
[33m[WRN] [0mRobEntry 0x7fd2c5c08d10 not ready due to 0x7fd2c5c0d4f0
[33m[WRN] [0mRobEntry 0x7fd2c5c08dd0 not ready due to 0x7fd2c5c0e570
[33m[WRN] [0mRobEntry 0x7fd2c5c08e30 not ready due to 0x7fd2c5c0e570
[33m[WRN] [0mRobEntry 0x7fd2c5c09010 not ready due to 0x7fd2c5c0c110
[33m[WRN] [0mRobEntry 0x7fd2c5c12ef0 not ready due to 0x7fd2c5c0f4f0
[33m[WRN] [0mRobEntry 0x7fd2c5c12f50 not ready due to 0x7fd2c5c16df8
0x00007fd2c6015164  b81fc3a8		stur w8, [x29, #-4]
[33m[WRN] [0mReal write: 0x7fd2c601d2ec, 0x0
#    w8:         0x00000000 -> 0x00007fd2c601d2ec
[34m[DBG] [0m   Logic[0]: newPc <- 0x7fd2c6015168
0x00007fd2c6015100  d10043ff		sub sp, sp, #0x10 (16)
[33m[WRN] [0m[0x7fd2c5c07db0] filled ticket 0x7fd2c5c09dc0
#    sp: 0x00007fd2c601d2d0
[34m[DBG] [0m   Logic[1]: newPc <- 0x7fd2c6015104
[34m[DBG] [0m   Scribe: retired 1 ROB entries (now: 0x7fd2c5c07cf0:Done)
[34m[DBG] [0m======================================== Update[6/5] 
[34m[DBG] [0m   Fetcher: buffer.size = 316
[34m[DBG] [0m   Logic: instr executed ? yes: 3
[34m[DBG] [0m   Logic: rStation size <- 61, rsVacancy <- 3
[34m[DBG] [0m======================================== Sync [6/5] 
[34m[DBG] [0m======================================== Cycle End

[34m[DBG] [0m======================================== Compute[7/5]
[34m[DBG] [0mPC Offsest: 0x148
[34m[DBG] [0m   Fetcher: at: 0x7fd2c6015148 (buffer 0:316)
[34m[DBG] [0m   Fetcher: front instr = 0x7fd2c6015148, fetched 64, tmpBuffer: 64
[34m[DBG] [0m   Decoder: front instr = 0x7fd2c6015168
[34m[DBG] [0m   Decoder: Logic reservation station is full
0x00007fd2c6015104  320003e8		orr w8, wzr, #0x1
0x00007fd2c6015108  b9000fe0		str w0, [sp, #12]
[33m[WRN] [0mRobEntry 0x7fd2c5c07e70 ready with 0x7fd2c5c09dc0
[33m[WRN] [0mRobEntry 0x7fd2c5c07e70 ready with 0x7fd2c5c0a060
0x00007fd2c601510c  b9000be8		str w8, [sp, #8]
[33m[WRN] [0mRobEntry 0x7fd2c5c07ed0 ready with 0x7fd2c5c09dc0
[33m[WRN] [0mRobEntry 0x7fd2c5c07ed0 not ready due to 0x7fd2c5c0a580
0x00007fd2c6015110  b9400fe8		ldr w8, [sp, #12]
[33m[WRN] [0mRobEntry 0x7fd2c5c07f30 ready with 0x7fd2c5c09dc0
0x00007fd2c6015114  7100051f		cmp w8, #0x1 (1)
0x00007fd2c6015118  54000041		b.ne #+0x8 (addr 0x7fd2c6015120)
0x00007fd2c601511c  1400000a		b #+0x28 (addr 0x7fd2c6015144)
0x00007fd2c6015144  b9400be0		ldr w0, [sp, #8]
[33m[WRN] [0mRobEntry 0x7fd2c5c080b0 ready with 0x7fd2c5c09dc0
0x00007fd2c6015148  910043ff		add sp, sp, #0x10 (16)
0x00007fd2c601514c  d65f03c0		ret
0x00007fd2c6015150  a9bf7bfd		stp x29, x30, [sp, #-16]!
[33m[WRN] [0mRobEntry 0x7fd2c5c081d0 not ready due to 0x7fd2c5c0b1e0
[33m[WRN] [0mRobEntry 0x7fd2c5c081d0 not ready due to 0x7fd2c5c0b1e0
0x00007fd2c6015154  910003fd		mov x29, sp
0x00007fd2c6015158  d10043ff		sub sp, sp, #0x10 (16)
0x00007fd2c601515c  52800140		mov w0, #0xa
0x00007fd2c6015160  52800008		mov w8, #0x0
0x00007fd2c6015164  b81fc3a8		stur w8, [x29, #-4]
[33m[WRN] [0mRobEntry 0x7fd2c5c083b0 not ready due to 0x7fd2c5c0b730
0x00007fd2c6015168  97ffffe6		bl #-0x68 (addr 0x7fd2c6015100)
0x00007fd2c6015100  d10043ff		sub sp, sp, #0x10 (16)
0x00007fd2c6015104  320003e8		orr w8, wzr, #0x1
0x00007fd2c6015108  b9000fe0		str w0, [sp, #12]
[33m[WRN] [0mRobEntry 0x7fd2c5c08530 not ready due to 0x7fd2c5c0bc10
0x00007fd2c601510c  b9000be8		str w8, [sp, #8]
[33m[WRN] [0mRobEntry 0x7fd2c5c08590 not ready due to 0x7fd2c5c0bc10
0x00007fd2c6015110  b9400fe8		ldr w8, [sp, #12]
[33m[WRN] [0mRobEntry 0x7fd2c5c085f0 not ready due to 0x7fd2c5c0bc10
0x00007fd2c6015114  7100051f		cmp w8, #0x1 (1)
0x00007fd2c6015118  54000041		b.ne #+0x8 (addr 0x7fd2c6015120)
0x00007fd2c601511c  1400000a		b #+0x28 (addr 0x7fd2c6015144)
0x00007fd2c6015144  b9400be0		ldr w0, [sp, #8]
[33m[WRN] [0mRobEntry 0x7fd2c5c078f0 not ready due to 0x7fd2c5c0bc10
0x00007fd2c6015148  910043ff		add sp, sp, #0x10 (16)
0x00007fd2c601514c  d65f03c0		ret
0x00007fd2c6015150  a9bf7bfd		stp x29, x30, [sp, #-16]!
[33m[WRN] [0mRobEntry 0x7fd2c5c07a10 not ready due to 0x7fd2c5c0caf0
[33m[WRN] [0mRobEntry 0x7fd2c5c07a10 not ready due to 0x7fd2c5c0caf0
0x00007fd2c6015154  910003fd		mov x29, sp
0x00007fd2c6015158  d10043ff		sub sp, sp, #0x10 (16)
0x00007fd2c601515c  52800140		mov w0, #0xa
0x00007fd2c6015160  52800008		mov w8, #0x0
0x00007fd2c6015164  b81fc3a8		stur w8, [x29, #-4]
[33m[WRN] [0mRobEntry 0x7fd2c5c08890 not ready due to 0x7fd2c5c0d020
0x00007fd2c6015168  97ffffe6		bl #-0x68 (addr 0x7fd2c6015100)
0x00007fd2c6015100  d10043ff		sub sp, sp, #0x10 (16)
0x00007fd2c6015104  320003e8		orr w8, wzr, #0x1
0x00007fd2c6015108  b9000fe0		str w0, [sp, #12]
[33m[WRN] [0mRobEntry 0x7fd2c5c08a10 not ready due to 0x7fd2c5c0d4f0
0x00007fd2c601510c  b9000be8		str w8, [sp, #8]
[33m[WRN] [0mRobEntry 0x7fd2c5c08a70 not ready due to 0x7fd2c5c0d4f0
0x00007fd2c6015110  b9400fe8		ldr w8, [sp, #12]
[33m[WRN] [0mRobEntry 0x7fd2c5c08ad0 not ready due to 0x7fd2c5c0d4f0
0x00007fd2c6015114  7100051f		cmp w8, #0x1 (1)
0x00007fd2c6015118  54000041		b.ne #+0x8 (addr 0x7fd2c6015120)
0x00007fd2c601511c  1400000a		b #+0x28 (addr 0x7fd2c6015144)
0x00007fd2c6015144  b9400be0		ldr w0, [sp, #8]
[33m[WRN] [0mRobEntry 0x7fd2c5c08c50 not ready due to 0x7fd2c5c0d4f0
0x00007fd2c6015148  910043ff		add sp, sp, #0x10 (16)
0x00007fd2c601514c  d65f03c0		ret
0x00007fd2c6015150  a9bf7bfd		stp x29, x30, [sp, #-16]!
[33m[WRN] [0mRobEntry 0x7fd2c5c08d70 not ready due to 0x7fd2c5c0e370
[33m[WRN] [0mRobEntry 0x7fd2c5c08d70 not ready due to 0x7fd2c5c0e370
0x00007fd2c6015154  910003fd		mov x29, sp
0x00007fd2c6015158  d10043ff		sub sp, sp, #0x10 (16)
0x00007fd2c601515c  52800140		mov w0, #0xa
0x00007fd2c6015160  52800008		mov w8, #0x0
0x00007fd2c6015164  b81fc3a8		stur w8, [x29, #-4]
[33m[WRN] [0mRobEntry 0x7fd2c5c08f50 not ready due to 0x7fd2c5c0c0e0
0x00007fd2c6015168  97ffffe6		bl #-0x68 (addr 0x7fd2c6015100)
0x00007fd2c6015100  d10043ff		sub sp, sp, #0x10 (16)
0x00007fd2c6015104  320003e8		orr w8, wzr, #0x1
0x00007fd2c6015108  b9000fe0		str w0, [sp, #12]
[33m[WRN] [0mRobEntry 0x7fd2c5c090d0 not ready due to 0x7fd2c5c0ee70
0x00007fd2c601510c  b9000be8		str w8, [sp, #8]
[33m[WRN] [0mRobEntry 0x7fd2c5c10bb0 not ready due to 0x7fd2c5c0ee70
0x00007fd2c6015110  b9400fe8		ldr w8, [sp, #12]
[33m[WRN] [0mRobEntry 0x7fd2c5c12e90 not ready due to 0x7fd2c5c0ee70
0x00007fd2c6015114  7100051f		cmp w8, #0x1 (1)
0x00007fd2c6015118  54000041		b.ne #+0x8 (addr 0x7fd2c6015120)
0x00007fd2c601511c  1400000a		b #+0x28 (addr 0x7fd2c6015144)
[33m[WRN] [0m----------------------Experimental Execute--------------
[33m[WRN] [0mRobEntry 0x7fd2c5c07e70 ready with 0x7fd2c5c09dc0
[33m[WRN] [0mRobEntry 0x7fd2c5c07e70 ready with 0x7fd2c5c0a060
[33m[WRN] [0mRobEntry 0x7fd2c5c07f90 not ready due to 0x7fd2c5c0aaf0
[33m[WRN] [0mRobEntry 0x7fd2c5c07ff0 not ready due to 0x7fd2c5c0add8
[33m[WRN] [0mRobEntry 0x7fd2c5c08110 ready with 0x7fd2c5c09dc0
[33m[WRN] [0mRobEntry 0x7fd2c5c08170 ready with 0x7fd2c5c09dc0
[33m[WRN] [0mRobEntry 0x7fd2c5c08230 not ready due to 0x7fd2c5c0b3e0
[33m[WRN] [0mRobEntry 0x7fd2c5c08290 not ready due to 0x7fd2c5c0b3e0
[33m[WRN] [0mRobEntry 0x7fd2c5c08470 not ready due to 0x7fd2c5c0b870
[33m[WRN] [0mRobEntry 0x7fd2c5c08650 not ready due to 0x7fd2c5c0b0b0
[33m[WRN] [0mRobEntry 0x7fd2c5c086b0 not ready due to 0x7fd2c5c0c698
[33m[WRN] [0mRobEntry 0x7fd2c5c07950 not ready due to 0x7fd2c5c0bc10
[33m[WRN] [0mRobEntry 0x7fd2c5c079b0 not ready due to 0x7fd2c5c0bc10
[33m[WRN] [0mRobEntry 0x7fd2c5c08710 not ready due to 0x7fd2c5c0ccf0
[33m[WRN] [0mRobEntry 0x7fd2c5c08770 not ready due to 0x7fd2c5c0ccf0
[33m[WRN] [0mRobEntry 0x7fd2c5c08950 not ready due to 0x7fd2c5c0d150
[33m[WRN] [0mRobEntry 0x7fd2c5c08b30 not ready due to 0x7fd2c5c0dc60
[33m[WRN] [0mRobEntry 0x7fd2c5c08b90 not ready due to 0x7fd2c5c0df48
[33m[WRN] [0mRobEntry 0x7fd2c5c08cb0 not ready due to 0x7fd2c5c0d4f0
[33m[WRN] [0mRobEntry 0x7fd2c5c08d10 not ready due to 0x7fd2c5c0d4f0
[33m[WRN] [0mRobEntry 0x7fd2c5c08dd0 not ready due to 0x7fd2c5c0e570
[33m[WRN] [0mRobEntry 0x7fd2c5c08e30 not ready due to 0x7fd2c5c0e570
[33m[WRN] [0mRobEntry 0x7fd2c5c09010 not ready due to 0x7fd2c5c0c110
[33m[WRN] [0mRobEntry 0x7fd2c5c12ef0 not ready due to 0x7fd2c5c0f4f0
[33m[WRN] [0mRobEntry 0x7fd2c5c12f50 not ready due to 0x7fd2c5c16df8
0x00007fd2c6015104  320003e8		orr w8, wzr, #0x1
[33m[WRN] [0m[0x7fd2c5c07e10] filled ticket 0x7fd2c5c0a580
#    x8: 0x0000000000000001
[34m[DBG] [0m   Logic[0]: newPc <- 0x7fd2c6015108
0x00007fd2c6015108  b9000fe0		str w0, [sp, #12]
[33m[WRN] [0mReal write: 0x7fd2c601d2dc, 0xa
#    w0:         0x0000000a -> 0x00007fd2c601d2dc
[34m[DBG] [0m   Logic[1]: newPc <- 0x7fd2c601510c
[34m[DBG] [0m   Scribe: retired 3 ROB entries (now: 0x7fd2c5c07e10:Done)
[34m[DBG] [0m======================================== Update[7/8] 
[34m[DBG] [0m   Fetcher: buffer.size = 379
[34m[DBG] [0m   Logic: instr executed ? yes: 2
[34m[DBG] [0m   Logic: rStation size <- 62, rsVacancy <- 2
[34m[DBG] [0m======================================== Sync [7/8] 
[34m[DBG] [0m======================================== Cycle End

[34m[DBG] [0m======================================== Compute[8/8]
[34m[DBG] [0mPC Offsest: 0x104
[34m[DBG] [0m   Fetcher: at: 0x7fd2c6015104 (buffer 0:379)
[34m[DBG] [0m   Fetcher: front instr = 0x7fd2c6015104, fetched 64, tmpBuffer: 64
[34m[DBG] [0m   Decoder: front instr = 0x7fd2c6015100
[34m[DBG] [0m   Decoder: Logic reservation station is full
0x00007fd2c601510c  b9000be8		str w8, [sp, #8]
[33m[WRN] [0mRobEntry 0x7fd2c5c07ed0 ready with 0x7fd2c5c09dc0
[33m[WRN] [0mRobEntry 0x7fd2c5c07ed0 ready with 0x7fd2c5c0a580
0x00007fd2c6015110  b9400fe8		ldr w8, [sp, #12]
[33m[WRN] [0mRobEntry 0x7fd2c5c07f30 ready with 0x7fd2c5c09dc0
0x00007fd2c6015114  7100051f		cmp w8, #0x1 (1)
0x00007fd2c6015118  54000041		b.ne #+0x8 (addr 0x7fd2c6015120)
0x00007fd2c601511c  1400000a		b #+0x28 (addr 0x7fd2c6015144)
0x00007fd2c6015144  b9400be0		ldr w0, [sp, #8]
[33m[WRN] [0mRobEntry 0x7fd2c5c080b0 ready with 0x7fd2c5c09dc0
0x00007fd2c6015148  910043ff		add sp, sp, #0x10 (16)
0x00007fd2c601514c  d65f03c0		ret
0x00007fd2c6015150  a9bf7bfd		stp x29, x30, [sp, #-16]!
[33m[WRN] [0mRobEntry 0x7fd2c5c081d0 not ready due to 0x7fd2c5c0b1e0
[33m[WRN] [0mRobEntry 0x7fd2c5c081d0 not ready due to 0x7fd2c5c0b1e0
0x00007fd2c6015154  910003fd		mov x29, sp
0x00007fd2c6015158  d10043ff		sub sp, sp, #0x10 (16)
0x00007fd2c601515c  52800140		mov w0, #0xa
0x00007fd2c6015160  52800008		mov w8, #0x0
0x00007fd2c6015164  b81fc3a8		stur w8, [x29, #-4]
[33m[WRN] [0mRobEntry 0x7fd2c5c083b0 not ready due to 0x7fd2c5c0b730
0x00007fd2c6015168  97ffffe6		bl #-0x68 (addr 0x7fd2c6015100)
0x00007fd2c6015100  d10043ff		sub sp, sp, #0x10 (16)
0x00007fd2c6015104  320003e8		orr w8, wzr, #0x1
0x00007fd2c6015108  b9000fe0		str w0, [sp, #12]
[33m[WRN] [0mRobEntry 0x7fd2c5c08530 not ready due to 0x7fd2c5c0bc10
0x00007fd2c601510c  b9000be8		str w8, [sp, #8]
[33m[WRN] [0mRobEntry 0x7fd2c5c08590 not ready due to 0x7fd2c5c0bc10
0x00007fd2c6015110  b9400fe8		ldr w8, [sp, #12]
[33m[WRN] [0mRobEntry 0x7fd2c5c085f0 not ready due to 0x7fd2c5c0bc10
0x00007fd2c6015114  7100051f		cmp w8, #0x1 (1)
0x00007fd2c6015118  54000041		b.ne #+0x8 (addr 0x7fd2c6015120)
0x00007fd2c601511c  1400000a		b #+0x28 (addr 0x7fd2c6015144)
0x00007fd2c6015144  b9400be0		ldr w0, [sp, #8]
[33m[WRN] [0mRobEntry 0x7fd2c5c078f0 not ready due to 0x7fd2c5c0bc10
0x00007fd2c6015148  910043ff		add sp, sp, #0x10 (16)
0x00007fd2c601514c  d65f03c0		ret
0x00007fd2c6015150  a9bf7bfd		stp x29, x30, [sp, #-16]!
[33m[WRN] [0mRobEntry 0x7fd2c5c07a10 not ready due to 0x7fd2c5c0caf0
[33m[WRN] [0mRobEntry 0x7fd2c5c07a10 not ready due to 0x7fd2c5c0caf0
0x00007fd2c6015154  910003fd		mov x29, sp
0x00007fd2c6015158  d10043ff		sub sp, sp, #0x10 (16)
0x00007fd2c601515c  52800140		mov w0, #0xa
0x00007fd2c6015160  52800008		mov w8, #0x0
0x00007fd2c6015164  b81fc3a8		stur w8, [x29, #-4]
[33m[WRN] [0mRobEntry 0x7fd2c5c08890 not ready due to 0x7fd2c5c0d020
0x00007fd2c6015168  97ffffe6		bl #-0x68 (addr 0x7fd2c6015100)
0x00007fd2c6015100  d10043ff		sub sp, sp, #0x10 (16)
0x00007fd2c6015104  320003e8		orr w8, wzr, #0x1
0x00007fd2c6015108  b9000fe0		str w0, [sp, #12]
[33m[WRN] [0mRobEntry 0x7fd2c5c08a10 not ready due to 0x7fd2c5c0d4f0
0x00007fd2c601510c  b9000be8		str w8, [sp, #8]
[33m[WRN] [0mRobEntry 0x7fd2c5c08a70 not ready due to 0x7fd2c5c0d4f0
0x00007fd2c6015110  b9400fe8		ldr w8, [sp, #12]
[33m[WRN] [0mRobEntry 0x7fd2c5c08ad0 not ready due to 0x7fd2c5c0d4f0
0x00007fd2c6015114  7100051f		cmp w8, #0x1 (1)
0x00007fd2c6015118  54000041		b.ne #+0x8 (addr 0x7fd2c6015120)
0x00007fd2c601511c  1400000a		b #+0x28 (addr 0x7fd2c6015144)
0x00007fd2c6015144  b9400be0		ldr w0, [sp, #8]
[33m[WRN] [0mRobEntry 0x7fd2c5c08c50 not ready due to 0x7fd2c5c0d4f0
0x00007fd2c6015148  910043ff		add sp, sp, #0x10 (16)
0x00007fd2c601514c  d65f03c0		ret
0x00007fd2c6015150  a9bf7bfd		stp x29, x30, [sp, #-16]!
[33m[WRN] [0mRobEntry 0x7fd2c5c08d70 not ready due to 0x7fd2c5c0e370
[33m[WRN] [0mRobEntry 0x7fd2c5c08d70 not ready due to 0x7fd2c5c0e370
0x00007fd2c6015154  910003fd		mov x29, sp
0x00007fd2c6015158  d10043ff		sub sp, sp, #0x10 (16)
0x00007fd2c601515c  52800140		mov w0, #0xa
0x00007fd2c6015160  52800008		mov w8, #0x0
0x00007fd2c6015164  b81fc3a8		stur w8, [x29, #-4]
[33m[WRN] [0mRobEntry 0x7fd2c5c08f50 not ready due to 0x7fd2c5c0c0e0
0x00007fd2c6015168  97ffffe6		bl #-0x68 (addr 0x7fd2c6015100)
0x00007fd2c6015100  d10043ff		sub sp, sp, #0x10 (16)
0x00007fd2c6015104  320003e8		orr w8, wzr, #0x1
0x00007fd2c6015108  b9000fe0		str w0, [sp, #12]
[33m[WRN] [0mRobEntry 0x7fd2c5c090d0 not ready due to 0x7fd2c5c0ee70
0x00007fd2c601510c  b9000be8		str w8, [sp, #8]
[33m[WRN] [0mRobEntry 0x7fd2c5c10bb0 not ready due to 0x7fd2c5c0ee70
0x00007fd2c6015110  b9400fe8		ldr w8, [sp, #12]
[33m[WRN] [0mRobEntry 0x7fd2c5c12e90 not ready due to 0x7fd2c5c0ee70
0x00007fd2c6015114  7100051f		cmp w8, #0x1 (1)
0x00007fd2c6015118  54000041		b.ne #+0x8 (addr 0x7fd2c6015120)
0x00007fd2c601511c  1400000a		b #+0x28 (addr 0x7fd2c6015144)
0x00007fd2c6015144  b9400be0		ldr w0, [sp, #8]
[33m[WRN] [0m[R31] RobCusor 0x7fd2c5c18830 read-depends on 0x7fd2c5c0ee70
[33m[WRN] [0mRobEntry 0x7fd2c5c18830 not ready due to 0x7fd2c5c0ee70
[33m[WRN] [0m[R0] RobCusor 0x7fd2c5c18830 write can go ahead with ticket 0x7fd2c5c174e0
0x00007fd2c6015148  910043ff		add sp, sp, #0x10 (16)
[33m[WRN] [0m[R31] RobCusor 0x7fd2c5c18890 read-depends on 0x7fd2c5c0ee70
[33m[WRN] [0m[R31] RobCusor 0x7fd2c5c18890 write can go ahead with ticket 0x7fd2c5c03000
0x00007fd2c601514c  d65f03c0		ret
[33m[WRN] [0m[R30] RobCusor 0x7fd2c5c188f0 read-depends on 0x7fd2c5c0ee70
[33m[WRN] [0m----------------------Experimental Execute--------------
[33m[WRN] [0mRobEntry 0x7fd2c5c07ed0 ready with 0x7fd2c5c09dc0
[33m[WRN] [0mRobEntry 0x7fd2c5c07ed0 ready with 0x7fd2c5c0a580
[33m[WRN] [0mRobEntry 0x7fd2c5c07f30 ready with 0x7fd2c5c09dc0
[33m[WRN] [0mRobEntry 0x7fd2c5c07f90 not ready due to 0x7fd2c5c0aaf0
[33m[WRN] [0mRobEntry 0x7fd2c5c07ff0 not ready due to 0x7fd2c5c0add8
[33m[WRN] [0mRobEntry 0x7fd2c5c08110 ready with 0x7fd2c5c09dc0
[33m[WRN] [0mRobEntry 0x7fd2c5c08170 ready with 0x7fd2c5c09dc0
[33m[WRN] [0mRobEntry 0x7fd2c5c08230 not ready due to 0x7fd2c5c0b3e0
[33m[WRN] [0mRobEntry 0x7fd2c5c08290 not ready due to 0x7fd2c5c0b3e0
[33m[WRN] [0mRobEntry 0x7fd2c5c08470 not ready due to 0x7fd2c5c0b870
[33m[WRN] [0mRobEntry 0x7fd2c5c08650 not ready due to 0x7fd2c5c0b0b0
[33m[WRN] [0mRobEntry 0x7fd2c5c086b0 not ready due to 0x7fd2c5c0c698
[33m[WRN] [0mRobEntry 0x7fd2c5c07950 not ready due to 0x7fd2c5c0bc10
[33m[WRN] [0mRobEntry 0x7fd2c5c079b0 not ready due to 0x7fd2c5c0bc10
[33m[WRN] [0mRobEntry 0x7fd2c5c08710 not ready due to 0x7fd2c5c0ccf0
[33m[WRN] [0mRobEntry 0x7fd2c5c08770 not ready due to 0x7fd2c5c0ccf0
[33m[WRN] [0mRobEntry 0x7fd2c5c08950 not ready due to 0x7fd2c5c0d150
[33m[WRN] [0mRobEntry 0x7fd2c5c08b30 not ready due to 0x7fd2c5c0dc60
[33m[WRN] [0mRobEntry 0x7fd2c5c08b90 not ready due to 0x7fd2c5c0df48
[33m[WRN] [0mRobEntry 0x7fd2c5c08cb0 not ready due to 0x7fd2c5c0d4f0
[33m[WRN] [0mRobEntry 0x7fd2c5c08d10 not ready due to 0x7fd2c5c0d4f0
[33m[WRN] [0mRobEntry 0x7fd2c5c08dd0 not ready due to 0x7fd2c5c0e570
[33m[WRN] [0mRobEntry 0x7fd2c5c08e30 not ready due to 0x7fd2c5c0e570
[33m[WRN] [0mRobEntry 0x7fd2c5c09010 not ready due to 0x7fd2c5c0c110
[33m[WRN] [0mRobEntry 0x7fd2c5c12ef0 not ready due to 0x7fd2c5c0f4f0
[33m[WRN] [0mRobEntry 0x7fd2c5c12f50 not ready due to 0x7fd2c5c16df8
[33m[WRN] [0mRobEntry 0x7fd2c5c18890 not ready due to 0x7fd2c5c0ee70
[33m[WRN] [0mRobEntry 0x7fd2c5c188f0 not ready due to 0x7fd2c5c0ee70
0x00007fd2c601510c  b9000be8		str w8, [sp, #8]
[33m[WRN] [0mReal write: 0x7fd2c601d2d8, 0x1
#    w8:         0x00000001 -> 0x00007fd2c601d2d8
[34m[DBG] [0m   Logic[0]: newPc <- 0x7fd2c6015110
0x00007fd2c6015110  b9400fe8		ldr w8, [sp, #12]
[34m[DBG] [0m[MEM] read addr=0x7fd2c601d2dc len=0x4 val=0xa
[33m[WRN] [0m[0x7fd2c5c07f30] filled ticket 0x7fd2c5c0aaf0
#    x8: 0x000000000000000a <- 0x00007fd2c601d2dc
[34m[DBG] [0m   Logic[1]: newPc <- 0x7fd2c6015114
[34m[DBG] [0m   Scribe: retired 2 ROB entries (now: 0x7fd2c5c07ed0:Done)
[34m[DBG] [0m======================================== Update[8/10] 
[34m[DBG] [0m   Fetcher: buffer.size = 440
[34m[DBG] [0m   Logic: instr executed ? yes: 2
[34m[DBG] [0m   Logic: rStation size <- 62, rsVacancy <- 2
[34m[DBG] [0m======================================== Sync [8/10] 
[34m[DBG] [0m======================================== Cycle End

[34m[DBG] [0m======================================== Compute[9/10]
[34m[DBG] [0mPC Offsest: 0x150
[34m[DBG] [0m   Fetcher: at: 0x7fd2c6015150 (buffer 0:440)
[34m[DBG] [0m   Fetcher: front instr = 0x7fd2c6015150, fetched 64, tmpBuffer: 64
[34m[DBG] [0m   Decoder: front instr = 0x7fd2c601510c
[34m[DBG] [0m   Decoder: Logic reservation station is full
0x00007fd2c6015114  7100051f		cmp w8, #0x1 (1)
0x00007fd2c6015118  54000041		b.ne #+0x8 (addr 0x7fd2c6015120)
0x00007fd2c601511c  1400000a		b #+0x28 (addr 0x7fd2c6015144)
0x00007fd2c6015144  b9400be0		ldr w0, [sp, #8]
[33m[WRN] [0mRobEntry 0x7fd2c5c080b0 ready with 0x7fd2c5c09dc0
0x00007fd2c6015148  910043ff		add sp, sp, #0x10 (16)
0x00007fd2c601514c  d65f03c0		ret
0x00007fd2c6015150  a9bf7bfd		stp x29, x30, [sp, #-16]!
[33m[WRN] [0mRobEntry 0x7fd2c5c081d0 not ready due to 0x7fd2c5c0b1e0
[33m[WRN] [0mRobEntry 0x7fd2c5c081d0 not ready due to 0x7fd2c5c0b1e0
0x00007fd2c6015154  910003fd		mov x29, sp
0x00007fd2c6015158  d10043ff		sub sp, sp, #0x10 (16)
0x00007fd2c601515c  52800140		mov w0, #0xa
0x00007fd2c6015160  52800008		mov w8, #0x0
0x00007fd2c6015164  b81fc3a8		stur w8, [x29, #-4]
[33m[WRN] [0mRobEntry 0x7fd2c5c083b0 not ready due to 0x7fd2c5c0b730
0x00007fd2c6015168  97ffffe6		bl #-0x68 (addr 0x7fd2c6015100)
0x00007fd2c6015100  d10043ff		sub sp, sp, #0x10 (16)
0x00007fd2c6015104  320003e8		orr w8, wzr, #0x1
0x00007fd2c6015108  b9000fe0		str w0, [sp, #12]
[33m[WRN] [0mRobEntry 0x7fd2c5c08530 not ready due to 0x7fd2c5c0bc10
0x00007fd2c601510c  b9000be8		str w8, [sp, #8]
[33m[WRN] [0mRobEntry 0x7fd2c5c08590 not ready due to 0x7fd2c5c0bc10
0x00007fd2c6015110  b9400fe8		ldr w8, [sp, #12]
[33m[WRN] [0mRobEntry 0x7fd2c5c085f0 not ready due to 0x7fd2c5c0bc10
0x00007fd2c6015114  7100051f		cmp w8, #0x1 (1)
0x00007fd2c6015118  54000041		b.ne #+0x8 (addr 0x7fd2c6015120)
0x00007fd2c601511c  1400000a		b #+0x28 (addr 0x7fd2c6015144)
0x00007fd2c6015144  b9400be0		ldr w0, [sp, #8]
[33m[WRN] [0mRobEntry 0x7fd2c5c078f0 not ready due to 0x7fd2c5c0bc10
0x00007fd2c6015148  910043ff		add sp, sp, #0x10 (16)
0x00007fd2c601514c  d65f03c0		ret
0x00007fd2c6015150  a9bf7bfd		stp x29, x30, [sp, #-16]!
[33m[WRN] [0mRobEntry 0x7fd2c5c07a10 not ready due to 0x7fd2c5c0caf0
[33m[WRN] [0mRobEntry 0x7fd2c5c07a10 not ready due to 0x7fd2c5c0caf0
0x00007fd2c6015154  910003fd		mov x29, sp
0x00007fd2c6015158  d10043ff		sub sp, sp, #0x10 (16)
0x00007fd2c601515c  52800140		mov w0, #0xa
0x00007fd2c6015160  52800008		mov w8, #0x0
0x00007fd2c6015164  b81fc3a8		stur w8, [x29, #-4]
[33m[WRN] [0mRobEntry 0x7fd2c5c08890 not ready due to 0x7fd2c5c0d020
0x00007fd2c6015168  97ffffe6		bl #-0x68 (addr 0x7fd2c6015100)
0x00007fd2c6015100  d10043ff		sub sp, sp, #0x10 (16)
0x00007fd2c6015104  320003e8		orr w8, wzr, #0x1
0x00007fd2c6015108  b9000fe0		str w0, [sp, #12]
[33m[WRN] [0mRobEntry 0x7fd2c5c08a10 not ready due to 0x7fd2c5c0d4f0
0x00007fd2c601510c  b9000be8		str w8, [sp, #8]
[33m[WRN] [0mRobEntry 0x7fd2c5c08a70 not ready due to 0x7fd2c5c0d4f0
0x00007fd2c6015110  b9400fe8		ldr w8, [sp, #12]
[33m[WRN] [0mRobEntry 0x7fd2c5c08ad0 not ready due to 0x7fd2c5c0d4f0
0x00007fd2c6015114  7100051f		cmp w8, #0x1 (1)
0x00007fd2c6015118  54000041		b.ne #+0x8 (addr 0x7fd2c6015120)
0x00007fd2c601511c  1400000a		b #+0x28 (addr 0x7fd2c6015144)
0x00007fd2c6015144  b9400be0		ldr w0, [sp, #8]
[33m[WRN] [0mRobEntry 0x7fd2c5c08c50 not ready due to 0x7fd2c5c0d4f0
0x00007fd2c6015148  910043ff		add sp, sp, #0x10 (16)
0x00007fd2c601514c  d65f03c0		ret
0x00007fd2c6015150  a9bf7bfd		stp x29, x30, [sp, #-16]!
[33m[WRN] [0mRobEntry 0x7fd2c5c08d70 not ready due to 0x7fd2c5c0e370
[33m[WRN] [0mRobEntry 0x7fd2c5c08d70 not ready due to 0x7fd2c5c0e370
0x00007fd2c6015154  910003fd		mov x29, sp
0x00007fd2c6015158  d10043ff		sub sp, sp, #0x10 (16)
0x00007fd2c601515c  52800140		mov w0, #0xa
0x00007fd2c6015160  52800008		mov w8, #0x0
0x00007fd2c6015164  b81fc3a8		stur w8, [x29, #-4]
[33m[WRN] [0mRobEntry 0x7fd2c5c08f50 not ready due to 0x7fd2c5c0c0e0
0x00007fd2c6015168  97ffffe6		bl #-0x68 (addr 0x7fd2c6015100)
0x00007fd2c6015100  d10043ff		sub sp, sp, #0x10 (16)
0x00007fd2c6015104  320003e8		orr w8, wzr, #0x1
0x00007fd2c6015108  b9000fe0		str w0, [sp, #12]
[33m[WRN] [0mRobEntry 0x7fd2c5c090d0 not ready due to 0x7fd2c5c0ee70
0x00007fd2c601510c  b9000be8		str w8, [sp, #8]
[33m[WRN] [0mRobEntry 0x7fd2c5c10bb0 not ready due to 0x7fd2c5c0ee70
0x00007fd2c6015110  b9400fe8		ldr w8, [sp, #12]
[33m[WRN] [0mRobEntry 0x7fd2c5c12e90 not ready due to 0x7fd2c5c0ee70
0x00007fd2c6015114  7100051f		cmp w8, #0x1 (1)
0x00007fd2c6015118  54000041		b.ne #+0x8 (addr 0x7fd2c6015120)
0x00007fd2c601511c  1400000a		b #+0x28 (addr 0x7fd2c6015144)
0x00007fd2c6015144  b9400be0		ldr w0, [sp, #8]
[33m[WRN] [0mRobEntry 0x7fd2c5c18830 not ready due to 0x7fd2c5c0ee70
0x00007fd2c6015148  910043ff		add sp, sp, #0x10 (16)
0x00007fd2c601514c  d65f03c0		ret
0x00007fd2c6015150  a9bf7bfd		stp x29, x30, [sp, #-16]!
[33m[WRN] [0m[R31] RobCusor 0x7fd2c5c1add0 read-depends on 0x7fd2c5c03000
[33m[WRN] [0m[R31] RobCusor 0x7fd2c5c1add0 write can go ahead with ticket 0x7fd2c5c1c150
[33m[WRN] [0m[R29] RobCusor 0x7fd2c5c1add0 read-depends on 0x7fd2c5c0c0e0
[33m[WRN] [0mRobEntry 0x7fd2c5c1add0 not ready due to 0x7fd2c5c03000
[33m[WRN] [0m[R30] RobCusor 0x7fd2c5c1add0 read-depends on 0x7fd2c5c0ee70
[33m[WRN] [0mRobEntry 0x7fd2c5c1add0 not ready due to 0x7fd2c5c03000
0x00007fd2c6015154  910003fd		mov x29, sp
[33m[WRN] [0m[R31] RobCusor 0x7fd2c5c1ae30 read-depends on 0x7fd2c5c1c150
[33m[WRN] [0m[R29] RobCusor 0x7fd2c5c1ae30 write can go ahead with ticket 0x7fd2c5c1e770
[33m[WRN] [0m----------------------Experimental Execute--------------
[33m[WRN] [0mRobEntry 0x7fd2c5c07f90 ready with 0x7fd2c5c0aaf0
[33m[WRN] [0mRobEntry 0x7fd2c5c07ff0 not ready due to 0x7fd2c5c0add8
[33m[WRN] [0mRobEntry 0x7fd2c5c080b0 ready with 0x7fd2c5c09dc0
[33m[WRN] [0mRobEntry 0x7fd2c5c08110 ready with 0x7fd2c5c09dc0
[33m[WRN] [0mRobEntry 0x7fd2c5c08170 ready with 0x7fd2c5c09dc0
[33m[WRN] [0mRobEntry 0x7fd2c5c08230 not ready due to 0x7fd2c5c0b3e0
[33m[WRN] [0mRobEntry 0x7fd2c5c08290 not ready due to 0x7fd2c5c0b3e0
[33m[WRN] [0mRobEntry 0x7fd2c5c08470 not ready due to 0x7fd2c5c0b870
[33m[WRN] [0mRobEntry 0x7fd2c5c08650 not ready due to 0x7fd2c5c0b0b0
[33m[WRN] [0mRobEntry 0x7fd2c5c086b0 not ready due to 0x7fd2c5c0c698
[33m[WRN] [0mRobEntry 0x7fd2c5c07950 not ready due to 0x7fd2c5c0bc10
[33m[WRN] [0mRobEntry 0x7fd2c5c079b0 not ready due to 0x7fd2c5c0bc10
[33m[WRN] [0mRobEntry 0x7fd2c5c08710 not ready due to 0x7fd2c5c0ccf0
[33m[WRN] [0mRobEntry 0x7fd2c5c08770 not ready due to 0x7fd2c5c0ccf0
[33m[WRN] [0mRobEntry 0x7fd2c5c08950 not ready due to 0x7fd2c5c0d150
[33m[WRN] [0mRobEntry 0x7fd2c5c08b30 not ready due to 0x7fd2c5c0dc60
[33m[WRN] [0mRobEntry 0x7fd2c5c08b90 not ready due to 0x7fd2c5c0df48
[33m[WRN] [0mRobEntry 0x7fd2c5c08cb0 not ready due to 0x7fd2c5c0d4f0
[33m[WRN] [0mRobEntry 0x7fd2c5c08d10 not ready due to 0x7fd2c5c0d4f0
[33m[WRN] [0mRobEntry 0x7fd2c5c08dd0 not ready due to 0x7fd2c5c0e570
[33m[WRN] [0mRobEntry 0x7fd2c5c08e30 not ready due to 0x7fd2c5c0e570
[33m[WRN] [0mRobEntry 0x7fd2c5c09010 not ready due to 0x7fd2c5c0c110
[33m[WRN] [0mRobEntry 0x7fd2c5c12ef0 not ready due to 0x7fd2c5c0f4f0
[33m[WRN] [0mRobEntry 0x7fd2c5c12f50 not ready due to 0x7fd2c5c16df8
[33m[WRN] [0mRobEntry 0x7fd2c5c18890 not ready due to 0x7fd2c5c0ee70
[33m[WRN] [0mRobEntry 0x7fd2c5c188f0 not ready due to 0x7fd2c5c0ee70
[33m[WRN] [0mRobEntry 0x7fd2c5c1ae30 not ready due to 0x7fd2c5c1c150
0x00007fd2c6015114  7100051f		cmp w8, #0x1 (1)
[33m[WRN] [0m[0x7fd2c5c07f90] filled ticket 0x7fd2c5c0ad90
[33m[WRN] [0m[0x7fd2c5c07f90] filled ticket 0x7fd2c5c0ada8
[33m[WRN] [0m[0x7fd2c5c07f90] filled ticket 0x7fd2c5c0adc0
[33m[WRN] [0m[0x7fd2c5c07f90] filled ticket 0x7fd2c5c0add8
[33m[WRN] [0m[0x7fd2c5c07f90] filled ticket 0x7fd2c5c0ad90
[33m[WRN] [0m[0x7fd2c5c07f90] filled ticket 0x7fd2c5c0ada8
[33m[WRN] [0m[0x7fd2c5c07f90] filled ticket 0x7fd2c5c0adc0
[33m[WRN] [0m[0x7fd2c5c07f90] filled ticket 0x7fd2c5c0add8
[33m[WRN] [0m[0x7fd2c5c07f90] filled ticket 0x7fd2c5c0ad90
[33m[WRN] [0m[0x7fd2c5c07f90] filled ticket 0x7fd2c5c0ada8
[33m[WRN] [0m[0x7fd2c5c07f90] filled ticket 0x7fd2c5c0adc0
[33m[WRN] [0m[0x7fd2c5c07f90] filled ticket 0x7fd2c5c0add8
[33m[WRN] [0m[0x7fd2c5c07f90] filled ticket 0x7fd2c5c0ad90
[33m[WRN] [0m[0x7fd2c5c07f90] filled ticket 0x7fd2c5c0ada8
[33m[WRN] [0m[0x7fd2c5c07f90] filled ticket 0x7fd2c5c0adc0
[33m[WRN] [0m[0x7fd2c5c07f90] filled ticket 0x7fd2c5c0add8
# NZCV: N:0 Z:0 C:1 V:0
[34m[DBG] [0m   Logic[0]: newPc <- 0x7fd2c6015118
0x00007fd2c601511c  1400000a		b #+0x28 (addr 0x7fd2c6015144)
#    pc: 0x7fd2c6015144 (by 0x7fd2c5c08050)
[33m[WRN] [0mSpeculative write by 0x7fd2c5c08050 val=0x7fd2c6015144
[33m[WRN] [0m[0x7fd2c5c08050] filled ticket 0x7fd2c5c0af80
[34m[DBG] [0m   Logic[1]: speculation no set pc
[34m[DBG] [0m   Scribe: retired 2 ROB entries (now: 0x7fd2c5c07f90:Done)
[34m[DBG] [0m======================================== Update[9/12] 
[34m[DBG] [0m   Fetcher: buffer.size = 502
[34m[DBG] [0m   Logic: instr executed ? yes: 1
[34m[DBG] [0m   Logic: rStation size <- 63, rsVacancy <- 1
[34m[DBG] [0m======================================== Sync [9/12] 
[34m[DBG] [0m======================================== Cycle End

[34m[DBG] [0m======================================== Compute[10/12]
[34m[DBG] [0mPC Offsest: 0x10c
[34m[DBG] [0m   Fetcher: at: 0x7fd2c601510c (buffer 0:502)
[34m[DBG] [0m   Fetcher: front instr = 0x7fd2c601510c, fetched 64, tmpBuffer: 64
[34m[DBG] [0m   Decoder: front instr = 0x7fd2c6015114
[34m[DBG] [0m   Decoder: Logic reservation station is full
0x00007fd2c6015118  54000041		b.ne #+0x8 (addr 0x7fd2c6015120)
0x00007fd2c6015144  b9400be0		ldr w0, [sp, #8]
[33m[WRN] [0mRobEntry 0x7fd2c5c080b0 ready with 0x7fd2c5c09dc0
0x00007fd2c6015148  910043ff		add sp, sp, #0x10 (16)
0x00007fd2c601514c  d65f03c0		ret
0x00007fd2c6015150  a9bf7bfd		stp x29, x30, [sp, #-16]!
[33m[WRN] [0mRobEntry 0x7fd2c5c081d0 not ready due to 0x7fd2c5c0b1e0
[33m[WRN] [0mRobEntry 0x7fd2c5c081d0 not ready due to 0x7fd2c5c0b1e0
0x00007fd2c6015154  910003fd		mov x29, sp
0x00007fd2c6015158  d10043ff		sub sp, sp, #0x10 (16)
0x00007fd2c601515c  52800140		mov w0, #0xa
0x00007fd2c6015160  52800008		mov w8, #0x0
0x00007fd2c6015164  b81fc3a8		stur w8, [x29, #-4]
[33m[WRN] [0mRobEntry 0x7fd2c5c083b0 not ready due to 0x7fd2c5c0b730
0x00007fd2c6015168  97ffffe6		bl #-0x68 (addr 0x7fd2c6015100)
0x00007fd2c6015100  d10043ff		sub sp, sp, #0x10 (16)
0x00007fd2c6015104  320003e8		orr w8, wzr, #0x1
0x00007fd2c6015108  b9000fe0		str w0, [sp, #12]
[33m[WRN] [0mRobEntry 0x7fd2c5c08530 not ready due to 0x7fd2c5c0bc10
0x00007fd2c601510c  b9000be8		str w8, [sp, #8]
[33m[WRN] [0mRobEntry 0x7fd2c5c08590 not ready due to 0x7fd2c5c0bc10
0x00007fd2c6015110  b9400fe8		ldr w8, [sp, #12]
[33m[WRN] [0mRobEntry 0x7fd2c5c085f0 not ready due to 0x7fd2c5c0bc10
0x00007fd2c6015114  7100051f		cmp w8, #0x1 (1)
0x00007fd2c6015118  54000041		b.ne #+0x8 (addr 0x7fd2c6015120)
0x00007fd2c601511c  1400000a		b #+0x28 (addr 0x7fd2c6015144)
0x00007fd2c6015144  b9400be0		ldr w0, [sp, #8]
[33m[WRN] [0mRobEntry 0x7fd2c5c078f0 not ready due to 0x7fd2c5c0bc10
0x00007fd2c6015148  910043ff		add sp, sp, #0x10 (16)
0x00007fd2c601514c  d65f03c0		ret
0x00007fd2c6015150  a9bf7bfd		stp x29, x30, [sp, #-16]!
[33m[WRN] [0mRobEntry 0x7fd2c5c07a10 not ready due to 0x7fd2c5c0caf0
[33m[WRN] [0mRobEntry 0x7fd2c5c07a10 not ready due to 0x7fd2c5c0caf0
0x00007fd2c6015154  910003fd		mov x29, sp
0x00007fd2c6015158  d10043ff		sub sp, sp, #0x10 (16)
0x00007fd2c601515c  52800140		mov w0, #0xa
0x00007fd2c6015160  52800008		mov w8, #0x0
0x00007fd2c6015164  b81fc3a8		stur w8, [x29, #-4]
[33m[WRN] [0mRobEntry 0x7fd2c5c08890 not ready due to 0x7fd2c5c0d020
0x00007fd2c6015168  97ffffe6		bl #-0x68 (addr 0x7fd2c6015100)
0x00007fd2c6015100  d10043ff		sub sp, sp, #0x10 (16)
0x00007fd2c6015104  320003e8		orr w8, wzr, #0x1
0x00007fd2c6015108  b9000fe0		str w0, [sp, #12]
[33m[WRN] [0mRobEntry 0x7fd2c5c08a10 not ready due to 0x7fd2c5c0d4f0
0x00007fd2c601510c  b9000be8		str w8, [sp, #8]
[33m[WRN] [0mRobEntry 0x7fd2c5c08a70 not ready due to 0x7fd2c5c0d4f0
0x00007fd2c6015110  b9400fe8		ldr w8, [sp, #12]
[33m[WRN] [0mRobEntry 0x7fd2c5c08ad0 not ready due to 0x7fd2c5c0d4f0
0x00007fd2c6015114  7100051f		cmp w8, #0x1 (1)
0x00007fd2c6015118  54000041		b.ne #+0x8 (addr 0x7fd2c6015120)
0x00007fd2c601511c  1400000a		b #+0x28 (addr 0x7fd2c6015144)
0x00007fd2c6015144  b9400be0		ldr w0, [sp, #8]
[33m[WRN] [0mRobEntry 0x7fd2c5c08c50 not ready due to 0x7fd2c5c0d4f0
0x00007fd2c6015148  910043ff		add sp, sp, #0x10 (16)
0x00007fd2c601514c  d65f03c0		ret
0x00007fd2c6015150  a9bf7bfd		stp x29, x30, [sp, #-16]!
[33m[WRN] [0mRobEntry 0x7fd2c5c08d70 not ready due to 0x7fd2c5c0e370
[33m[WRN] [0mRobEntry 0x7fd2c5c08d70 not ready due to 0x7fd2c5c0e370
0x00007fd2c6015154  910003fd		mov x29, sp
0x00007fd2c6015158  d10043ff		sub sp, sp, #0x10 (16)
0x00007fd2c601515c  52800140		mov w0, #0xa
0x00007fd2c6015160  52800008		mov w8, #0x0
0x00007fd2c6015164  b81fc3a8		stur w8, [x29, #-4]
[33m[WRN] [0mRobEntry 0x7fd2c5c08f50 not ready due to 0x7fd2c5c0c0e0
0x00007fd2c6015168  97ffffe6		bl #-0x68 (addr 0x7fd2c6015100)
0x00007fd2c6015100  d10043ff		sub sp, sp, #0x10 (16)
0x00007fd2c6015104  320003e8		orr w8, wzr, #0x1
0x00007fd2c6015108  b9000fe0		str w0, [sp, #12]
[33m[WRN] [0mRobEntry 0x7fd2c5c090d0 not ready due to 0x7fd2c5c0ee70
0x00007fd2c601510c  b9000be8		str w8, [sp, #8]
[33m[WRN] [0mRobEntry 0x7fd2c5c10bb0 not ready due to 0x7fd2c5c0ee70
0x00007fd2c6015110  b9400fe8		ldr w8, [sp, #12]
[33m[WRN] [0mRobEntry 0x7fd2c5c12e90 not ready due to 0x7fd2c5c0ee70
0x00007fd2c6015114  7100051f		cmp w8, #0x1 (1)
0x00007fd2c6015118  54000041		b.ne #+0x8 (addr 0x7fd2c6015120)
0x00007fd2c601511c  1400000a		b #+0x28 (addr 0x7fd2c6015144)
0x00007fd2c6015144  b9400be0		ldr w0, [sp, #8]
[33m[WRN] [0mRobEntry 0x7fd2c5c18830 not ready due to 0x7fd2c5c0ee70
0x00007fd2c6015148  910043ff		add sp, sp, #0x10 (16)
0x00007fd2c601514c  d65f03c0		ret
0x00007fd2c6015150  a9bf7bfd		stp x29, x30, [sp, #-16]!
[33m[WRN] [0mRobEntry 0x7fd2c5c1add0 not ready due to 0x7fd2c5c03000
[33m[WRN] [0mRobEntry 0x7fd2c5c1add0 not ready due to 0x7fd2c5c03000
0x00007fd2c6015154  910003fd		mov x29, sp
0x00007fd2c6015158  d10043ff		sub sp, sp, #0x10 (16)
[33m[WRN] [0m[R31] RobCusor 0x7fd2c5c1d7b0 read-depends on 0x7fd2c5c1c150
[33m[WRN] [0m[R31] RobCusor 0x7fd2c5c1d7b0 write can go ahead with ticket 0x7fd2c5c1ea20
0x00007fd2c601515c  52800140		mov w0, #0xa
[33m[WRN] [0m[R0] RobCusor 0x7fd2c5c1d810 write can go ahead with ticket 0x7fd2c5c1eb50
[33m[WRN] [0m----------------------Experimental Execute--------------
[33m[WRN] [0mRobEntry 0x7fd2c5c07ff0 ready with 0x7fd2c5c0add8
[33m[WRN] [0mRobEntry 0x7fd2c5c080b0 ready with 0x7fd2c5c09dc0
[33m[WRN] [0mRobEntry 0x7fd2c5c08110 ready with 0x7fd2c5c09dc0
[33m[WRN] [0mRobEntry 0x7fd2c5c08170 ready with 0x7fd2c5c09dc0
[33m[WRN] [0mRobEntry 0x7fd2c5c08230 not ready due to 0x7fd2c5c0b3e0
[33m[WRN] [0mRobEntry 0x7fd2c5c08290 not ready due to 0x7fd2c5c0b3e0
[33m[WRN] [0mRobEntry 0x7fd2c5c08470 not ready due to 0x7fd2c5c0b870
[33m[WRN] [0mRobEntry 0x7fd2c5c08650 not ready due to 0x7fd2c5c0b0b0
[33m[WRN] [0mRobEntry 0x7fd2c5c086b0 not ready due to 0x7fd2c5c0c698
[33m[WRN] [0mRobEntry 0x7fd2c5c07950 not ready due to 0x7fd2c5c0bc10
[33m[WRN] [0mRobEntry 0x7fd2c5c079b0 not ready due to 0x7fd2c5c0bc10
[33m[WRN] [0mRobEntry 0x7fd2c5c08710 not ready due to 0x7fd2c5c0ccf0
[33m[WRN] [0mRobEntry 0x7fd2c5c08770 not ready due to 0x7fd2c5c0ccf0
[33m[WRN] [0mRobEntry 0x7fd2c5c08950 not ready due to 0x7fd2c5c0d150
[33m[WRN] [0mRobEntry 0x7fd2c5c08b30 not ready due to 0x7fd2c5c0dc60
[33m[WRN] [0mRobEntry 0x7fd2c5c08b90 not ready due to 0x7fd2c5c0df48
[33m[WRN] [0mRobEntry 0x7fd2c5c08cb0 not ready due to 0x7fd2c5c0d4f0
[33m[WRN] [0mRobEntry 0x7fd2c5c08d10 not ready due to 0x7fd2c5c0d4f0
[33m[WRN] [0mRobEntry 0x7fd2c5c08dd0 not ready due to 0x7fd2c5c0e570
[33m[WRN] [0mRobEntry 0x7fd2c5c08e30 not ready due to 0x7fd2c5c0e570
[33m[WRN] [0mRobEntry 0x7fd2c5c09010 not ready due to 0x7fd2c5c0c110
[33m[WRN] [0mRobEntry 0x7fd2c5c12ef0 not ready due to 0x7fd2c5c0f4f0
[33m[WRN] [0mRobEntry 0x7fd2c5c12f50 not ready due to 0x7fd2c5c16df8
[33m[WRN] [0mRobEntry 0x7fd2c5c18890 not ready due to 0x7fd2c5c0ee70
[33m[WRN] [0mRobEntry 0x7fd2c5c188f0 not ready due to 0x7fd2c5c0ee70
[33m[WRN] [0mRobEntry 0x7fd2c5c1ae30 not ready due to 0x7fd2c5c1c150
[33m[WRN] [0mRobEntry 0x7fd2c5c1d7b0 not ready due to 0x7fd2c5c1c150
0x00007fd2c6015118  54000041		b.ne #+0x8 (addr 0x7fd2c6015120)
#    pc: 0x7fd2c6015120 (by 0x7fd2c5c07ff0)
[33m[WRN] [0m[0x7fd2c5c07ff0] filled ticket 0x7fd2c5c0a370
[34m[DBG] [0m   Logic[0]: newPc <- 0x7fd2c6015120
0x00007fd2c6015144  b9400be0		ldr w0, [sp, #8]
[34m[DBG] [0m[MEM] read addr=0x7fd2c601d2d8 len=0x4 val=0x1
[33m[WRN] [0m[R0] Speculative write by 0x7fd2c5c080b0 val=0x1
[33m[WRN] [0m[0x7fd2c5c080b0] filled ticket 0x7fd2c5c0ace0
#    x0: 0x000000000000000a <- 0x00007fd2c601d2d8
[34m[DBG] [0m   Logic[1]: speculation no set pc
[34m[DBG] [0m   Scribe: retired 1 ROB entries (now: 0x7fd2c5c07ff0:Done)
[34m[DBG] [0m======================================== Update[10/13] 
[34m[DBG] [0m   Fetcher: buffer.size = 564
[34m[DBG] [0m   Logic: BP wrong: 1; Fetcher pc <- 0x7fd2c6015120
[34m[DBG] [0mAdding new BP record for 0x7fd2c6015118 -> 0x7fd2c6015120
[34m[DBG] [0m   Fetcher: soft reset
[34m[DBG] [0m   Decoder: soft reset
[34m[DBG] [0m   Logic: instr executed ? yes: 1
[34m[DBG] [0m   Logic: rStation size <- 0, rsVacancy <- 64
[34m[DBG] [0m======================================== Sync [10/13] 
[34m[DBG] [0m======================================== Cycle End

[34m[DBG] [0m======================================== Compute[11/13]
[34m[DBG] [0mPC Offsest: 0x120
[34m[DBG] [0m   Fetcher: at: 0x7fd2c6015120 (buffer 0:0)
[34m[DBG] [0m   Fetcher: front instr = 0x7fd2c6015120, fetched 64, tmpBuffer: 64
[34m[DBG] [0m   Decoder: fetcher buffer is dry
[34m[DBG] [0m   Logic: reservation station is dry
[34m[DBG] [0m   Scribe: retired 64 ROB entries (now: 0x7fd2c5c20900:NoSucc)
[34m[DBG] [0m======================================== Update[11/14] 
[34m[DBG] [0m   Fetcher: buffer.size = 64
[34m[DBG] [0m   Logic: instr executed ? no: 0
[34m[DBG] [0m   Logic: rStation size <- 0, rsVacancy <- 64
[34m[DBG] [0m======================================== Sync [11/14] 
[34m[DBG] [0m======================================== Cycle End

[34m[DBG] [0m======================================== Compute[12/14]
[34m[DBG] [0mPC Offsest: 0x114
[34m[DBG] [0m   Fetcher: at: 0x7fd2c6015114 (buffer 0:64)
[34m[DBG] [0m   Fetcher: front instr = 0x7fd2c6015114, fetched 64, tmpBuffer: 64
[34m[DBG] [0m   Decoder: front instr = 0x7fd2c6015120
[34m[DBG] [0m   Logic: reservation station is dry
[34m[DBG] [0m   Scribe: retired 1 ROB entries (now: 0x7fd2c5c20900:NoSucc)
[34m[DBG] [0m======================================== Update[12/14] 
[34m[DBG] [0m   Fetcher: buffer.size = 64
[34m[DBG] [0m   Logic: instr executed ? no: 0
[34m[DBG] [0m   Logic: rStation size <- 0, rsVacancy <- 64
[34m[DBG] [0m======================================== Sync [12/14] 
[34m[DBG] [0m======================================== Cycle End

[34m[DBG] [0m======================================== Compute[13/14]
[34m[DBG] [0mPC Offsest: 0x160
[34m[DBG] [0m   Fetcher: at: 0x7fd2c6015160 (buffer 0:64)
[34m[DBG] [0m   Fetcher: front instr = 0x7fd2c6015160, fetched 64, tmpBuffer: 64
[34m[DBG] [0m   Logic: reservation station is dry
[34m[DBG] [0m   Scribe: retired 1 ROB entries (now: 0x7fd2c5c23130:Idle)
[34m[DBG] [0m======================================== Update[13/14] 
[34m[DBG] [0m   Fetcher: buffer.size = 128
[34m[DBG] [0m   Logic: instr executed ? no: 0
[34m[DBG] [0m   Logic: rStation size <- 64, rsVacancy <- 0
[34m[DBG] [0m======================================== Sync [13/14] 
[34m[DBG] [0m======================================== Cycle End

[34m[DBG] [0m======================================== Compute[14/14]
[34m[DBG] [0mPC Offsest: 0x11c
[34m[DBG] [0m   Fetcher: at: 0x7fd2c601511c (buffer 0:128)
[34m[DBG] [0m   Fetcher: front instr = 0x7fd2c601511c, fetched 64, tmpBuffer: 64
[34m[DBG] [0m   Decoder: front instr = 0x7fd2c6015114
0x00007fd2c6015120  b9400fe8		ldr w8, [sp, #12]
[33m[WRN] [0m[R31] RobCusor 0x7fd2c5c23130 read can go ahead (init)
[33m[WRN] [0m[R8] RobCusor 0x7fd2c5c23130 write can go ahead with ticket 0x7fd2c5c10910
0x00007fd2c6015124  b9400be9		ldr w9, [sp, #8]
[33m[WRN] [0m[R31] RobCusor 0x7fd2c5c23190 read can go ahead (init)
[33m[WRN] [0m[R9] RobCusor 0x7fd2c5c23190 write can go ahead with ticket 0x7fd2c5c21970
0x00007fd2c6015128  1b087d28		mul w8, w9, w8
[33m[WRN] [0m[R9] RobCusor 0x7fd2c5c231f0 read-depends on 0x7fd2c5c21970
[33m[WRN] [0m[R8] RobCusor 0x7fd2c5c231f0 read-depends on 0x7fd2c5c10910
[33m[WRN] [0m[R9] RobCusor 0x7fd2c5c231f0 read-depends on 0x7fd2c5c21970
[33m[WRN] [0m[R8] RobCusor 0x7fd2c5c231f0 read-depends on 0x7fd2c5c10910
[33m[WRN] [0m[R9] RobCusor 0x7fd2c5c231f0 read-depends on 0x7fd2c5c21970
[33m[WRN] [0m[R8] RobCusor 0x7fd2c5c231f0 read-depends on 0x7fd2c5c10910
[33m[WRN] [0m[R8] RobCusor 0x7fd2c5c231f0 write can go ahead with ticket 0x7fd2c5c13fc0
0x00007fd2c601512c  b9000be8		str w8, [sp, #8]
[33m[WRN] [0m[R31] RobCusor 0x7fd2c5c23250 read can go ahead (init)
[33m[WRN] [0m[R8] RobCusor 0x7fd2c5c23250 read-depends on 0x7fd2c5c13fc0
[33m[WRN] [0mRobEntry 0x7fd2c5c23250 not ready due to 0x7fd2c5c13fc0
0x00007fd2c6015130  b9400fe8		ldr w8, [sp, #12]
[33m[WRN] [0m[R31] RobCusor 0x7fd2c5c232b0 read can go ahead (init)
[33m[WRN] [0m[R8] RobCusor 0x7fd2c5c232b0 write can go ahead with ticket 0x7fd2c5c15070
0x00007fd2c6015134  12800009		mov w9, #0xffffffff
[33m[WRN] [0m[R9] RobCusor 0x7fd2c5c23310 write can go ahead with ticket 0x7fd2c5c150a0
0x00007fd2c6015138  0b090108		add w8, w8, w9
[33m[WRN] [0m[R9] RobCusor 0x7fd2c5c23370 read-depends on 0x7fd2c5c150a0
[33m[WRN] [0m[R8] RobCusor 0x7fd2c5c23370 read-depends on 0x7fd2c5c15070
[33m[WRN] [0m[R8] RobCusor 0x7fd2c5c23370 write can go ahead with ticket 0x7fd2c5c25b70
0x00007fd2c601513c  b9000fe8		str w8, [sp, #12]
[33m[WRN] [0m[R31] RobCusor 0x7fd2c5c233d0 read can go ahead (init)
[33m[WRN] [0m[R8] RobCusor 0x7fd2c5c233d0 read-depends on 0x7fd2c5c25b70
[33m[WRN] [0mRobEntry 0x7fd2c5c233d0 not ready due to 0x7fd2c5c25b70
0x00007fd2c6015140  17fffff4		b #-0x30 (addr 0x7fd2c6015110)
0x00007fd2c6015110  b9400fe8		ldr w8, [sp, #12]
[33m[WRN] [0m[R31] RobCusor 0x7fd2c5c23490 read can go ahead (init)
[33m[WRN] [0m[R8] RobCusor 0x7fd2c5c23490 write can go ahead with ticket 0x7fd2c5c25e60
0x00007fd2c6015114  7100051f		cmp w8, #0x1 (1)
[33m[WRN] [0m[R8] RobCusor 0x7fd2c5c234f0 read-depends on 0x7fd2c5c25e60
[33m[WRN] [0m[NZCV] RobCusor 0x7fd2c5c234f0 write can go ahead with ticket 0x7fd2c5c25fa0
[33m[WRN] [0m[NZCV] RobCusor 0x7fd2c5c234f0 write can go ahead with ticket 0x7fd2c5c26068
[33m[WRN] [0m[NZCV] RobCusor 0x7fd2c5c234f0 write can go ahead with ticket 0x7fd2c5c26140
[33m[WRN] [0m[NZCV] RobCusor 0x7fd2c5c234f0 write can go ahead with ticket 0x7fd2c5c26158
0x00007fd2c6015118  54000041		b.ne #+0x8 (addr 0x7fd2c6015120)
[33m[WRN] [0m[NZCV] RobCusor 0x7fd2c5c23550 read-depends on 0x7fd2c5c26158
0x00007fd2c601511c  1400000a		b #+0x28 (addr 0x7fd2c6015144)
0x00007fd2c6015144  b9400be0		ldr w0, [sp, #8]
[33m[WRN] [0m[R31] RobCusor 0x7fd2c5c23610 read can go ahead (init)
[33m[WRN] [0m[R0] RobCusor 0x7fd2c5c23610 write can go ahead with ticket 0x7fd2c5c263e0
0x00007fd2c6015148  910043ff		add sp, sp, #0x10 (16)
[33m[WRN] [0m[R31] RobCusor 0x7fd2c5c23670 read can go ahead (init)
[33m[WRN] [0m[R31] RobCusor 0x7fd2c5c23670 write can go ahead with ticket 0x7fd2c5c26510
0x00007fd2c601514c  d65f03c0		ret
[33m[WRN] [0m[R30] RobCusor 0x7fd2c5c236d0 read can go ahead (init)
0x00007fd2c6015150  a9bf7bfd		stp x29, x30, [sp, #-16]!
[33m[WRN] [0m[R31] RobCusor 0x7fd2c5c23730 read-depends on 0x7fd2c5c26510
[33m[WRN] [0m[R31] RobCusor 0x7fd2c5c23730 write can go ahead with ticket 0x7fd2c5c26700
[33m[WRN] [0m[R29] RobCusor 0x7fd2c5c23730 read can go ahead (init)
[33m[WRN] [0mRobEntry 0x7fd2c5c23730 not ready due to 0x7fd2c5c26510
[33m[WRN] [0m[R30] RobCusor 0x7fd2c5c23730 read can go ahead (init)
[33m[WRN] [0mRobEntry 0x7fd2c5c23730 not ready due to 0x7fd2c5c26510
0x00007fd2c6015154  910003fd		mov x29, sp
[33m[WRN] [0m[R31] RobCusor 0x7fd2c5c23790 read-depends on 0x7fd2c5c26700
[33m[WRN] [0m[R29] RobCusor 0x7fd2c5c23790 write can go ahead with ticket 0x7fd2c5c26a40
0x00007fd2c6015158  d10043ff		sub sp, sp, #0x10 (16)
[33m[WRN] [0m[R31] RobCusor 0x7fd2c5c237f0 read-depends on 0x7fd2c5c26700
[33m[WRN] [0m[R31] RobCusor 0x7fd2c5c237f0 write can go ahead with ticket 0x7fd2c5c26b80
0x00007fd2c601515c  52800140		mov w0, #0xa
[33m[WRN] [0m[R0] RobCusor 0x7fd2c5c10530 write can go ahead with ticket 0x7fd2c5c26c30
0x00007fd2c6015160  52800008		mov w8, #0x0
[33m[WRN] [0m[R8] RobCusor 0x7fd2c5c10590 write can go ahead with ticket 0x7fd2c5c26ce0
0x00007fd2c6015164  b81fc3a8		stur w8, [x29, #-4]
[33m[WRN] [0m[R29] RobCusor 0x7fd2c5c105f0 read-depends on 0x7fd2c5c26a40
[33m[WRN] [0m[R8] RobCusor 0x7fd2c5c105f0 read-depends on 0x7fd2c5c26ce0
[33m[WRN] [0mRobEntry 0x7fd2c5c105f0 not ready due to 0x7fd2c5c26a40
0x00007fd2c6015168  97ffffe6		bl #-0x68 (addr 0x7fd2c6015100)
[33m[WRN] [0m[R30] RobCusor 0x7fd2c5c10650 write can go ahead with ticket 0x7fd2c5c26050
0x00007fd2c6015100  d10043ff		sub sp, sp, #0x10 (16)
[33m[WRN] [0m[R31] RobCusor 0x7fd2c5c106b0 read-depends on 0x7fd2c5c26b80
[33m[WRN] [0m[R31] RobCusor 0x7fd2c5c106b0 write can go ahead with ticket 0x7fd2c5c26050
0x00007fd2c6015104  320003e8		orr w8, wzr, #0x1
[33m[WRN] [0m[R8] RobCusor 0x7fd2c5c23850 write can go ahead with ticket 0x7fd2c5c27100
0x00007fd2c6015108  b9000fe0		str w0, [sp, #12]
[33m[WRN] [0m[R31] RobCusor 0x7fd2c5c238b0 read-depends on 0x7fd2c5c26050
[33m[WRN] [0m[R0] RobCusor 0x7fd2c5c238b0 read-depends on 0x7fd2c5c26c30
[33m[WRN] [0mRobEntry 0x7fd2c5c238b0 not ready due to 0x7fd2c5c26050
0x00007fd2c601510c  b9000be8		str w8, [sp, #8]
[33m[WRN] [0m[R31] RobCusor 0x7fd2c5c23910 read-depends on 0x7fd2c5c26050
[33m[WRN] [0m[R8] RobCusor 0x7fd2c5c23910 read-depends on 0x7fd2c5c27100
[33m[WRN] [0mRobEntry 0x7fd2c5c23910 not ready due to 0x7fd2c5c26050
0x00007fd2c6015110  b9400fe8		ldr w8, [sp, #12]
[33m[WRN] [0m[R31] RobCusor 0x7fd2c5c23970 read-depends on 0x7fd2c5c26050
[33m[WRN] [0mRobEntry 0x7fd2c5c23970 not ready due to 0x7fd2c5c26050
[33m[WRN] [0m[R8] RobCusor 0x7fd2c5c23970 write can go ahead with ticket 0x7fd2c5c275e0
0x00007fd2c6015114  7100051f		cmp w8, #0x1 (1)
[33m[WRN] [0m[R8] RobCusor 0x7fd2c5c239d0 read-depends on 0x7fd2c5c275e0
[33m[WRN] [0m[NZCV] RobCusor 0x7fd2c5c239d0 write can go ahead with ticket 0x7fd2c5c27720
[33m[WRN] [0m[NZCV] RobCusor 0x7fd2c5c239d0 write can go ahead with ticket 0x7fd2c5c277e8
[33m[WRN] [0m[NZCV] RobCusor 0x7fd2c5c239d0 write can go ahead with ticket 0x7fd2c5c278c0
[33m[WRN] [0m[NZCV] RobCusor 0x7fd2c5c239d0 write can go ahead with ticket 0x7fd2c5c278d8
0x00007fd2c6015118  54000041		b.ne #+0x8 (addr 0x7fd2c6015120)
[33m[WRN] [0m[NZCV] RobCusor 0x7fd2c5c23a30 read-depends on 0x7fd2c5c278d8
0x00007fd2c601511c  1400000a		b #+0x28 (addr 0x7fd2c6015144)
0x00007fd2c6015144  b9400be0		ldr w0, [sp, #8]
[33m[WRN] [0m[R31] RobCusor 0x7fd2c5c23af0 read-depends on 0x7fd2c5c26050
[33m[WRN] [0mRobEntry 0x7fd2c5c23af0 not ready due to 0x7fd2c5c26050
[33m[WRN] [0m[R0] RobCusor 0x7fd2c5c23af0 write can go ahead with ticket 0x7fd2c5c27bf0
0x00007fd2c6015148  910043ff		add sp, sp, #0x10 (16)
[33m[WRN] [0m[R31] RobCusor 0x7fd2c5c23b50 read-depends on 0x7fd2c5c26050
[33m[WRN] [0m[R31] RobCusor 0x7fd2c5c23b50 write can go ahead with ticket 0x7fd2c5c27d30
0x00007fd2c601514c  d65f03c0		ret
[33m[WRN] [0m[R30] RobCusor 0x7fd2c5c23bb0 read-depends on 0x7fd2c5c26050
0x00007fd2c6015150  a9bf7bfd		stp x29, x30, [sp, #-16]!
[33m[WRN] [0m[R31] RobCusor 0x7fd2c5c23c10 read-depends on 0x7fd2c5c27d30
[33m[WRN] [0m[R31] RobCusor 0x7fd2c5c23c10 write can go ahead with ticket 0x7fd2c5c27f30
[33m[WRN] [0m[R29] RobCusor 0x7fd2c5c23c10 read-depends on 0x7fd2c5c26a40
[33m[WRN] [0mRobEntry 0x7fd2c5c23c10 not ready due to 0x7fd2c5c27d30
[33m[WRN] [0m[R30] RobCusor 0x7fd2c5c23c10 read-depends on 0x7fd2c5c26050
[33m[WRN] [0mRobEntry 0x7fd2c5c23c10 not ready due to 0x7fd2c5c27d30
0x00007fd2c6015154  910003fd		mov x29, sp
[33m[WRN] [0m[R31] RobCusor 0x7fd2c5c23c70 read-depends on 0x7fd2c5c27f30
[33m[WRN] [0m[R29] RobCusor 0x7fd2c5c23c70 write can go ahead with ticket 0x7fd2c5c28260
0x00007fd2c6015158  d10043ff		sub sp, sp, #0x10 (16)
[33m[WRN] [0m[R31] RobCusor 0x7fd2c5c23cd0 read-depends on 0x7fd2c5c27f30
[33m[WRN] [0m[R31] RobCusor 0x7fd2c5c23cd0 write can go ahead with ticket 0x7fd2c5c28390
0x00007fd2c601515c  52800140		mov w0, #0xa
[33m[WRN] [0m[R0] RobCusor 0x7fd2c5c23d30 write can go ahead with ticket 0x7fd2c5c28440
0x00007fd2c6015160  52800008		mov w8, #0x0
[33m[WRN] [0m[R8] RobCusor 0x7fd2c5c23d90 write can go ahead with ticket 0x7fd2c5c284f0
0x00007fd2c6015164  b81fc3a8		stur w8, [x29, #-4]
[33m[WRN] [0m[R29] RobCusor 0x7fd2c5c23df0 read-depends on 0x7fd2c5c28260
[33m[WRN] [0m[R8] RobCusor 0x7fd2c5c23df0 read-depends on 0x7fd2c5c284f0
[33m[WRN] [0mRobEntry 0x7fd2c5c23df0 not ready due to 0x7fd2c5c28260
0x00007fd2c6015168  97ffffe6		bl #-0x68 (addr 0x7fd2c6015100)
[33m[WRN] [0m[R30] RobCusor 0x7fd2c5c23e50 write can go ahead with ticket 0x7fd2c5c28730
0x00007fd2c6015100  d10043ff		sub sp, sp, #0x10 (16)
[33m[WRN] [0m[R31] RobCusor 0x7fd2c5c23eb0 read-depends on 0x7fd2c5c28390
[33m[WRN] [0m[R31] RobCusor 0x7fd2c5c23eb0 write can go ahead with ticket 0x7fd2c5c28730
0x00007fd2c6015104  320003e8		orr w8, wzr, #0x1
[33m[WRN] [0m[R8] RobCusor 0x7fd2c5c23f10 write can go ahead with ticket 0x7fd2c5c28940
0x00007fd2c6015108  b9000fe0		str w0, [sp, #12]
[33m[WRN] [0m[R31] RobCusor 0x7fd2c5c23f70 read-depends on 0x7fd2c5c28730
[33m[WRN] [0m[R0] RobCusor 0x7fd2c5c23f70 read-depends on 0x7fd2c5c28440
[33m[WRN] [0mRobEntry 0x7fd2c5c23f70 not ready due to 0x7fd2c5c28730
0x00007fd2c601510c  b9000be8		str w8, [sp, #8]
[33m[WRN] [0m[R31] RobCusor 0x7fd2c5c23fd0 read-depends on 0x7fd2c5c28730
[33m[WRN] [0m[R8] RobCusor 0x7fd2c5c23fd0 read-depends on 0x7fd2c5c28940
[33m[WRN] [0mRobEntry 0x7fd2c5c23fd0 not ready due to 0x7fd2c5c28730
0x00007fd2c6015110  b9400fe8		ldr w8, [sp, #12]
[33m[WRN] [0m[R31] RobCusor 0x7fd2c5c24030 read-depends on 0x7fd2c5c28730
[33m[WRN] [0mRobEntry 0x7fd2c5c24030 not ready due to 0x7fd2c5c28730
[33m[WRN] [0m[R8] RobCusor 0x7fd2c5c24030 write can go ahead with ticket 0x7fd2c5c28e20
0x00007fd2c6015114  7100051f		cmp w8, #0x1 (1)
[33m[WRN] [0m[R8] RobCusor 0x7fd2c5c24090 read-depends on 0x7fd2c5c28e20
[33m[WRN] [0m[NZCV] RobCusor 0x7fd2c5c24090 write can go ahead with ticket 0x7fd2c5c28f60
[33m[WRN] [0m[NZCV] RobCusor 0x7fd2c5c24090 write can go ahead with ticket 0x7fd2c5c29028
[33m[WRN] [0m[NZCV] RobCusor 0x7fd2c5c24090 write can go ahead with ticket 0x7fd2c5c29100
[33m[WRN] [0m[NZCV] RobCusor 0x7fd2c5c24090 write can go ahead with ticket 0x7fd2c5c29118
0x00007fd2c6015118  54000041		b.ne #+0x8 (addr 0x7fd2c6015120)
[33m[WRN] [0m[NZCV] RobCusor 0x7fd2c5c240f0 read-depends on 0x7fd2c5c29118
0x00007fd2c601511c  1400000a		b #+0x28 (addr 0x7fd2c6015144)
0x00007fd2c6015144  b9400be0		ldr w0, [sp, #8]
[33m[WRN] [0m[R31] RobCusor 0x7fd2c5c241b0 read-depends on 0x7fd2c5c28730
[33m[WRN] [0mRobEntry 0x7fd2c5c241b0 not ready due to 0x7fd2c5c28730
[33m[WRN] [0m[R0] RobCusor 0x7fd2c5c241b0 write can go ahead with ticket 0x7fd2c5c29020
0x00007fd2c6015148  910043ff		add sp, sp, #0x10 (16)
[33m[WRN] [0m[R31] RobCusor 0x7fd2c5c24210 read-depends on 0x7fd2c5c28730
[33m[WRN] [0m[R31] RobCusor 0x7fd2c5c24210 write can go ahead with ticket 0x7fd2c5c295c0
0x00007fd2c601514c  d65f03c0		ret
[33m[WRN] [0m[R30] RobCusor 0x7fd2c5c18130 read-depends on 0x7fd2c5c28730
0x00007fd2c6015150  a9bf7bfd		stp x29, x30, [sp, #-16]!
[33m[WRN] [0m[R31] RobCusor 0x7fd2c5c18190 read-depends on 0x7fd2c5c295c0
[33m[WRN] [0m[R31] RobCusor 0x7fd2c5c18190 write can go ahead with ticket 0x7fd2c5c297c0
[33m[WRN] [0m[R29] RobCusor 0x7fd2c5c18190 read-depends on 0x7fd2c5c28260
[33m[WRN] [0mRobEntry 0x7fd2c5c18190 not ready due to 0x7fd2c5c295c0
[33m[WRN] [0m[R30] RobCusor 0x7fd2c5c18190 read-depends on 0x7fd2c5c28730
[33m[WRN] [0mRobEntry 0x7fd2c5c18190 not ready due to 0x7fd2c5c295c0
0x00007fd2c6015154  910003fd		mov x29, sp
[33m[WRN] [0m[R31] RobCusor 0x7fd2c5c181f0 read-depends on 0x7fd2c5c297c0
[33m[WRN] [0m[R29] RobCusor 0x7fd2c5c181f0 write can go ahead with ticket 0x7fd2c5c29b10
0x00007fd2c6015158  d10043ff		sub sp, sp, #0x10 (16)
[33m[WRN] [0m[R31] RobCusor 0x7fd2c5c18250 read-depends on 0x7fd2c5c297c0
[33m[WRN] [0m[R31] RobCusor 0x7fd2c5c18250 write can go ahead with ticket 0x7fd2c5c29c50
0x00007fd2c601515c  52800140		mov w0, #0xa
[33m[WRN] [0m[R0] RobCusor 0x7fd2c5c182b0 write can go ahead with ticket 0x7fd2c5c29d00
0x00007fd2c6015160  52800008		mov w8, #0x0
[33m[WRN] [0m[R8] RobCusor 0x7fd2c5c24270 write can go ahead with ticket 0x7fd2c5c29db0
0x00007fd2c6015164  b81fc3a8		stur w8, [x29, #-4]
[33m[WRN] [0m[R29] RobCusor 0x7fd2c5c242d0 read-depends on 0x7fd2c5c29b10
[33m[WRN] [0m[R8] RobCusor 0x7fd2c5c242d0 read-depends on 0x7fd2c5c29db0
[33m[WRN] [0mRobEntry 0x7fd2c5c242d0 not ready due to 0x7fd2c5c29b10
0x00007fd2c6015168  97ffffe6		bl #-0x68 (addr 0x7fd2c6015100)
[33m[WRN] [0m[R30] RobCusor 0x7fd2c5c24330 write can go ahead with ticket 0x7fd2c5c29ff0
0x00007fd2c6015100  d10043ff		sub sp, sp, #0x10 (16)
[33m[WRN] [0m[R31] RobCusor 0x7fd2c5c24390 read-depends on 0x7fd2c5c29c50
[33m[WRN] [0m[R31] RobCusor 0x7fd2c5c24390 write can go ahead with ticket 0x7fd2c5c29ff0
0x00007fd2c6015104  320003e8		orr w8, wzr, #0x1
[33m[WRN] [0m[R8] RobCusor 0x7fd2c5c243f0 write can go ahead with ticket 0x7fd2c5c2a200
0x00007fd2c6015108  b9000fe0		str w0, [sp, #12]
[33m[WRN] [0m[R31] RobCusor 0x7fd2c5c24450 read-depends on 0x7fd2c5c29ff0
[33m[WRN] [0m[R0] RobCusor 0x7fd2c5c24450 read-depends on 0x7fd2c5c29d00
[33m[WRN] [0mRobEntry 0x7fd2c5c24450 not ready due to 0x7fd2c5c29ff0
0x00007fd2c601510c  b9000be8		str w8, [sp, #8]
[33m[WRN] [0m[R31] RobCusor 0x7fd2c5c244b0 read-depends on 0x7fd2c5c29ff0
[33m[WRN] [0m[R8] RobCusor 0x7fd2c5c244b0 read-depends on 0x7fd2c5c2a200
[33m[WRN] [0mRobEntry 0x7fd2c5c244b0 not ready due to 0x7fd2c5c29ff0
0x00007fd2c6015110  b9400fe8		ldr w8, [sp, #12]
[33m[WRN] [0m[R31] RobCusor 0x7fd2c5c24510 read-depends on 0x7fd2c5c29ff0
[33m[WRN] [0mRobEntry 0x7fd2c5c24510 not ready due to 0x7fd2c5c29ff0
[33m[WRN] [0m[R8] RobCusor 0x7fd2c5c24510 write can go ahead with ticket 0x7fd2c5c2a6e0
[33m[WRN] [0m----------------------Experimental Execute--------------
[33m[WRN] [0mRobEntry 0x7fd2c5c231f0 not ready due to 0x7fd2c5c21970
[33m[WRN] [0mRobEntry 0x7fd2c5c23370 not ready due to 0x7fd2c5c150a0
[33m[WRN] [0mRobEntry 0x7fd2c5c234f0 not ready due to 0x7fd2c5c25e60
[33m[WRN] [0mRobEntry 0x7fd2c5c23550 not ready due to 0x7fd2c5c26158
[33m[WRN] [0mRobEntry 0x7fd2c5c23790 not ready due to 0x7fd2c5c26700
[33m[WRN] [0mRobEntry 0x7fd2c5c237f0 not ready due to 0x7fd2c5c26700
[33m[WRN] [0mRobEntry 0x7fd2c5c106b0 not ready due to 0x7fd2c5c26b80
[33m[WRN] [0mRobEntry 0x7fd2c5c239d0 not ready due to 0x7fd2c5c275e0
[33m[WRN] [0mRobEntry 0x7fd2c5c23a30 not ready due to 0x7fd2c5c278d8
[33m[WRN] [0mRobEntry 0x7fd2c5c23b50 not ready due to 0x7fd2c5c26050
[33m[WRN] [0mRobEntry 0x7fd2c5c23bb0 not ready due to 0x7fd2c5c26050
[33m[WRN] [0mRobEntry 0x7fd2c5c23c70 not ready due to 0x7fd2c5c27f30
[33m[WRN] [0mRobEntry 0x7fd2c5c23cd0 not ready due to 0x7fd2c5c27f30
[33m[WRN] [0mRobEntry 0x7fd2c5c23eb0 not ready due to 0x7fd2c5c28390
[33m[WRN] [0mRobEntry 0x7fd2c5c24090 not ready due to 0x7fd2c5c28e20
[33m[WRN] [0mRobEntry 0x7fd2c5c240f0 not ready due to 0x7fd2c5c29118
[33m[WRN] [0mRobEntry 0x7fd2c5c24210 not ready due to 0x7fd2c5c28730
[33m[WRN] [0mRobEntry 0x7fd2c5c18130 not ready due to 0x7fd2c5c28730
[33m[WRN] [0mRobEntry 0x7fd2c5c181f0 not ready due to 0x7fd2c5c297c0
[33m[WRN] [0mRobEntry 0x7fd2c5c18250 not ready due to 0x7fd2c5c297c0
[33m[WRN] [0mRobEntry 0x7fd2c5c24390 not ready due to 0x7fd2c5c29c50
0x00007fd2c6015120  b9400fe8		ldr w8, [sp, #12]
[33m[WRN] [0m[R31] RobEntry 0x7fd2c5c23130 reads init val 0x0
[34m[DBG] [0m[MEM] read addr=0x7fd2c601d2dc len=0x4 val=0xa
[33m[WRN] [0m[0x7fd2c5c23130] filled ticket 0x7fd2c5c10910
#    x8: 0x000000000000000a <- 0x00007fd2c601d2dc
[34m[DBG] [0m   Logic[0]: newPc <- 0x7fd2c6015124
0x00007fd2c6015124  b9400be9		ldr w9, [sp, #8]
[33m[WRN] [0m[R31] RobEntry 0x7fd2c5c23190 reads init val 0x0
[34m[DBG] [0m[MEM] read addr=0x7fd2c601d2d8 len=0x4 val=0x1
[33m[WRN] [0m[0x7fd2c5c23190] filled ticket 0x7fd2c5c21970
#    x9: 0x0000000000000001 <- 0x00007fd2c601d2d8
[34m[DBG] [0m   Logic[1]: newPc <- 0x7fd2c6015128
[34m[DBG] [0m   Scribe: retired 0 ROB entries (now: 0x7fd2c5c23130:Done)
[34m[DBG] [0m======================================== Update[14/14] 
[34m[DBG] [0m   Fetcher: buffer.size = 128
[34m[DBG] [0m   Logic: instr executed ? yes: 2
[34m[DBG] [0m   Logic: rStation size <- 62, rsVacancy <- 2
[34m[DBG] [0m======================================== Sync [14/14] 
[34m[DBG] [0m======================================== Cycle End

[34m[DBG] [0m======================================== Compute[15/14]
[34m[DBG] [0mPC Offsest: 0x168
[34m[DBG] [0m   Fetcher: at: 0x7fd2c6015168 (buffer 0:128)
[34m[DBG] [0m   Fetcher: front instr = 0x7fd2c6015168, fetched 64, tmpBuffer: 64
[34m[DBG] [0m   Decoder: Logic reservation station is full
0x00007fd2c6015128  1b087d28		mul w8, w9, w8
0x00007fd2c601512c  b9000be8		str w8, [sp, #8]
[33m[WRN] [0mRobEntry 0x7fd2c5c23250 not ready due to 0x7fd2c5c13fc0
0x00007fd2c6015130  b9400fe8		ldr w8, [sp, #12]
0x00007fd2c6015134  12800009		mov w9, #0xffffffff
0x00007fd2c6015138  0b090108		add w8, w8, w9
0x00007fd2c601513c  b9000fe8		str w8, [sp, #12]
[33m[WRN] [0mRobEntry 0x7fd2c5c233d0 not ready due to 0x7fd2c5c25b70
0x00007fd2c6015140  17fffff4		b #-0x30 (addr 0x7fd2c6015110)
0x00007fd2c6015110  b9400fe8		ldr w8, [sp, #12]
0x00007fd2c6015114  7100051f		cmp w8, #0x1 (1)
0x00007fd2c6015118  54000041		b.ne #+0x8 (addr 0x7fd2c6015120)
0x00007fd2c601511c  1400000a		b #+0x28 (addr 0x7fd2c6015144)
0x00007fd2c6015144  b9400be0		ldr w0, [sp, #8]
0x00007fd2c6015148  910043ff		add sp, sp, #0x10 (16)
0x00007fd2c601514c  d65f03c0		ret
0x00007fd2c6015150  a9bf7bfd		stp x29, x30, [sp, #-16]!
[33m[WRN] [0mRobEntry 0x7fd2c5c23730 not ready due to 0x7fd2c5c26510
[33m[WRN] [0mRobEntry 0x7fd2c5c23730 not ready due to 0x7fd2c5c26510
0x00007fd2c6015154  910003fd		mov x29, sp
0x00007fd2c6015158  d10043ff		sub sp, sp, #0x10 (16)
0x00007fd2c601515c  52800140		mov w0, #0xa
0x00007fd2c6015160  52800008		mov w8, #0x0
0x00007fd2c6015164  b81fc3a8		stur w8, [x29, #-4]
[33m[WRN] [0mRobEntry 0x7fd2c5c105f0 not ready due to 0x7fd2c5c26a40
0x00007fd2c6015168  97ffffe6		bl #-0x68 (addr 0x7fd2c6015100)
0x00007fd2c6015100  d10043ff		sub sp, sp, #0x10 (16)
0x00007fd2c6015104  320003e8		orr w8, wzr, #0x1
0x00007fd2c6015108  b9000fe0		str w0, [sp, #12]
[33m[WRN] [0mRobEntry 0x7fd2c5c238b0 not ready due to 0x7fd2c5c26050
0x00007fd2c601510c  b9000be8		str w8, [sp, #8]
[33m[WRN] [0mRobEntry 0x7fd2c5c23910 not ready due to 0x7fd2c5c26050
0x00007fd2c6015110  b9400fe8		ldr w8, [sp, #12]
[33m[WRN] [0mRobEntry 0x7fd2c5c23970 not ready due to 0x7fd2c5c26050
0x00007fd2c6015114  7100051f		cmp w8, #0x1 (1)
0x00007fd2c6015118  54000041		b.ne #+0x8 (addr 0x7fd2c6015120)
0x00007fd2c601511c  1400000a		b #+0x28 (addr 0x7fd2c6015144)
0x00007fd2c6015144  b9400be0		ldr w0, [sp, #8]
[33m[WRN] [0mRobEntry 0x7fd2c5c23af0 not ready due to 0x7fd2c5c26050
0x00007fd2c6015148  910043ff		add sp, sp, #0x10 (16)
0x00007fd2c601514c  d65f03c0		ret
0x00007fd2c6015150  a9bf7bfd		stp x29, x30, [sp, #-16]!
[33m[WRN] [0mRobEntry 0x7fd2c5c23c10 not ready due to 0x7fd2c5c27d30
[33m[WRN] [0mRobEntry 0x7fd2c5c23c10 not ready due to 0x7fd2c5c27d30
0x00007fd2c6015154  910003fd		mov x29, sp
0x00007fd2c6015158  d10043ff		sub sp, sp, #0x10 (16)
0x00007fd2c601515c  52800140		mov w0, #0xa
0x00007fd2c6015160  52800008		mov w8, #0x0
0x00007fd2c6015164  b81fc3a8		stur w8, [x29, #-4]
[33m[WRN] [0mRobEntry 0x7fd2c5c23df0 not ready due to 0x7fd2c5c28260
0x00007fd2c6015168  97ffffe6		bl #-0x68 (addr 0x7fd2c6015100)
0x00007fd2c6015100  d10043ff		sub sp, sp, #0x10 (16)
0x00007fd2c6015104  320003e8		orr w8, wzr, #0x1
0x00007fd2c6015108  b9000fe0		str w0, [sp, #12]
[33m[WRN] [0mRobEntry 0x7fd2c5c23f70 not ready due to 0x7fd2c5c28730
0x00007fd2c601510c  b9000be8		str w8, [sp, #8]
[33m[WRN] [0mRobEntry 0x7fd2c5c23fd0 not ready due to 0x7fd2c5c28730
0x00007fd2c6015110  b9400fe8		ldr w8, [sp, #12]
[33m[WRN] [0mRobEntry 0x7fd2c5c24030 not ready due to 0x7fd2c5c28730
0x00007fd2c6015114  7100051f		cmp w8, #0x1 (1)
0x00007fd2c6015118  54000041		b.ne #+0x8 (addr 0x7fd2c6015120)
0x00007fd2c601511c  1400000a		b #+0x28 (addr 0x7fd2c6015144)
0x00007fd2c6015144  b9400be0		ldr w0, [sp, #8]
[33m[WRN] [0mRobEntry 0x7fd2c5c241b0 not ready due to 0x7fd2c5c28730
0x00007fd2c6015148  910043ff		add sp, sp, #0x10 (16)
0x00007fd2c601514c  d65f03c0		ret
0x00007fd2c6015150  a9bf7bfd		stp x29, x30, [sp, #-16]!
[33m[WRN] [0mRobEntry 0x7fd2c5c18190 not ready due to 0x7fd2c5c295c0
[33m[WRN] [0mRobEntry 0x7fd2c5c18190 not ready due to 0x7fd2c5c295c0
0x00007fd2c6015154  910003fd		mov x29, sp
0x00007fd2c6015158  d10043ff		sub sp, sp, #0x10 (16)
0x00007fd2c601515c  52800140		mov w0, #0xa
0x00007fd2c6015160  52800008		mov w8, #0x0
0x00007fd2c6015164  b81fc3a8		stur w8, [x29, #-4]
[33m[WRN] [0mRobEntry 0x7fd2c5c242d0 not ready due to 0x7fd2c5c29b10
0x00007fd2c6015168  97ffffe6		bl #-0x68 (addr 0x7fd2c6015100)
0x00007fd2c6015100  d10043ff		sub sp, sp, #0x10 (16)
0x00007fd2c6015104  320003e8		orr w8, wzr, #0x1
0x00007fd2c6015108  b9000fe0		str w0, [sp, #12]
[33m[WRN] [0mRobEntry 0x7fd2c5c24450 not ready due to 0x7fd2c5c29ff0
0x00007fd2c601510c  b9000be8		str w8, [sp, #8]
[33m[WRN] [0mRobEntry 0x7fd2c5c244b0 not ready due to 0x7fd2c5c29ff0
0x00007fd2c6015110  b9400fe8		ldr w8, [sp, #12]
[33m[WRN] [0mRobEntry 0x7fd2c5c24510 not ready due to 0x7fd2c5c29ff0
[33m[WRN] [0m----------------------Experimental Execute--------------
[33m[WRN] [0mRobEntry 0x7fd2c5c231f0 ready with 0x7fd2c5c21970
[33m[WRN] [0mRobEntry 0x7fd2c5c231f0 ready with 0x7fd2c5c10910
[33m[WRN] [0mRobEntry 0x7fd2c5c231f0 ready with 0x7fd2c5c21970
[33m[WRN] [0mRobEntry 0x7fd2c5c231f0 ready with 0x7fd2c5c10910
[33m[WRN] [0mRobEntry 0x7fd2c5c231f0 ready with 0x7fd2c5c21970
[33m[WRN] [0mRobEntry 0x7fd2c5c231f0 ready with 0x7fd2c5c10910
[33m[WRN] [0mRobEntry 0x7fd2c5c23370 not ready due to 0x7fd2c5c150a0
[33m[WRN] [0mRobEntry 0x7fd2c5c234f0 not ready due to 0x7fd2c5c25e60
[33m[WRN] [0mRobEntry 0x7fd2c5c23550 not ready due to 0x7fd2c5c26158
[33m[WRN] [0mRobEntry 0x7fd2c5c23790 not ready due to 0x7fd2c5c26700
[33m[WRN] [0mRobEntry 0x7fd2c5c237f0 not ready due to 0x7fd2c5c26700
[33m[WRN] [0mRobEntry 0x7fd2c5c106b0 not ready due to 0x7fd2c5c26b80
[33m[WRN] [0mRobEntry 0x7fd2c5c239d0 not ready due to 0x7fd2c5c275e0
[33m[WRN] [0mRobEntry 0x7fd2c5c23a30 not ready due to 0x7fd2c5c278d8
[33m[WRN] [0mRobEntry 0x7fd2c5c23b50 not ready due to 0x7fd2c5c26050
[33m[WRN] [0mRobEntry 0x7fd2c5c23bb0 not ready due to 0x7fd2c5c26050
[33m[WRN] [0mRobEntry 0x7fd2c5c23c70 not ready due to 0x7fd2c5c27f30
[33m[WRN] [0mRobEntry 0x7fd2c5c23cd0 not ready due to 0x7fd2c5c27f30
[33m[WRN] [0mRobEntry 0x7fd2c5c23eb0 not ready due to 0x7fd2c5c28390
[33m[WRN] [0mRobEntry 0x7fd2c5c24090 not ready due to 0x7fd2c5c28e20
[33m[WRN] [0mRobEntry 0x7fd2c5c240f0 not ready due to 0x7fd2c5c29118
[33m[WRN] [0mRobEntry 0x7fd2c5c24210 not ready due to 0x7fd2c5c28730
[33m[WRN] [0mRobEntry 0x7fd2c5c18130 not ready due to 0x7fd2c5c28730
[33m[WRN] [0mRobEntry 0x7fd2c5c181f0 not ready due to 0x7fd2c5c297c0
[33m[WRN] [0mRobEntry 0x7fd2c5c18250 not ready due to 0x7fd2c5c297c0
[33m[WRN] [0mRobEntry 0x7fd2c5c24390 not ready due to 0x7fd2c5c29c50
0x00007fd2c6015128  1b087d28		mul w8, w9, w8
[33m[WRN] [0m[0x7fd2c5c231f0] filled ticket 0x7fd2c5c13fc0
#    x8: 0x000000000000000a
[34m[DBG] [0m   Logic[0]: newPc <- 0x7fd2c601512c
0x00007fd2c6015130  b9400fe8		ldr w8, [sp, #12]
[33m[WRN] [0m[R31] RobEntry 0x7fd2c5c232b0 reads init val 0x0
[34m[DBG] [0m[MEM] read addr=0x7fd2c601d2dc len=0x4 val=0xa
[33m[WRN] [0m[0x7fd2c5c232b0] filled ticket 0x7fd2c5c15070
#    x8: 0x000000000000000a <- 0x00007fd2c601d2dc
[34m[DBG] [0m   Logic[1]: newPc <- 0x7fd2c6015134
[34m[DBG] [0m   Scribe: retired 2 ROB entries (now: 0x7fd2c5c231f0:Done)
[34m[DBG] [0m======================================== Update[15/16] 
[34m[DBG] [0m   Fetcher: buffer.size = 192
[34m[DBG] [0m   Logic: instr executed ? yes: 1
[34m[DBG] [0m   Logic: rStation size <- 63, rsVacancy <- 1
[34m[DBG] [0m======================================== Sync [15/16] 
[34m[DBG] [0m======================================== Cycle End

[34m[DBG] [0m======================================== Compute[16/16]
[34m[DBG] [0mPC Offsest: 0x148
[34m[DBG] [0m   Fetcher: at: 0x7fd2c6015148 (buffer 0:192)
[34m[DBG] [0m   Fetcher: front instr = 0x7fd2c6015148, fetched 64, tmpBuffer: 64
[34m[DBG] [0m   Decoder: front instr = 0x7fd2c6015160
[34m[DBG] [0m   Decoder: Logic reservation station is full
0x00007fd2c601512c  b9000be8		str w8, [sp, #8]
[33m[WRN] [0mRobEntry 0x7fd2c5c23250 ready with 0x7fd2c5c13fc0
0x00007fd2c6015134  12800009		mov w9, #0xffffffff
0x00007fd2c6015138  0b090108		add w8, w8, w9
0x00007fd2c601513c  b9000fe8		str w8, [sp, #12]
[33m[WRN] [0mRobEntry 0x7fd2c5c233d0 not ready due to 0x7fd2c5c25b70
0x00007fd2c6015140  17fffff4		b #-0x30 (addr 0x7fd2c6015110)
0x00007fd2c6015110  b9400fe8		ldr w8, [sp, #12]
0x00007fd2c6015114  7100051f		cmp w8, #0x1 (1)
0x00007fd2c6015118  54000041		b.ne #+0x8 (addr 0x7fd2c6015120)
0x00007fd2c601511c  1400000a		b #+0x28 (addr 0x7fd2c6015144)
0x00007fd2c6015144  b9400be0		ldr w0, [sp, #8]
0x00007fd2c6015148  910043ff		add sp, sp, #0x10 (16)
0x00007fd2c601514c  d65f03c0		ret
0x00007fd2c6015150  a9bf7bfd		stp x29, x30, [sp, #-16]!
[33m[WRN] [0mRobEntry 0x7fd2c5c23730 not ready due to 0x7fd2c5c26510
[33m[WRN] [0mRobEntry 0x7fd2c5c23730 not ready due to 0x7fd2c5c26510
0x00007fd2c6015154  910003fd		mov x29, sp
0x00007fd2c6015158  d10043ff		sub sp, sp, #0x10 (16)
0x00007fd2c601515c  52800140		mov w0, #0xa
0x00007fd2c6015160  52800008		mov w8, #0x0
0x00007fd2c6015164  b81fc3a8		stur w8, [x29, #-4]
[33m[WRN] [0mRobEntry 0x7fd2c5c105f0 not ready due to 0x7fd2c5c26a40
0x00007fd2c6015168  97ffffe6		bl #-0x68 (addr 0x7fd2c6015100)
0x00007fd2c6015100  d10043ff		sub sp, sp, #0x10 (16)
0x00007fd2c6015104  320003e8		orr w8, wzr, #0x1
0x00007fd2c6015108  b9000fe0		str w0, [sp, #12]
[33m[WRN] [0mRobEntry 0x7fd2c5c238b0 not ready due to 0x7fd2c5c26050
0x00007fd2c601510c  b9000be8		str w8, [sp, #8]
[33m[WRN] [0mRobEntry 0x7fd2c5c23910 not ready due to 0x7fd2c5c26050
0x00007fd2c6015110  b9400fe8		ldr w8, [sp, #12]
[33m[WRN] [0mRobEntry 0x7fd2c5c23970 not ready due to 0x7fd2c5c26050
0x00007fd2c6015114  7100051f		cmp w8, #0x1 (1)
0x00007fd2c6015118  54000041		b.ne #+0x8 (addr 0x7fd2c6015120)
0x00007fd2c601511c  1400000a		b #+0x28 (addr 0x7fd2c6015144)
0x00007fd2c6015144  b9400be0		ldr w0, [sp, #8]
[33m[WRN] [0mRobEntry 0x7fd2c5c23af0 not ready due to 0x7fd2c5c26050
0x00007fd2c6015148  910043ff		add sp, sp, #0x10 (16)
0x00007fd2c601514c  d65f03c0		ret
0x00007fd2c6015150  a9bf7bfd		stp x29, x30, [sp, #-16]!
[33m[WRN] [0mRobEntry 0x7fd2c5c23c10 not ready due to 0x7fd2c5c27d30
[33m[WRN] [0mRobEntry 0x7fd2c5c23c10 not ready due to 0x7fd2c5c27d30
0x00007fd2c6015154  910003fd		mov x29, sp
0x00007fd2c6015158  d10043ff		sub sp, sp, #0x10 (16)
0x00007fd2c601515c  52800140		mov w0, #0xa
0x00007fd2c6015160  52800008		mov w8, #0x0
0x00007fd2c6015164  b81fc3a8		stur w8, [x29, #-4]
[33m[WRN] [0mRobEntry 0x7fd2c5c23df0 not ready due to 0x7fd2c5c28260
0x00007fd2c6015168  97ffffe6		bl #-0x68 (addr 0x7fd2c6015100)
0x00007fd2c6015100  d10043ff		sub sp, sp, #0x10 (16)
0x00007fd2c6015104  320003e8		orr w8, wzr, #0x1
0x00007fd2c6015108  b9000fe0		str w0, [sp, #12]
[33m[WRN] [0mRobEntry 0x7fd2c5c23f70 not ready due to 0x7fd2c5c28730
0x00007fd2c601510c  b9000be8		str w8, [sp, #8]
[33m[WRN] [0mRobEntry 0x7fd2c5c23fd0 not ready due to 0x7fd2c5c28730
0x00007fd2c6015110  b9400fe8		ldr w8, [sp, #12]
[33m[WRN] [0mRobEntry 0x7fd2c5c24030 not ready due to 0x7fd2c5c28730
0x00007fd2c6015114  7100051f		cmp w8, #0x1 (1)
0x00007fd2c6015118  54000041		b.ne #+0x8 (addr 0x7fd2c6015120)
0x00007fd2c601511c  1400000a		b #+0x28 (addr 0x7fd2c6015144)
0x00007fd2c6015144  b9400be0		ldr w0, [sp, #8]
[33m[WRN] [0mRobEntry 0x7fd2c5c241b0 not ready due to 0x7fd2c5c28730
0x00007fd2c6015148  910043ff		add sp, sp, #0x10 (16)
0x00007fd2c601514c  d65f03c0		ret
0x00007fd2c6015150  a9bf7bfd		stp x29, x30, [sp, #-16]!
[33m[WRN] [0mRobEntry 0x7fd2c5c18190 not ready due to 0x7fd2c5c295c0
[33m[WRN] [0mRobEntry 0x7fd2c5c18190 not ready due to 0x7fd2c5c295c0
0x00007fd2c6015154  910003fd		mov x29, sp
0x00007fd2c6015158  d10043ff		sub sp, sp, #0x10 (16)
0x00007fd2c601515c  52800140		mov w0, #0xa
0x00007fd2c6015160  52800008		mov w8, #0x0
0x00007fd2c6015164  b81fc3a8		stur w8, [x29, #-4]
[33m[WRN] [0mRobEntry 0x7fd2c5c242d0 not ready due to 0x7fd2c5c29b10
0x00007fd2c6015168  97ffffe6		bl #-0x68 (addr 0x7fd2c6015100)
0x00007fd2c6015100  d10043ff		sub sp, sp, #0x10 (16)
0x00007fd2c6015104  320003e8		orr w8, wzr, #0x1
0x00007fd2c6015108  b9000fe0		str w0, [sp, #12]
[33m[WRN] [0mRobEntry 0x7fd2c5c24450 not ready due to 0x7fd2c5c29ff0
0x00007fd2c601510c  b9000be8		str w8, [sp, #8]
[33m[WRN] [0mRobEntry 0x7fd2c5c244b0 not ready due to 0x7fd2c5c29ff0
0x00007fd2c6015110  b9400fe8		ldr w8, [sp, #12]
[33m[WRN] [0mRobEntry 0x7fd2c5c24510 not ready due to 0x7fd2c5c29ff0
0x00007fd2c6015114  7100051f		cmp w8, #0x1 (1)
[33m[WRN] [0m[R8] RobCusor 0x7fd2c5e00680 read-depends on 0x7fd2c5c2a6e0
[33m[WRN] [0m[NZCV] RobCusor 0x7fd2c5e00680 write can go ahead with ticket 0x7fd2c5f02900
[33m[WRN] [0m[NZCV] RobCusor 0x7fd2c5e00680 write can go ahead with ticket 0x7fd2c5f029c8
[33m[WRN] [0m[NZCV] RobCusor 0x7fd2c5e00680 write can go ahead with ticket 0x7fd2c5f02aa0
[33m[WRN] [0m[NZCV] RobCusor 0x7fd2c5e00680 write can go ahead with ticket 0x7fd2c5f02ab8
0x00007fd2c6015118  54000041		b.ne #+0x8 (addr 0x7fd2c6015120)
[33m[WRN] [0m[NZCV] RobCusor 0x7fd2c5e006e0 read-depends on 0x7fd2c5f02ab8
[33m[WRN] [0m----------------------Experimental Execute--------------
[33m[WRN] [0mRobEntry 0x7fd2c5c23250 ready with 0x7fd2c5c13fc0
[33m[WRN] [0mRobEntry 0x7fd2c5c23370 not ready due to 0x7fd2c5c150a0
[33m[WRN] [0mRobEntry 0x7fd2c5c234f0 not ready due to 0x7fd2c5c25e60
[33m[WRN] [0mRobEntry 0x7fd2c5c23550 not ready due to 0x7fd2c5c26158
[33m[WRN] [0mRobEntry 0x7fd2c5c23790 not ready due to 0x7fd2c5c26700
[33m[WRN] [0mRobEntry 0x7fd2c5c237f0 not ready due to 0x7fd2c5c26700
[33m[WRN] [0mRobEntry 0x7fd2c5c106b0 not ready due to 0x7fd2c5c26b80
[33m[WRN] [0mRobEntry 0x7fd2c5c239d0 not ready due to 0x7fd2c5c275e0
[33m[WRN] [0mRobEntry 0x7fd2c5c23a30 not ready due to 0x7fd2c5c278d8
[33m[WRN] [0mRobEntry 0x7fd2c5c23b50 not ready due to 0x7fd2c5c26050
[33m[WRN] [0mRobEntry 0x7fd2c5c23bb0 not ready due to 0x7fd2c5c26050
[33m[WRN] [0mRobEntry 0x7fd2c5c23c70 not ready due to 0x7fd2c5c27f30
[33m[WRN] [0mRobEntry 0x7fd2c5c23cd0 not ready due to 0x7fd2c5c27f30
[33m[WRN] [0mRobEntry 0x7fd2c5c23eb0 not ready due to 0x7fd2c5c28390
[33m[WRN] [0mRobEntry 0x7fd2c5c24090 not ready due to 0x7fd2c5c28e20
[33m[WRN] [0mRobEntry 0x7fd2c5c240f0 not ready due to 0x7fd2c5c29118
[33m[WRN] [0mRobEntry 0x7fd2c5c24210 not ready due to 0x7fd2c5c28730
[33m[WRN] [0mRobEntry 0x7fd2c5c18130 not ready due to 0x7fd2c5c28730
[33m[WRN] [0mRobEntry 0x7fd2c5c181f0 not ready due to 0x7fd2c5c297c0
[33m[WRN] [0mRobEntry 0x7fd2c5c18250 not ready due to 0x7fd2c5c297c0
[33m[WRN] [0mRobEntry 0x7fd2c5c24390 not ready due to 0x7fd2c5c29c50
[33m[WRN] [0mRobEntry 0x7fd2c5e00680 not ready due to 0x7fd2c5c2a6e0
[33m[WRN] [0mRobEntry 0x7fd2c5e006e0 not ready due to 0x7fd2c5f02ab8
0x00007fd2c601512c  b9000be8		str w8, [sp, #8]
[33m[WRN] [0m[R31] RobEntry 0x7fd2c5c23250 reads init val 0x0
[33m[WRN] [0mReal write: 0x7fd2c601d2d8, 0xa
#    w8:         0x0000000a -> 0x00007fd2c601d2d8
[34m[DBG] [0m   Logic[0]: newPc <- 0x7fd2c6015130
0x00007fd2c6015134  12800009		mov w9, #0xffffffff
[33m[WRN] [0m[0x7fd2c5c23310] filled ticket 0x7fd2c5c150a0
#    x9: 0x00000000ffffffff
[34m[DBG] [0m   Logic[1]: newPc <- 0x7fd2c6015138
[34m[DBG] [0m   Scribe: retired 1 ROB entries (now: 0x7fd2c5c23250:Done)
[34m[DBG] [0m======================================== Update[16/17] 
[34m[DBG] [0m   Fetcher: buffer.size = 254
[34m[DBG] [0m   Logic: instr executed ? yes: 3
[34m[DBG] [0m   Logic: rStation size <- 61, rsVacancy <- 3
[34m[DBG] [0m======================================== Sync [16/17] 
[34m[DBG] [0m======================================== Cycle End

[34m[DBG] [0m======================================== Compute[17/17]
[34m[DBG] [0mPC Offsest: 0x104
[34m[DBG] [0m   Fetcher: at: 0x7fd2c6015104 (buffer 0:254)
[34m[DBG] [0m   Fetcher: front instr = 0x7fd2c6015104, fetched 64, tmpBuffer: 64
[34m[DBG] [0m   Decoder: front instr = 0x7fd2c6015168
[34m[DBG] [0m   Decoder: Logic reservation station is full
0x00007fd2c6015138  0b090108		add w8, w8, w9
0x00007fd2c601513c  b9000fe8		str w8, [sp, #12]
[33m[WRN] [0mRobEntry 0x7fd2c5c233d0 not ready due to 0x7fd2c5c25b70
0x00007fd2c6015140  17fffff4		b #-0x30 (addr 0x7fd2c6015110)
0x00007fd2c6015110  b9400fe8		ldr w8, [sp, #12]
0x00007fd2c6015114  7100051f		cmp w8, #0x1 (1)
0x00007fd2c6015118  54000041		b.ne #+0x8 (addr 0x7fd2c6015120)
0x00007fd2c601511c  1400000a		b #+0x28 (addr 0x7fd2c6015144)
0x00007fd2c6015144  b9400be0		ldr w0, [sp, #8]
0x00007fd2c6015148  910043ff		add sp, sp, #0x10 (16)
0x00007fd2c601514c  d65f03c0		ret
0x00007fd2c6015150  a9bf7bfd		stp x29, x30, [sp, #-16]!
[33m[WRN] [0mRobEntry 0x7fd2c5c23730 not ready due to 0x7fd2c5c26510
[33m[WRN] [0mRobEntry 0x7fd2c5c23730 not ready due to 0x7fd2c5c26510
0x00007fd2c6015154  910003fd		mov x29, sp
0x00007fd2c6015158  d10043ff		sub sp, sp, #0x10 (16)
0x00007fd2c601515c  52800140		mov w0, #0xa
0x00007fd2c6015160  52800008		mov w8, #0x0
0x00007fd2c6015164  b81fc3a8		stur w8, [x29, #-4]
[33m[WRN] [0mRobEntry 0x7fd2c5c105f0 not ready due to 0x7fd2c5c26a40
0x00007fd2c6015168  97ffffe6		bl #-0x68 (addr 0x7fd2c6015100)
0x00007fd2c6015100  d10043ff		sub sp, sp, #0x10 (16)
0x00007fd2c6015104  320003e8		orr w8, wzr, #0x1
0x00007fd2c6015108  b9000fe0		str w0, [sp, #12]
[33m[WRN] [0mRobEntry 0x7fd2c5c238b0 not ready due to 0x7fd2c5c26050
0x00007fd2c601510c  b9000be8		str w8, [sp, #8]
[33m[WRN] [0mRobEntry 0x7fd2c5c23910 not ready due to 0x7fd2c5c26050
0x00007fd2c6015110  b9400fe8		ldr w8, [sp, #12]
[33m[WRN] [0mRobEntry 0x7fd2c5c23970 not ready due to 0x7fd2c5c26050
0x00007fd2c6015114  7100051f		cmp w8, #0x1 (1)
0x00007fd2c6015118  54000041		b.ne #+0x8 (addr 0x7fd2c6015120)
0x00007fd2c601511c  1400000a		b #+0x28 (addr 0x7fd2c6015144)
0x00007fd2c6015144  b9400be0		ldr w0, [sp, #8]
[33m[WRN] [0mRobEntry 0x7fd2c5c23af0 not ready due to 0x7fd2c5c26050
0x00007fd2c6015148  910043ff		add sp, sp, #0x10 (16)
0x00007fd2c601514c  d65f03c0		ret
0x00007fd2c6015150  a9bf7bfd		stp x29, x30, [sp, #-16]!
[33m[WRN] [0mRobEntry 0x7fd2c5c23c10 not ready due to 0x7fd2c5c27d30
[33m[WRN] [0mRobEntry 0x7fd2c5c23c10 not ready due to 0x7fd2c5c27d30
0x00007fd2c6015154  910003fd		mov x29, sp
0x00007fd2c6015158  d10043ff		sub sp, sp, #0x10 (16)
0x00007fd2c601515c  52800140		mov w0, #0xa
0x00007fd2c6015160  52800008		mov w8, #0x0
0x00007fd2c6015164  b81fc3a8		stur w8, [x29, #-4]
[33m[WRN] [0mRobEntry 0x7fd2c5c23df0 not ready due to 0x7fd2c5c28260
0x00007fd2c6015168  97ffffe6		bl #-0x68 (addr 0x7fd2c6015100)
0x00007fd2c6015100  d10043ff		sub sp, sp, #0x10 (16)
0x00007fd2c6015104  320003e8		orr w8, wzr, #0x1
0x00007fd2c6015108  b9000fe0		str w0, [sp, #12]
[33m[WRN] [0mRobEntry 0x7fd2c5c23f70 not ready due to 0x7fd2c5c28730
0x00007fd2c601510c  b9000be8		str w8, [sp, #8]
[33m[WRN] [0mRobEntry 0x7fd2c5c23fd0 not ready due to 0x7fd2c5c28730
0x00007fd2c6015110  b9400fe8		ldr w8, [sp, #12]
[33m[WRN] [0mRobEntry 0x7fd2c5c24030 not ready due to 0x7fd2c5c28730
0x00007fd2c6015114  7100051f		cmp w8, #0x1 (1)
0x00007fd2c6015118  54000041		b.ne #+0x8 (addr 0x7fd2c6015120)
0x00007fd2c601511c  1400000a		b #+0x28 (addr 0x7fd2c6015144)
0x00007fd2c6015144  b9400be0		ldr w0, [sp, #8]
[33m[WRN] [0mRobEntry 0x7fd2c5c241b0 not ready due to 0x7fd2c5c28730
0x00007fd2c6015148  910043ff		add sp, sp, #0x10 (16)
0x00007fd2c601514c  d65f03c0		ret
0x00007fd2c6015150  a9bf7bfd		stp x29, x30, [sp, #-16]!
[33m[WRN] [0mRobEntry 0x7fd2c5c18190 not ready due to 0x7fd2c5c295c0
[33m[WRN] [0mRobEntry 0x7fd2c5c18190 not ready due to 0x7fd2c5c295c0
0x00007fd2c6015154  910003fd		mov x29, sp
0x00007fd2c6015158  d10043ff		sub sp, sp, #0x10 (16)
0x00007fd2c601515c  52800140		mov w0, #0xa
0x00007fd2c6015160  52800008		mov w8, #0x0
0x00007fd2c6015164  b81fc3a8		stur w8, [x29, #-4]
[33m[WRN] [0mRobEntry 0x7fd2c5c242d0 not ready due to 0x7fd2c5c29b10
0x00007fd2c6015168  97ffffe6		bl #-0x68 (addr 0x7fd2c6015100)
0x00007fd2c6015100  d10043ff		sub sp, sp, #0x10 (16)
0x00007fd2c6015104  320003e8		orr w8, wzr, #0x1
0x00007fd2c6015108  b9000fe0		str w0, [sp, #12]
[33m[WRN] [0mRobEntry 0x7fd2c5c24450 not ready due to 0x7fd2c5c29ff0
0x00007fd2c601510c  b9000be8		str w8, [sp, #8]
[33m[WRN] [0mRobEntry 0x7fd2c5c244b0 not ready due to 0x7fd2c5c29ff0
0x00007fd2c6015110  b9400fe8		ldr w8, [sp, #12]
[33m[WRN] [0mRobEntry 0x7fd2c5c24510 not ready due to 0x7fd2c5c29ff0
0x00007fd2c6015114  7100051f		cmp w8, #0x1 (1)
0x00007fd2c6015118  54000041		b.ne #+0x8 (addr 0x7fd2c6015120)
0x00007fd2c601511c  1400000a		b #+0x28 (addr 0x7fd2c6015144)
[33m[WRN] [0m----------------------Experimental Execute--------------
[33m[WRN] [0mRobEntry 0x7fd2c5c23370 ready with 0x7fd2c5c150a0
[33m[WRN] [0mRobEntry 0x7fd2c5c23370 ready with 0x7fd2c5c15070
[33m[WRN] [0mRobEntry 0x7fd2c5c234f0 not ready due to 0x7fd2c5c25e60
[33m[WRN] [0mRobEntry 0x7fd2c5c23550 not ready due to 0x7fd2c5c26158
[33m[WRN] [0mRobEntry 0x7fd2c5c23790 not ready due to 0x7fd2c5c26700
[33m[WRN] [0mRobEntry 0x7fd2c5c237f0 not ready due to 0x7fd2c5c26700
[33m[WRN] [0mRobEntry 0x7fd2c5c106b0 not ready due to 0x7fd2c5c26b80
[33m[WRN] [0mRobEntry 0x7fd2c5c239d0 not ready due to 0x7fd2c5c275e0
[33m[WRN] [0mRobEntry 0x7fd2c5c23a30 not ready due to 0x7fd2c5c278d8
[33m[WRN] [0mRobEntry 0x7fd2c5c23b50 not ready due to 0x7fd2c5c26050
[33m[WRN] [0mRobEntry 0x7fd2c5c23bb0 not ready due to 0x7fd2c5c26050
[33m[WRN] [0mRobEntry 0x7fd2c5c23c70 not ready due to 0x7fd2c5c27f30
[33m[WRN] [0mRobEntry 0x7fd2c5c23cd0 not ready due to 0x7fd2c5c27f30
[33m[WRN] [0mRobEntry 0x7fd2c5c23eb0 not ready due to 0x7fd2c5c28390
[33m[WRN] [0mRobEntry 0x7fd2c5c24090 not ready due to 0x7fd2c5c28e20
[33m[WRN] [0mRobEntry 0x7fd2c5c240f0 not ready due to 0x7fd2c5c29118
[33m[WRN] [0mRobEntry 0x7fd2c5c24210 not ready due to 0x7fd2c5c28730
[33m[WRN] [0mRobEntry 0x7fd2c5c18130 not ready due to 0x7fd2c5c28730
[33m[WRN] [0mRobEntry 0x7fd2c5c181f0 not ready due to 0x7fd2c5c297c0
[33m[WRN] [0mRobEntry 0x7fd2c5c18250 not ready due to 0x7fd2c5c297c0
[33m[WRN] [0mRobEntry 0x7fd2c5c24390 not ready due to 0x7fd2c5c29c50
[33m[WRN] [0mRobEntry 0x7fd2c5e00680 not ready due to 0x7fd2c5c2a6e0
[33m[WRN] [0mRobEntry 0x7fd2c5e006e0 not ready due to 0x7fd2c5f02ab8
0x00007fd2c6015138  0b090108		add w8, w8, w9
[33m[WRN] [0m[0x7fd2c5c23370] filled ticket 0x7fd2c5c25b70
#    x8: 0x0000000000000009
[34m[DBG] [0m   Logic[0]: newPc <- 0x7fd2c601513c
0x00007fd2c6015140  17fffff4		b #-0x30 (addr 0x7fd2c6015110)
#    pc: 0x7fd2c6015110 (by 0x7fd2c5c23430)
[33m[WRN] [0m[0x7fd2c5c23430] filled ticket 0x7fd2c5c25db0
[34m[DBG] [0m   Logic[1]: newPc <- 0x7fd2c6015110
[34m[DBG] [0m   Scribe: retired 3 ROB entries (now: 0x7fd2c5c23370:Done)
[34m[DBG] [0m======================================== Update[17/20] 
[34m[DBG] [0m   Fetcher: buffer.size = 317
[34m[DBG] [0m   Logic: Branch prediction 0x7fd2c6015140 was correct: 2
[34m[DBG] [0m   Logic: Correct branch: 0x7fd2c5c23430 succ 0x7fd2c5c23490
[34m[DBG] [0mAdding new BP record for 0x7fd2c6015140 -> 0x7fd2c6015110
[34m[DBG] [0m   Logic: 0x7fd2c5c23430 affirmed speculative RobEntry 0x7fd2c5c23490
[34m[DBG] [0m   Logic: 0x7fd2c5c23430 affirmed speculative RobEntry 0x7fd2c5c234f0
[34m[DBG] [0m   Logic: 0x7fd2c5c23430 affirmed speculative RobEntry 0x7fd2c5c23550
[34m[DBG] [0m   Logic: instr executed ? yes: 1
[34m[DBG] [0m   Logic: rStation size <- 63, rsVacancy <- 1
[34m[DBG] [0m======================================== Sync [17/20] 
[34m[DBG] [0m======================================== Cycle End

[34m[DBG] [0m======================================== Compute[18/20]
[34m[DBG] [0mPC Offsest: 0x150
[34m[DBG] [0m   Fetcher: at: 0x7fd2c6015150 (buffer 0:317)
[34m[DBG] [0m   Fetcher: front instr = 0x7fd2c6015150, fetched 64, tmpBuffer: 64
[34m[DBG] [0m   Decoder: front instr = 0x7fd2c6015100
[34m[DBG] [0m   Decoder: Logic reservation station is full
0x00007fd2c601513c  b9000fe8		str w8, [sp, #12]
[33m[WRN] [0mRobEntry 0x7fd2c5c233d0 ready with 0x7fd2c5c25b70
0x00007fd2c6015110  b9400fe8		ldr w8, [sp, #12]
0x00007fd2c6015114  7100051f		cmp w8, #0x1 (1)
0x00007fd2c6015118  54000041		b.ne #+0x8 (addr 0x7fd2c6015120)
0x00007fd2c601511c  1400000a		b #+0x28 (addr 0x7fd2c6015144)
0x00007fd2c6015144  b9400be0		ldr w0, [sp, #8]
0x00007fd2c6015148  910043ff		add sp, sp, #0x10 (16)
0x00007fd2c601514c  d65f03c0		ret
0x00007fd2c6015150  a9bf7bfd		stp x29, x30, [sp, #-16]!
[33m[WRN] [0mRobEntry 0x7fd2c5c23730 not ready due to 0x7fd2c5c26510
[33m[WRN] [0mRobEntry 0x7fd2c5c23730 not ready due to 0x7fd2c5c26510
0x00007fd2c6015154  910003fd		mov x29, sp
0x00007fd2c6015158  d10043ff		sub sp, sp, #0x10 (16)
0x00007fd2c601515c  52800140		mov w0, #0xa
0x00007fd2c6015160  52800008		mov w8, #0x0
0x00007fd2c6015164  b81fc3a8		stur w8, [x29, #-4]
[33m[WRN] [0mRobEntry 0x7fd2c5c105f0 not ready due to 0x7fd2c5c26a40
0x00007fd2c6015168  97ffffe6		bl #-0x68 (addr 0x7fd2c6015100)
0x00007fd2c6015100  d10043ff		sub sp, sp, #0x10 (16)
0x00007fd2c6015104  320003e8		orr w8, wzr, #0x1
0x00007fd2c6015108  b9000fe0		str w0, [sp, #12]
[33m[WRN] [0mRobEntry 0x7fd2c5c238b0 not ready due to 0x7fd2c5c26050
0x00007fd2c601510c  b9000be8		str w8, [sp, #8]
[33m[WRN] [0mRobEntry 0x7fd2c5c23910 not ready due to 0x7fd2c5c26050
0x00007fd2c6015110  b9400fe8		ldr w8, [sp, #12]
[33m[WRN] [0mRobEntry 0x7fd2c5c23970 not ready due to 0x7fd2c5c26050
0x00007fd2c6015114  7100051f		cmp w8, #0x1 (1)
0x00007fd2c6015118  54000041		b.ne #+0x8 (addr 0x7fd2c6015120)
0x00007fd2c601511c  1400000a		b #+0x28 (addr 0x7fd2c6015144)
0x00007fd2c6015144  b9400be0		ldr w0, [sp, #8]
[33m[WRN] [0mRobEntry 0x7fd2c5c23af0 not ready due to 0x7fd2c5c26050
0x00007fd2c6015148  910043ff		add sp, sp, #0x10 (16)
0x00007fd2c601514c  d65f03c0		ret
0x00007fd2c6015150  a9bf7bfd		stp x29, x30, [sp, #-16]!
[33m[WRN] [0mRobEntry 0x7fd2c5c23c10 not ready due to 0x7fd2c5c27d30
[33m[WRN] [0mRobEntry 0x7fd2c5c23c10 not ready due to 0x7fd2c5c27d30
0x00007fd2c6015154  910003fd		mov x29, sp
0x00007fd2c6015158  d10043ff		sub sp, sp, #0x10 (16)
0x00007fd2c601515c  52800140		mov w0, #0xa
0x00007fd2c6015160  52800008		mov w8, #0x0
0x00007fd2c6015164  b81fc3a8		stur w8, [x29, #-4]
[33m[WRN] [0mRobEntry 0x7fd2c5c23df0 not ready due to 0x7fd2c5c28260
0x00007fd2c6015168  97ffffe6		bl #-0x68 (addr 0x7fd2c6015100)
0x00007fd2c6015100  d10043ff		sub sp, sp, #0x10 (16)
0x00007fd2c6015104  320003e8		orr w8, wzr, #0x1
0x00007fd2c6015108  b9000fe0		str w0, [sp, #12]
[33m[WRN] [0mRobEntry 0x7fd2c5c23f70 not ready due to 0x7fd2c5c28730
0x00007fd2c601510c  b9000be8		str w8, [sp, #8]
[33m[WRN] [0mRobEntry 0x7fd2c5c23fd0 not ready due to 0x7fd2c5c28730
0x00007fd2c6015110  b9400fe8		ldr w8, [sp, #12]
[33m[WRN] [0mRobEntry 0x7fd2c5c24030 not ready due to 0x7fd2c5c28730
0x00007fd2c6015114  7100051f		cmp w8, #0x1 (1)
0x00007fd2c6015118  54000041		b.ne #+0x8 (addr 0x7fd2c6015120)
0x00007fd2c601511c  1400000a		b #+0x28 (addr 0x7fd2c6015144)
0x00007fd2c6015144  b9400be0		ldr w0, [sp, #8]
[33m[WRN] [0mRobEntry 0x7fd2c5c241b0 not ready due to 0x7fd2c5c28730
0x00007fd2c6015148  910043ff		add sp, sp, #0x10 (16)
0x00007fd2c601514c  d65f03c0		ret
0x00007fd2c6015150  a9bf7bfd		stp x29, x30, [sp, #-16]!
[33m[WRN] [0mRobEntry 0x7fd2c5c18190 not ready due to 0x7fd2c5c295c0
[33m[WRN] [0mRobEntry 0x7fd2c5c18190 not ready due to 0x7fd2c5c295c0
0x00007fd2c6015154  910003fd		mov x29, sp
0x00007fd2c6015158  d10043ff		sub sp, sp, #0x10 (16)
0x00007fd2c601515c  52800140		mov w0, #0xa
0x00007fd2c6015160  52800008		mov w8, #0x0
0x00007fd2c6015164  b81fc3a8		stur w8, [x29, #-4]
[33m[WRN] [0mRobEntry 0x7fd2c5c242d0 not ready due to 0x7fd2c5c29b10
0x00007fd2c6015168  97ffffe6		bl #-0x68 (addr 0x7fd2c6015100)
0x00007fd2c6015100  d10043ff		sub sp, sp, #0x10 (16)
0x00007fd2c6015104  320003e8		orr w8, wzr, #0x1
0x00007fd2c6015108  b9000fe0		str w0, [sp, #12]
[33m[WRN] [0mRobEntry 0x7fd2c5c24450 not ready due to 0x7fd2c5c29ff0
0x00007fd2c601510c  b9000be8		str w8, [sp, #8]
[33m[WRN] [0mRobEntry 0x7fd2c5c244b0 not ready due to 0x7fd2c5c29ff0
0x00007fd2c6015110  b9400fe8		ldr w8, [sp, #12]
[33m[WRN] [0mRobEntry 0x7fd2c5c24510 not ready due to 0x7fd2c5c29ff0
0x00007fd2c6015114  7100051f		cmp w8, #0x1 (1)
0x00007fd2c6015118  54000041		b.ne #+0x8 (addr 0x7fd2c6015120)
0x00007fd2c601511c  1400000a		b #+0x28 (addr 0x7fd2c6015144)
0x00007fd2c6015144  b9400be0		ldr w0, [sp, #8]
[33m[WRN] [0m[R31] RobCusor 0x7fd2c5f04360 read-depends on 0x7fd2c5c29ff0
[33m[WRN] [0mRobEntry 0x7fd2c5f04360 not ready due to 0x7fd2c5c29ff0
[33m[WRN] [0m[R0] RobCusor 0x7fd2c5f04360 write can go ahead with ticket 0x7fd2c5f07da0
0x00007fd2c6015148  910043ff		add sp, sp, #0x10 (16)
[33m[WRN] [0m[R31] RobCusor 0x7fd2c5f043c0 read-depends on 0x7fd2c5c29ff0
[33m[WRN] [0m[R31] RobCusor 0x7fd2c5f043c0 write can go ahead with ticket 0x7fd2c5f07ee0
0x00007fd2c601514c  d65f03c0		ret
[33m[WRN] [0m[R30] RobCusor 0x7fd2c5f04420 read-depends on 0x7fd2c5c29ff0
[33m[WRN] [0m----------------------Experimental Execute--------------
[33m[WRN] [0mRobEntry 0x7fd2c5c233d0 ready with 0x7fd2c5c25b70
[33m[WRN] [0mRobEntry 0x7fd2c5c234f0 not ready due to 0x7fd2c5c25e60
[33m[WRN] [0mRobEntry 0x7fd2c5c23550 not ready due to 0x7fd2c5c26158
[33m[WRN] [0mRobEntry 0x7fd2c5c23790 not ready due to 0x7fd2c5c26700
[33m[WRN] [0mRobEntry 0x7fd2c5c237f0 not ready due to 0x7fd2c5c26700
[33m[WRN] [0mRobEntry 0x7fd2c5c106b0 not ready due to 0x7fd2c5c26b80
[33m[WRN] [0mRobEntry 0x7fd2c5c239d0 not ready due to 0x7fd2c5c275e0
[33m[WRN] [0mRobEntry 0x7fd2c5c23a30 not ready due to 0x7fd2c5c278d8
[33m[WRN] [0mRobEntry 0x7fd2c5c23b50 not ready due to 0x7fd2c5c26050
[33m[WRN] [0mRobEntry 0x7fd2c5c23bb0 not ready due to 0x7fd2c5c26050
[33m[WRN] [0mRobEntry 0x7fd2c5c23c70 not ready due to 0x7fd2c5c27f30
[33m[WRN] [0mRobEntry 0x7fd2c5c23cd0 not ready due to 0x7fd2c5c27f30
[33m[WRN] [0mRobEntry 0x7fd2c5c23eb0 not ready due to 0x7fd2c5c28390
[33m[WRN] [0mRobEntry 0x7fd2c5c24090 not ready due to 0x7fd2c5c28e20
[33m[WRN] [0mRobEntry 0x7fd2c5c240f0 not ready due to 0x7fd2c5c29118
[33m[WRN] [0mRobEntry 0x7fd2c5c24210 not ready due to 0x7fd2c5c28730
[33m[WRN] [0mRobEntry 0x7fd2c5c18130 not ready due to 0x7fd2c5c28730
[33m[WRN] [0mRobEntry 0x7fd2c5c181f0 not ready due to 0x7fd2c5c297c0
[33m[WRN] [0mRobEntry 0x7fd2c5c18250 not ready due to 0x7fd2c5c297c0
[33m[WRN] [0mRobEntry 0x7fd2c5c24390 not ready due to 0x7fd2c5c29c50
[33m[WRN] [0mRobEntry 0x7fd2c5e00680 not ready due to 0x7fd2c5c2a6e0
[33m[WRN] [0mRobEntry 0x7fd2c5e006e0 not ready due to 0x7fd2c5f02ab8
[33m[WRN] [0mRobEntry 0x7fd2c5f043c0 not ready due to 0x7fd2c5c29ff0
[33m[WRN] [0mRobEntry 0x7fd2c5f04420 not ready due to 0x7fd2c5c29ff0
0x00007fd2c601513c  b9000fe8		str w8, [sp, #12]
[33m[WRN] [0m[R31] RobEntry 0x7fd2c5c233d0 reads init val 0x0
[33m[WRN] [0mReal write: 0x7fd2c601d2dc, 0x9
#    w8:         0x00000009 -> 0x00007fd2c601d2dc
[34m[DBG] [0m   Logic[0]: newPc <- 0x7fd2c6015140
0x00007fd2c601511c  1400000a		b #+0x28 (addr 0x7fd2c6015144)
#    pc: 0x7fd2c6015144 (by 0x7fd2c5c235b0)
[33m[WRN] [0mSpeculative write by 0x7fd2c5c235b0 val=0x7fd2c6015144
[33m[WRN] [0m[0x7fd2c5c235b0] filled ticket 0x7fd2c5c26330
[34m[DBG] [0m   Logic[1]: speculation no set pc
[34m[DBG] [0m   Scribe: retired 1 ROB entries (now: 0x7fd2c5c233d0:Done)
[34m[DBG] [0m======================================== Update[18/21] 
[34m[DBG] [0m   Fetcher: buffer.size = 378
[34m[DBG] [0m   Logic: instr executed ? yes: 2
[34m[DBG] [0m   Logic: rStation size <- 62, rsVacancy <- 2
[34m[DBG] [0m======================================== Sync [18/21] 
[34m[DBG] [0m======================================== Cycle End

[34m[DBG] [0m======================================== Compute[19/21]
[34m[DBG] [0mPC Offsest: 0x10c
[34m[DBG] [0m   Fetcher: at: 0x7fd2c601510c (buffer 0:378)
[34m[DBG] [0m   Fetcher: front instr = 0x7fd2c601510c, fetched 64, tmpBuffer: 64
[34m[DBG] [0m   Decoder: front instr = 0x7fd2c601510c
[34m[DBG] [0m   Decoder: Logic reservation station is full
0x00007fd2c6015110  b9400fe8		ldr w8, [sp, #12]
0x00007fd2c6015114  7100051f		cmp w8, #0x1 (1)
0x00007fd2c6015118  54000041		b.ne #+0x8 (addr 0x7fd2c6015120)
0x00007fd2c6015144  b9400be0		ldr w0, [sp, #8]
0x00007fd2c6015148  910043ff		add sp, sp, #0x10 (16)
0x00007fd2c601514c  d65f03c0		ret
0x00007fd2c6015150  a9bf7bfd		stp x29, x30, [sp, #-16]!
[33m[WRN] [0mRobEntry 0x7fd2c5c23730 not ready due to 0x7fd2c5c26510
[33m[WRN] [0mRobEntry 0x7fd2c5c23730 not ready due to 0x7fd2c5c26510
0x00007fd2c6015154  910003fd		mov x29, sp
0x00007fd2c6015158  d10043ff		sub sp, sp, #0x10 (16)
0x00007fd2c601515c  52800140		mov w0, #0xa
0x00007fd2c6015160  52800008		mov w8, #0x0
0x00007fd2c6015164  b81fc3a8		stur w8, [x29, #-4]
[33m[WRN] [0mRobEntry 0x7fd2c5c105f0 not ready due to 0x7fd2c5c26a40
0x00007fd2c6015168  97ffffe6		bl #-0x68 (addr 0x7fd2c6015100)
0x00007fd2c6015100  d10043ff		sub sp, sp, #0x10 (16)
0x00007fd2c6015104  320003e8		orr w8, wzr, #0x1
0x00007fd2c6015108  b9000fe0		str w0, [sp, #12]
[33m[WRN] [0mRobEntry 0x7fd2c5c238b0 not ready due to 0x7fd2c5c26050
0x00007fd2c601510c  b9000be8		str w8, [sp, #8]
[33m[WRN] [0mRobEntry 0x7fd2c5c23910 not ready due to 0x7fd2c5c26050
0x00007fd2c6015110  b9400fe8		ldr w8, [sp, #12]
[33m[WRN] [0mRobEntry 0x7fd2c5c23970 not ready due to 0x7fd2c5c26050
0x00007fd2c6015114  7100051f		cmp w8, #0x1 (1)
0x00007fd2c6015118  54000041		b.ne #+0x8 (addr 0x7fd2c6015120)
0x00007fd2c601511c  1400000a		b #+0x28 (addr 0x7fd2c6015144)
0x00007fd2c6015144  b9400be0		ldr w0, [sp, #8]
[33m[WRN] [0mRobEntry 0x7fd2c5c23af0 not ready due to 0x7fd2c5c26050
0x00007fd2c6015148  910043ff		add sp, sp, #0x10 (16)
0x00007fd2c601514c  d65f03c0		ret
0x00007fd2c6015150  a9bf7bfd		stp x29, x30, [sp, #-16]!
[33m[WRN] [0mRobEntry 0x7fd2c5c23c10 not ready due to 0x7fd2c5c27d30
[33m[WRN] [0mRobEntry 0x7fd2c5c23c10 not ready due to 0x7fd2c5c27d30
0x00007fd2c6015154  910003fd		mov x29, sp
0x00007fd2c6015158  d10043ff		sub sp, sp, #0x10 (16)
0x00007fd2c601515c  52800140		mov w0, #0xa
0x00007fd2c6015160  52800008		mov w8, #0x0
0x00007fd2c6015164  b81fc3a8		stur w8, [x29, #-4]
[33m[WRN] [0mRobEntry 0x7fd2c5c23df0 not ready due to 0x7fd2c5c28260
0x00007fd2c6015168  97ffffe6		bl #-0x68 (addr 0x7fd2c6015100)
0x00007fd2c6015100  d10043ff		sub sp, sp, #0x10 (16)
0x00007fd2c6015104  320003e8		orr w8, wzr, #0x1
0x00007fd2c6015108  b9000fe0		str w0, [sp, #12]
[33m[WRN] [0mRobEntry 0x7fd2c5c23f70 not ready due to 0x7fd2c5c28730
0x00007fd2c601510c  b9000be8		str w8, [sp, #8]
[33m[WRN] [0mRobEntry 0x7fd2c5c23fd0 not ready due to 0x7fd2c5c28730
0x00007fd2c6015110  b9400fe8		ldr w8, [sp, #12]
[33m[WRN] [0mRobEntry 0x7fd2c5c24030 not ready due to 0x7fd2c5c28730
0x00007fd2c6015114  7100051f		cmp w8, #0x1 (1)
0x00007fd2c6015118  54000041		b.ne #+0x8 (addr 0x7fd2c6015120)
0x00007fd2c601511c  1400000a		b #+0x28 (addr 0x7fd2c6015144)
0x00007fd2c6015144  b9400be0		ldr w0, [sp, #8]
[33m[WRN] [0mRobEntry 0x7fd2c5c241b0 not ready due to 0x7fd2c5c28730
0x00007fd2c6015148  910043ff		add sp, sp, #0x10 (16)
0x00007fd2c601514c  d65f03c0		ret
0x00007fd2c6015150  a9bf7bfd		stp x29, x30, [sp, #-16]!
[33m[WRN] [0mRobEntry 0x7fd2c5c18190 not ready due to 0x7fd2c5c295c0
[33m[WRN] [0mRobEntry 0x7fd2c5c18190 not ready due to 0x7fd2c5c295c0
0x00007fd2c6015154  910003fd		mov x29, sp
0x00007fd2c6015158  d10043ff		sub sp, sp, #0x10 (16)
0x00007fd2c601515c  52800140		mov w0, #0xa
0x00007fd2c6015160  52800008		mov w8, #0x0
0x00007fd2c6015164  b81fc3a8		stur w8, [x29, #-4]
[33m[WRN] [0mRobEntry 0x7fd2c5c242d0 not ready due to 0x7fd2c5c29b10
0x00007fd2c6015168  97ffffe6		bl #-0x68 (addr 0x7fd2c6015100)
0x00007fd2c6015100  d10043ff		sub sp, sp, #0x10 (16)
0x00007fd2c6015104  320003e8		orr w8, wzr, #0x1
0x00007fd2c6015108  b9000fe0		str w0, [sp, #12]
[33m[WRN] [0mRobEntry 0x7fd2c5c24450 not ready due to 0x7fd2c5c29ff0
0x00007fd2c601510c  b9000be8		str w8, [sp, #8]
[33m[WRN] [0mRobEntry 0x7fd2c5c244b0 not ready due to 0x7fd2c5c29ff0
0x00007fd2c6015110  b9400fe8		ldr w8, [sp, #12]
[33m[WRN] [0mRobEntry 0x7fd2c5c24510 not ready due to 0x7fd2c5c29ff0
0x00007fd2c6015114  7100051f		cmp w8, #0x1 (1)
0x00007fd2c6015118  54000041		b.ne #+0x8 (addr 0x7fd2c6015120)
0x00007fd2c601511c  1400000a		b #+0x28 (addr 0x7fd2c6015144)
0x00007fd2c6015144  b9400be0		ldr w0, [sp, #8]
[33m[WRN] [0mRobEntry 0x7fd2c5f04360 not ready due to 0x7fd2c5c29ff0
0x00007fd2c6015148  910043ff		add sp, sp, #0x10 (16)
0x00007fd2c601514c  d65f03c0		ret
0x00007fd2c6015150  a9bf7bfd		stp x29, x30, [sp, #-16]!
[33m[WRN] [0m[R31] RobCusor 0x7fd2c5f07140 read-depends on 0x7fd2c5f07ee0
[33m[WRN] [0m[R31] RobCusor 0x7fd2c5f07140 write can go ahead with ticket 0x7fd2c5f0a4a0
[33m[WRN] [0m[R29] RobCusor 0x7fd2c5f07140 read-depends on 0x7fd2c5c29b10
[33m[WRN] [0mRobEntry 0x7fd2c5f07140 not ready due to 0x7fd2c5f07ee0
[33m[WRN] [0m[R30] RobCusor 0x7fd2c5f07140 read-depends on 0x7fd2c5c29ff0
[33m[WRN] [0mRobEntry 0x7fd2c5f07140 not ready due to 0x7fd2c5f07ee0
[33m[WRN] [0m----------------------Experimental Execute--------------
[33m[WRN] [0mRobEntry 0x7fd2c5c234f0 not ready due to 0x7fd2c5c25e60
[33m[WRN] [0mRobEntry 0x7fd2c5c23550 not ready due to 0x7fd2c5c26158
[33m[WRN] [0mRobEntry 0x7fd2c5c23790 not ready due to 0x7fd2c5c26700
[33m[WRN] [0mRobEntry 0x7fd2c5c237f0 not ready due to 0x7fd2c5c26700
[33m[WRN] [0mRobEntry 0x7fd2c5c106b0 not ready due to 0x7fd2c5c26b80
[33m[WRN] [0mRobEntry 0x7fd2c5c239d0 not ready due to 0x7fd2c5c275e0
[33m[WRN] [0mRobEntry 0x7fd2c5c23a30 not ready due to 0x7fd2c5c278d8
[33m[WRN] [0mRobEntry 0x7fd2c5c23b50 not ready due to 0x7fd2c5c26050
[33m[WRN] [0mRobEntry 0x7fd2c5c23bb0 not ready due to 0x7fd2c5c26050
[33m[WRN] [0mRobEntry 0x7fd2c5c23c70 not ready due to 0x7fd2c5c27f30
[33m[WRN] [0mRobEntry 0x7fd2c5c23cd0 not ready due to 0x7fd2c5c27f30
[33m[WRN] [0mRobEntry 0x7fd2c5c23eb0 not ready due to 0x7fd2c5c28390
[33m[WRN] [0mRobEntry 0x7fd2c5c24090 not ready due to 0x7fd2c5c28e20
[33m[WRN] [0mRobEntry 0x7fd2c5c240f0 not ready due to 0x7fd2c5c29118
[33m[WRN] [0mRobEntry 0x7fd2c5c24210 not ready due to 0x7fd2c5c28730
[33m[WRN] [0mRobEntry 0x7fd2c5c18130 not ready due to 0x7fd2c5c28730
[33m[WRN] [0mRobEntry 0x7fd2c5c181f0 not ready due to 0x7fd2c5c297c0
[33m[WRN] [0mRobEntry 0x7fd2c5c18250 not ready due to 0x7fd2c5c297c0
[33m[WRN] [0mRobEntry 0x7fd2c5c24390 not ready due to 0x7fd2c5c29c50
[33m[WRN] [0mRobEntry 0x7fd2c5e00680 not ready due to 0x7fd2c5c2a6e0
[33m[WRN] [0mRobEntry 0x7fd2c5e006e0 not ready due to 0x7fd2c5f02ab8
[33m[WRN] [0mRobEntry 0x7fd2c5f043c0 not ready due to 0x7fd2c5c29ff0
[33m[WRN] [0mRobEntry 0x7fd2c5f04420 not ready due to 0x7fd2c5c29ff0
0x00007fd2c6015110  b9400fe8		ldr w8, [sp, #12]
[33m[WRN] [0m[R31] RobEntry 0x7fd2c5c23490 reads init val 0x0
[34m[DBG] [0m[MEM] read addr=0x7fd2c601d2dc len=0x4 val=0x9
[33m[WRN] [0m[0x7fd2c5c23490] filled ticket 0x7fd2c5c25e60
#    x8: 0x0000000000000009 <- 0x00007fd2c601d2dc
[34m[DBG] [0m   Logic[0]: newPc <- 0x7fd2c6015114
0x00007fd2c6015144  b9400be0		ldr w0, [sp, #8]
[33m[WRN] [0m[R31] RobEntry 0x7fd2c5c23610 reads init val 0x0
[34m[DBG] [0m[MEM] read addr=0x7fd2c601d2d8 len=0x4 val=0xa
[33m[WRN] [0m[R0] Speculative write by 0x7fd2c5c23610 val=0xa
[33m[WRN] [0m[0x7fd2c5c23610] filled ticket 0x7fd2c5c263e0
#    x0: 0x000000000000000a <- 0x00007fd2c601d2d8
[34m[DBG] [0m   Logic[1]: speculation no set pc
[34m[DBG] [0m   Scribe: retired 2 ROB entries (now: 0x7fd2c5c23490:Done)
[34m[DBG] [0m======================================== Update[19/23] 
[34m[DBG] [0m   Fetcher: buffer.size = 441
[34m[DBG] [0m   Logic: instr executed ? yes: 1
[34m[DBG] [0m   Logic: rStation size <- 63, rsVacancy <- 1
[34m[DBG] [0m======================================== Sync [19/23] 
[34m[DBG] [0m======================================== Cycle End

[34m[DBG] [0m======================================== Compute[20/23]
[34m[DBG] [0mPC Offsest: 0x158
[34m[DBG] [0m   Fetcher: at: 0x7fd2c6015158 (buffer 0:441)
[34m[DBG] [0m   Fetcher: front instr = 0x7fd2c6015158, fetched 64, tmpBuffer: 64
[34m[DBG] [0m   Decoder: front instr = 0x7fd2c6015110
[34m[DBG] [0m   Decoder: Logic reservation station is full
0x00007fd2c6015114  7100051f		cmp w8, #0x1 (1)
0x00007fd2c6015118  54000041		b.ne #+0x8 (addr 0x7fd2c6015120)
0x00007fd2c6015148  910043ff		add sp, sp, #0x10 (16)
0x00007fd2c601514c  d65f03c0		ret
0x00007fd2c6015150  a9bf7bfd		stp x29, x30, [sp, #-16]!
[33m[WRN] [0mRobEntry 0x7fd2c5c23730 not ready due to 0x7fd2c5c26510
[33m[WRN] [0mRobEntry 0x7fd2c5c23730 not ready due to 0x7fd2c5c26510
0x00007fd2c6015154  910003fd		mov x29, sp
0x00007fd2c6015158  d10043ff		sub sp, sp, #0x10 (16)
0x00007fd2c601515c  52800140		mov w0, #0xa
0x00007fd2c6015160  52800008		mov w8, #0x0
0x00007fd2c6015164  b81fc3a8		stur w8, [x29, #-4]
[33m[WRN] [0mRobEntry 0x7fd2c5c105f0 not ready due to 0x7fd2c5c26a40
0x00007fd2c6015168  97ffffe6		bl #-0x68 (addr 0x7fd2c6015100)
0x00007fd2c6015100  d10043ff		sub sp, sp, #0x10 (16)
0x00007fd2c6015104  320003e8		orr w8, wzr, #0x1
0x00007fd2c6015108  b9000fe0		str w0, [sp, #12]
[33m[WRN] [0mRobEntry 0x7fd2c5c238b0 not ready due to 0x7fd2c5c26050
0x00007fd2c601510c  b9000be8		str w8, [sp, #8]
[33m[WRN] [0mRobEntry 0x7fd2c5c23910 not ready due to 0x7fd2c5c26050
0x00007fd2c6015110  b9400fe8		ldr w8, [sp, #12]
[33m[WRN] [0mRobEntry 0x7fd2c5c23970 not ready due to 0x7fd2c5c26050
0x00007fd2c6015114  7100051f		cmp w8, #0x1 (1)
0x00007fd2c6015118  54000041		b.ne #+0x8 (addr 0x7fd2c6015120)
0x00007fd2c601511c  1400000a		b #+0x28 (addr 0x7fd2c6015144)
0x00007fd2c6015144  b9400be0		ldr w0, [sp, #8]
[33m[WRN] [0mRobEntry 0x7fd2c5c23af0 not ready due to 0x7fd2c5c26050
0x00007fd2c6015148  910043ff		add sp, sp, #0x10 (16)
0x00007fd2c601514c  d65f03c0		ret
0x00007fd2c6015150  a9bf7bfd		stp x29, x30, [sp, #-16]!
[33m[WRN] [0mRobEntry 0x7fd2c5c23c10 not ready due to 0x7fd2c5c27d30
[33m[WRN] [0mRobEntry 0x7fd2c5c23c10 not ready due to 0x7fd2c5c27d30
0x00007fd2c6015154  910003fd		mov x29, sp
0x00007fd2c6015158  d10043ff		sub sp, sp, #0x10 (16)
0x00007fd2c601515c  52800140		mov w0, #0xa
0x00007fd2c6015160  52800008		mov w8, #0x0
0x00007fd2c6015164  b81fc3a8		stur w8, [x29, #-4]
[33m[WRN] [0mRobEntry 0x7fd2c5c23df0 not ready due to 0x7fd2c5c28260
0x00007fd2c6015168  97ffffe6		bl #-0x68 (addr 0x7fd2c6015100)
0x00007fd2c6015100  d10043ff		sub sp, sp, #0x10 (16)
0x00007fd2c6015104  320003e8		orr w8, wzr, #0x1
0x00007fd2c6015108  b9000fe0		str w0, [sp, #12]
[33m[WRN] [0mRobEntry 0x7fd2c5c23f70 not ready due to 0x7fd2c5c28730
0x00007fd2c601510c  b9000be8		str w8, [sp, #8]
[33m[WRN] [0mRobEntry 0x7fd2c5c23fd0 not ready due to 0x7fd2c5c28730
0x00007fd2c6015110  b9400fe8		ldr w8, [sp, #12]
[33m[WRN] [0mRobEntry 0x7fd2c5c24030 not ready due to 0x7fd2c5c28730
0x00007fd2c6015114  7100051f		cmp w8, #0x1 (1)
0x00007fd2c6015118  54000041		b.ne #+0x8 (addr 0x7fd2c6015120)
0x00007fd2c601511c  1400000a		b #+0x28 (addr 0x7fd2c6015144)
0x00007fd2c6015144  b9400be0		ldr w0, [sp, #8]
[33m[WRN] [0mRobEntry 0x7fd2c5c241b0 not ready due to 0x7fd2c5c28730
0x00007fd2c6015148  910043ff		add sp, sp, #0x10 (16)
0x00007fd2c601514c  d65f03c0		ret
0x00007fd2c6015150  a9bf7bfd		stp x29, x30, [sp, #-16]!
[33m[WRN] [0mRobEntry 0x7fd2c5c18190 not ready due to 0x7fd2c5c295c0
[33m[WRN] [0mRobEntry 0x7fd2c5c18190 not ready due to 0x7fd2c5c295c0
0x00007fd2c6015154  910003fd		mov x29, sp
0x00007fd2c6015158  d10043ff		sub sp, sp, #0x10 (16)
0x00007fd2c601515c  52800140		mov w0, #0xa
0x00007fd2c6015160  52800008		mov w8, #0x0
0x00007fd2c6015164  b81fc3a8		stur w8, [x29, #-4]
[33m[WRN] [0mRobEntry 0x7fd2c5c242d0 not ready due to 0x7fd2c5c29b10
0x00007fd2c6015168  97ffffe6		bl #-0x68 (addr 0x7fd2c6015100)
0x00007fd2c6015100  d10043ff		sub sp, sp, #0x10 (16)
0x00007fd2c6015104  320003e8		orr w8, wzr, #0x1
0x00007fd2c6015108  b9000fe0		str w0, [sp, #12]
[33m[WRN] [0mRobEntry 0x7fd2c5c24450 not ready due to 0x7fd2c5c29ff0
0x00007fd2c601510c  b9000be8		str w8, [sp, #8]
[33m[WRN] [0mRobEntry 0x7fd2c5c244b0 not ready due to 0x7fd2c5c29ff0
0x00007fd2c6015110  b9400fe8		ldr w8, [sp, #12]
[33m[WRN] [0mRobEntry 0x7fd2c5c24510 not ready due to 0x7fd2c5c29ff0
0x00007fd2c6015114  7100051f		cmp w8, #0x1 (1)
0x00007fd2c6015118  54000041		b.ne #+0x8 (addr 0x7fd2c6015120)
0x00007fd2c601511c  1400000a		b #+0x28 (addr 0x7fd2c6015144)
0x00007fd2c6015144  b9400be0		ldr w0, [sp, #8]
[33m[WRN] [0mRobEntry 0x7fd2c5f04360 not ready due to 0x7fd2c5c29ff0
0x00007fd2c6015148  910043ff		add sp, sp, #0x10 (16)
0x00007fd2c601514c  d65f03c0		ret
0x00007fd2c6015150  a9bf7bfd		stp x29, x30, [sp, #-16]!
[33m[WRN] [0mRobEntry 0x7fd2c5f07140 not ready due to 0x7fd2c5f07ee0
[33m[WRN] [0mRobEntry 0x7fd2c5f07140 not ready due to 0x7fd2c5f07ee0
0x00007fd2c6015154  910003fd		mov x29, sp
[33m[WRN] [0m[R31] RobCusor 0x7fd2c5f08250 read-depends on 0x7fd2c5f0a4a0
[33m[WRN] [0m[R29] RobCusor 0x7fd2c5f08250 write can go ahead with ticket 0x7fd2c5f0a8f0
0x00007fd2c6015158  d10043ff		sub sp, sp, #0x10 (16)
[33m[WRN] [0m[R31] RobCusor 0x7fd2c5f098c0 read-depends on 0x7fd2c5f0a4a0
[33m[WRN] [0m[R31] RobCusor 0x7fd2c5f098c0 write can go ahead with ticket 0x7fd2c5f0aa30
[33m[WRN] [0m----------------------Experimental Execute--------------
[33m[WRN] [0mRobEntry 0x7fd2c5c234f0 ready with 0x7fd2c5c25e60
[33m[WRN] [0mRobEntry 0x7fd2c5c23550 not ready due to 0x7fd2c5c26158
[33m[WRN] [0mRobEntry 0x7fd2c5c23790 not ready due to 0x7fd2c5c26700
[33m[WRN] [0mRobEntry 0x7fd2c5c237f0 not ready due to 0x7fd2c5c26700
[33m[WRN] [0mRobEntry 0x7fd2c5c106b0 not ready due to 0x7fd2c5c26b80
[33m[WRN] [0mRobEntry 0x7fd2c5c239d0 not ready due to 0x7fd2c5c275e0
[33m[WRN] [0mRobEntry 0x7fd2c5c23a30 not ready due to 0x7fd2c5c278d8
[33m[WRN] [0mRobEntry 0x7fd2c5c23b50 not ready due to 0x7fd2c5c26050
[33m[WRN] [0mRobEntry 0x7fd2c5c23bb0 not ready due to 0x7fd2c5c26050
[33m[WRN] [0mRobEntry 0x7fd2c5c23c70 not ready due to 0x7fd2c5c27f30
[33m[WRN] [0mRobEntry 0x7fd2c5c23cd0 not ready due to 0x7fd2c5c27f30
[33m[WRN] [0mRobEntry 0x7fd2c5c23eb0 not ready due to 0x7fd2c5c28390
[33m[WRN] [0mRobEntry 0x7fd2c5c24090 not ready due to 0x7fd2c5c28e20
[33m[WRN] [0mRobEntry 0x7fd2c5c240f0 not ready due to 0x7fd2c5c29118
[33m[WRN] [0mRobEntry 0x7fd2c5c24210 not ready due to 0x7fd2c5c28730
[33m[WRN] [0mRobEntry 0x7fd2c5c18130 not ready due to 0x7fd2c5c28730
[33m[WRN] [0mRobEntry 0x7fd2c5c181f0 not ready due to 0x7fd2c5c297c0
[33m[WRN] [0mRobEntry 0x7fd2c5c18250 not ready due to 0x7fd2c5c297c0
[33m[WRN] [0mRobEntry 0x7fd2c5c24390 not ready due to 0x7fd2c5c29c50
[33m[WRN] [0mRobEntry 0x7fd2c5e00680 not ready due to 0x7fd2c5c2a6e0
[33m[WRN] [0mRobEntry 0x7fd2c5e006e0 not ready due to 0x7fd2c5f02ab8
[33m[WRN] [0mRobEntry 0x7fd2c5f043c0 not ready due to 0x7fd2c5c29ff0
[33m[WRN] [0mRobEntry 0x7fd2c5f04420 not ready due to 0x7fd2c5c29ff0
[33m[WRN] [0mRobEntry 0x7fd2c5f08250 not ready due to 0x7fd2c5f0a4a0
[33m[WRN] [0mRobEntry 0x7fd2c5f098c0 not ready due to 0x7fd2c5f0a4a0
0x00007fd2c6015114  7100051f		cmp w8, #0x1 (1)
[33m[WRN] [0m[0x7fd2c5c234f0] filled ticket 0x7fd2c5c26110
[33m[WRN] [0m[0x7fd2c5c234f0] filled ticket 0x7fd2c5c26128
[33m[WRN] [0m[0x7fd2c5c234f0] filled ticket 0x7fd2c5c26140
[33m[WRN] [0m[0x7fd2c5c234f0] filled ticket 0x7fd2c5c26158
[33m[WRN] [0m[0x7fd2c5c234f0] filled ticket 0x7fd2c5c26110
[33m[WRN] [0m[0x7fd2c5c234f0] filled ticket 0x7fd2c5c26128
[33m[WRN] [0m[0x7fd2c5c234f0] filled ticket 0x7fd2c5c26140
[33m[WRN] [0m[0x7fd2c5c234f0] filled ticket 0x7fd2c5c26158
[33m[WRN] [0m[0x7fd2c5c234f0] filled ticket 0x7fd2c5c26110
[33m[WRN] [0m[0x7fd2c5c234f0] filled ticket 0x7fd2c5c26128
[33m[WRN] [0m[0x7fd2c5c234f0] filled ticket 0x7fd2c5c26140
[33m[WRN] [0m[0x7fd2c5c234f0] filled ticket 0x7fd2c5c26158
[33m[WRN] [0m[0x7fd2c5c234f0] filled ticket 0x7fd2c5c26110
[33m[WRN] [0m[0x7fd2c5c234f0] filled ticket 0x7fd2c5c26128
[33m[WRN] [0m[0x7fd2c5c234f0] filled ticket 0x7fd2c5c26140
[33m[WRN] [0m[0x7fd2c5c234f0] filled ticket 0x7fd2c5c26158
# NZCV: N:0 Z:0 C:1 V:0
[34m[DBG] [0m   Logic[0]: newPc <- 0x7fd2c6015118
0x00007fd2c6015148  910043ff		add sp, sp, #0x10 (16)
[33m[WRN] [0m[R31] RobEntry 0x7fd2c5c23670 reads init val 0x0
[33m[WRN] [0m[R31] Speculative write by 0x7fd2c5c23670 val=0x7fd2c601d2e0
[33m[WRN] [0m[0x7fd2c5c23670] filled ticket 0x7fd2c5c26510
#    sp: 0x00007fd2c601d2d0
[34m[DBG] [0m   Logic[1]: speculation no set pc
[34m[DBG] [0m   Scribe: retired 1 ROB entries (now: 0x7fd2c5c234f0:Done)
[34m[DBG] [0m======================================== Update[20/24] 
[34m[DBG] [0m   Fetcher: buffer.size = 503
[34m[DBG] [0m   Logic: instr executed ? yes: 1
[34m[DBG] [0m   Logic: rStation size <- 63, rsVacancy <- 1
[34m[DBG] [0m======================================== Sync [20/24] 
[34m[DBG] [0m======================================== Cycle End

[34m[DBG] [0m======================================== Compute[21/24]
[34m[DBG] [0mPC Offsest: 0x114
[34m[DBG] [0m   Fetcher: at: 0x7fd2c6015114 (buffer 0:503)
[34m[DBG] [0m   Fetcher: front instr = 0x7fd2c6015114, fetched 64, tmpBuffer: 64
[34m[DBG] [0m   Decoder: front instr = 0x7fd2c6015118
[34m[DBG] [0m   Decoder: Logic reservation station is full
0x00007fd2c6015118  54000041		b.ne #+0x8 (addr 0x7fd2c6015120)
0x00007fd2c601514c  d65f03c0		ret
0x00007fd2c6015150  a9bf7bfd		stp x29, x30, [sp, #-16]!
[33m[WRN] [0mRobEntry 0x7fd2c5c23730 ready with 0x7fd2c5c26510
[33m[WRN] [0mRobEntry 0x7fd2c5c23730 ready with 0x7fd2c5c26510
0x00007fd2c6015154  910003fd		mov x29, sp
0x00007fd2c6015158  d10043ff		sub sp, sp, #0x10 (16)
0x00007fd2c601515c  52800140		mov w0, #0xa
0x00007fd2c6015160  52800008		mov w8, #0x0
0x00007fd2c6015164  b81fc3a8		stur w8, [x29, #-4]
[33m[WRN] [0mRobEntry 0x7fd2c5c105f0 not ready due to 0x7fd2c5c26a40
0x00007fd2c6015168  97ffffe6		bl #-0x68 (addr 0x7fd2c6015100)
0x00007fd2c6015100  d10043ff		sub sp, sp, #0x10 (16)
0x00007fd2c6015104  320003e8		orr w8, wzr, #0x1
0x00007fd2c6015108  b9000fe0		str w0, [sp, #12]
[33m[WRN] [0mRobEntry 0x7fd2c5c238b0 not ready due to 0x7fd2c5c26050
0x00007fd2c601510c  b9000be8		str w8, [sp, #8]
[33m[WRN] [0mRobEntry 0x7fd2c5c23910 not ready due to 0x7fd2c5c26050
0x00007fd2c6015110  b9400fe8		ldr w8, [sp, #12]
[33m[WRN] [0mRobEntry 0x7fd2c5c23970 not ready due to 0x7fd2c5c26050
0x00007fd2c6015114  7100051f		cmp w8, #0x1 (1)
0x00007fd2c6015118  54000041		b.ne #+0x8 (addr 0x7fd2c6015120)
0x00007fd2c601511c  1400000a		b #+0x28 (addr 0x7fd2c6015144)
0x00007fd2c6015144  b9400be0		ldr w0, [sp, #8]
[33m[WRN] [0mRobEntry 0x7fd2c5c23af0 not ready due to 0x7fd2c5c26050
0x00007fd2c6015148  910043ff		add sp, sp, #0x10 (16)
0x00007fd2c601514c  d65f03c0		ret
0x00007fd2c6015150  a9bf7bfd		stp x29, x30, [sp, #-16]!
[33m[WRN] [0mRobEntry 0x7fd2c5c23c10 not ready due to 0x7fd2c5c27d30
[33m[WRN] [0mRobEntry 0x7fd2c5c23c10 not ready due to 0x7fd2c5c27d30
0x00007fd2c6015154  910003fd		mov x29, sp
0x00007fd2c6015158  d10043ff		sub sp, sp, #0x10 (16)
0x00007fd2c601515c  52800140		mov w0, #0xa
0x00007fd2c6015160  52800008		mov w8, #0x0
0x00007fd2c6015164  b81fc3a8		stur w8, [x29, #-4]
[33m[WRN] [0mRobEntry 0x7fd2c5c23df0 not ready due to 0x7fd2c5c28260
0x00007fd2c6015168  97ffffe6		bl #-0x68 (addr 0x7fd2c6015100)
0x00007fd2c6015100  d10043ff		sub sp, sp, #0x10 (16)
0x00007fd2c6015104  320003e8		orr w8, wzr, #0x1
0x00007fd2c6015108  b9000fe0		str w0, [sp, #12]
[33m[WRN] [0mRobEntry 0x7fd2c5c23f70 not ready due to 0x7fd2c5c28730
0x00007fd2c601510c  b9000be8		str w8, [sp, #8]
[33m[WRN] [0mRobEntry 0x7fd2c5c23fd0 not ready due to 0x7fd2c5c28730
0x00007fd2c6015110  b9400fe8		ldr w8, [sp, #12]
[33m[WRN] [0mRobEntry 0x7fd2c5c24030 not ready due to 0x7fd2c5c28730
0x00007fd2c6015114  7100051f		cmp w8, #0x1 (1)
0x00007fd2c6015118  54000041		b.ne #+0x8 (addr 0x7fd2c6015120)
0x00007fd2c601511c  1400000a		b #+0x28 (addr 0x7fd2c6015144)
0x00007fd2c6015144  b9400be0		ldr w0, [sp, #8]
[33m[WRN] [0mRobEntry 0x7fd2c5c241b0 not ready due to 0x7fd2c5c28730
0x00007fd2c6015148  910043ff		add sp, sp, #0x10 (16)
0x00007fd2c601514c  d65f03c0		ret
0x00007fd2c6015150  a9bf7bfd		stp x29, x30, [sp, #-16]!
[33m[WRN] [0mRobEntry 0x7fd2c5c18190 not ready due to 0x7fd2c5c295c0
[33m[WRN] [0mRobEntry 0x7fd2c5c18190 not ready due to 0x7fd2c5c295c0
0x00007fd2c6015154  910003fd		mov x29, sp
0x00007fd2c6015158  d10043ff		sub sp, sp, #0x10 (16)
0x00007fd2c601515c  52800140		mov w0, #0xa
0x00007fd2c6015160  52800008		mov w8, #0x0
0x00007fd2c6015164  b81fc3a8		stur w8, [x29, #-4]
[33m[WRN] [0mRobEntry 0x7fd2c5c242d0 not ready due to 0x7fd2c5c29b10
0x00007fd2c6015168  97ffffe6		bl #-0x68 (addr 0x7fd2c6015100)
0x00007fd2c6015100  d10043ff		sub sp, sp, #0x10 (16)
0x00007fd2c6015104  320003e8		orr w8, wzr, #0x1
0x00007fd2c6015108  b9000fe0		str w0, [sp, #12]
[33m[WRN] [0mRobEntry 0x7fd2c5c24450 not ready due to 0x7fd2c5c29ff0
0x00007fd2c601510c  b9000be8		str w8, [sp, #8]
[33m[WRN] [0mRobEntry 0x7fd2c5c244b0 not ready due to 0x7fd2c5c29ff0
0x00007fd2c6015110  b9400fe8		ldr w8, [sp, #12]
[33m[WRN] [0mRobEntry 0x7fd2c5c24510 not ready due to 0x7fd2c5c29ff0
0x00007fd2c6015114  7100051f		cmp w8, #0x1 (1)
0x00007fd2c6015118  54000041		b.ne #+0x8 (addr 0x7fd2c6015120)
0x00007fd2c601511c  1400000a		b #+0x28 (addr 0x7fd2c6015144)
0x00007fd2c6015144  b9400be0		ldr w0, [sp, #8]
[33m[WRN] [0mRobEntry 0x7fd2c5f04360 not ready due to 0x7fd2c5c29ff0
0x00007fd2c6015148  910043ff		add sp, sp, #0x10 (16)
0x00007fd2c601514c  d65f03c0		ret
0x00007fd2c6015150  a9bf7bfd		stp x29, x30, [sp, #-16]!
[33m[WRN] [0mRobEntry 0x7fd2c5f07140 not ready due to 0x7fd2c5f07ee0
[33m[WRN] [0mRobEntry 0x7fd2c5f07140 not ready due to 0x7fd2c5f07ee0
0x00007fd2c6015154  910003fd		mov x29, sp
0x00007fd2c6015158  d10043ff		sub sp, sp, #0x10 (16)
0x00007fd2c601515c  52800140		mov w0, #0xa
[33m[WRN] [0m[R0] RobCusor 0x7fd2c5f0c050 write can go ahead with ticket 0x7fd2c5e01810
[33m[WRN] [0m----------------------Experimental Execute--------------
[33m[WRN] [0mRobEntry 0x7fd2c5c23550 ready with 0x7fd2c5c26158
[33m[WRN] [0mRobEntry 0x7fd2c5c23790 not ready due to 0x7fd2c5c26700
[33m[WRN] [0mRobEntry 0x7fd2c5c237f0 not ready due to 0x7fd2c5c26700
[33m[WRN] [0mRobEntry 0x7fd2c5c106b0 not ready due to 0x7fd2c5c26b80
[33m[WRN] [0mRobEntry 0x7fd2c5c239d0 not ready due to 0x7fd2c5c275e0
[33m[WRN] [0mRobEntry 0x7fd2c5c23a30 not ready due to 0x7fd2c5c278d8
[33m[WRN] [0mRobEntry 0x7fd2c5c23b50 not ready due to 0x7fd2c5c26050
[33m[WRN] [0mRobEntry 0x7fd2c5c23bb0 not ready due to 0x7fd2c5c26050
[33m[WRN] [0mRobEntry 0x7fd2c5c23c70 not ready due to 0x7fd2c5c27f30
[33m[WRN] [0mRobEntry 0x7fd2c5c23cd0 not ready due to 0x7fd2c5c27f30
[33m[WRN] [0mRobEntry 0x7fd2c5c23eb0 not ready due to 0x7fd2c5c28390
[33m[WRN] [0mRobEntry 0x7fd2c5c24090 not ready due to 0x7fd2c5c28e20
[33m[WRN] [0mRobEntry 0x7fd2c5c240f0 not ready due to 0x7fd2c5c29118
[33m[WRN] [0mRobEntry 0x7fd2c5c24210 not ready due to 0x7fd2c5c28730
[33m[WRN] [0mRobEntry 0x7fd2c5c18130 not ready due to 0x7fd2c5c28730
[33m[WRN] [0mRobEntry 0x7fd2c5c181f0 not ready due to 0x7fd2c5c297c0
[33m[WRN] [0mRobEntry 0x7fd2c5c18250 not ready due to 0x7fd2c5c297c0
[33m[WRN] [0mRobEntry 0x7fd2c5c24390 not ready due to 0x7fd2c5c29c50
[33m[WRN] [0mRobEntry 0x7fd2c5e00680 not ready due to 0x7fd2c5c2a6e0
[33m[WRN] [0mRobEntry 0x7fd2c5e006e0 not ready due to 0x7fd2c5f02ab8
[33m[WRN] [0mRobEntry 0x7fd2c5f043c0 not ready due to 0x7fd2c5c29ff0
[33m[WRN] [0mRobEntry 0x7fd2c5f04420 not ready due to 0x7fd2c5c29ff0
[33m[WRN] [0mRobEntry 0x7fd2c5f08250 not ready due to 0x7fd2c5f0a4a0
[33m[WRN] [0mRobEntry 0x7fd2c5f098c0 not ready due to 0x7fd2c5f0a4a0
0x00007fd2c6015118  54000041		b.ne #+0x8 (addr 0x7fd2c6015120)
#    pc: 0x7fd2c6015120 (by 0x7fd2c5c23550)
[33m[WRN] [0m[0x7fd2c5c23550] filled ticket 0x7fd2c5c26300
[34m[DBG] [0m   Logic[0]: newPc <- 0x7fd2c6015120
0x00007fd2c601514c  d65f03c0		ret
[33m[WRN] [0m[R30] RobEntry 0x7fd2c5c236d0 reads init val 0x0
#    pc: 0x7fd2c601516c (by 0x7fd2c5c236d0)
[33m[WRN] [0mSpeculative write by 0x7fd2c5c236d0 val=0x7fd2c601516c
[33m[WRN] [0m[0x7fd2c5c236d0] filled ticket 0x7fd2c5c26640
[34m[DBG] [0m   Logic[1]: speculation no set pc
[34m[DBG] [0m   Scribe: retired 1 ROB entries (now: 0x7fd2c5c23550:Done)
[34m[DBG] [0m======================================== Update[21/25] 
[34m[DBG] [0m   Fetcher: buffer.size = 566
[34m[DBG] [0m   Logic: BP wrong: 2; Fetcher pc <- 0x7fd2c6015120
[34m[DBG] [0m   Fetcher: soft reset
[34m[DBG] [0m   Decoder: soft reset
[34m[DBG] [0m   Logic: instr executed ? yes: 1
[34m[DBG] [0m   Logic: rStation size <- 0, rsVacancy <- 64
[34m[DBG] [0m======================================== Sync [21/25] 
[34m[DBG] [0m======================================== Cycle End

[34m[DBG] [0m======================================== Compute[22/25]
[34m[DBG] [0mPC Offsest: 0x120
[34m[DBG] [0m   Fetcher: at: 0x7fd2c6015120 (buffer 0:0)
[34m[DBG] [0m   Fetcher: front instr = 0x7fd2c6015120, fetched 64, tmpBuffer: 64
[34m[DBG] [0m   Decoder: fetcher buffer is dry
[34m[DBG] [0m   Logic: reservation station is dry
[34m[DBG] [0m   Scribe: retired 64 ROB entries (now: 0x7fd2c5e02ec0:NoSucc)
[34m[DBG] [0m======================================== Update[22/26] 
[34m[DBG] [0m   Fetcher: buffer.size = 64
[34m[DBG] [0m   Logic: instr executed ? no: 0
[34m[DBG] [0m   Logic: rStation size <- 0, rsVacancy <- 64
[34m[DBG] [0m======================================== Sync [22/26] 
[34m[DBG] [0m======================================== Cycle End

[34m[DBG] [0m======================================== Compute[23/26]
[34m[DBG] [0mPC Offsest: 0x130
[34m[DBG] [0m   Fetcher: at: 0x7fd2c6015130 (buffer 0:64)
[34m[DBG] [0m   Fetcher: front instr = 0x7fd2c6015130, fetched 64, tmpBuffer: 64
[34m[DBG] [0m   Decoder: front instr = 0x7fd2c6015120
[34m[DBG] [0m   Logic: reservation station is dry
[34m[DBG] [0m   Scribe: retired 1 ROB entries (now: 0x7fd2c5e02ec0:NoSucc)
[34m[DBG] [0m======================================== Update[23/26] 
[34m[DBG] [0m   Fetcher: buffer.size = 64
[34m[DBG] [0m   Logic: instr executed ? no: 0
[34m[DBG] [0m   Logic: rStation size <- 0, rsVacancy <- 64
[34m[DBG] [0m======================================== Sync [23/26] 
[34m[DBG] [0m======================================== Cycle End

[34m[DBG] [0m======================================== Compute[24/26]
[34m[DBG] [0mPC Offsest: 0x140
[34m[DBG] [0m   Fetcher: at: 0x7fd2c6015140 (buffer 0:64)
[34m[DBG] [0m   Fetcher: front instr = 0x7fd2c6015140, fetched 64, tmpBuffer: 64
[34m[DBG] [0m   Logic: reservation station is dry
[34m[DBG] [0m   Scribe: retired 1 ROB entries (now: 0x7fd2c5e06660:Idle)
[34m[DBG] [0m======================================== Update[24/26] 
[34m[DBG] [0m   Fetcher: buffer.size = 128
[34m[DBG] [0m   Logic: instr executed ? no: 0
[34m[DBG] [0m   Logic: rStation size <- 64, rsVacancy <- 0
[34m[DBG] [0m======================================== Sync [24/26] 
[34m[DBG] [0m======================================== Cycle End

[34m[DBG] [0m======================================== Compute[25/26]
[34m[DBG] [0mPC Offsest: 0x120
[34m[DBG] [0m   Fetcher: at: 0x7fd2c6015120 (buffer 0:128)
[34m[DBG] [0m   Fetcher: front instr = 0x7fd2c6015120, fetched 64, tmpBuffer: 64
[34m[DBG] [0m   Decoder: front instr = 0x7fd2c6015130
0x00007fd2c6015120  b9400fe8		ldr w8, [sp, #12]
[33m[WRN] [0m[R31] RobCusor 0x7fd2c5e06660 read can go ahead (init)
[33m[WRN] [0m[R8] RobCusor 0x7fd2c5e06660 write can go ahead with ticket 0x7fd2c5e065c0
0x00007fd2c6015124  b9400be9		ldr w9, [sp, #8]
[33m[WRN] [0m[R31] RobCusor 0x7fd2c5e066c0 read can go ahead (init)
[33m[WRN] [0m[R9] RobCusor 0x7fd2c5e066c0 write can go ahead with ticket 0x7fd2c5e03da0
0x00007fd2c6015128  1b087d28		mul w8, w9, w8
[33m[WRN] [0m[R9] RobCusor 0x7fd2c5e06720 read-depends on 0x7fd2c5e03da0
[33m[WRN] [0m[R8] RobCusor 0x7fd2c5e06720 read-depends on 0x7fd2c5e065c0
[33m[WRN] [0m[R9] RobCusor 0x7fd2c5e06720 read-depends on 0x7fd2c5e03da0
[33m[WRN] [0m[R8] RobCusor 0x7fd2c5e06720 read-depends on 0x7fd2c5e065c0
[33m[WRN] [0m[R9] RobCusor 0x7fd2c5e06720 read-depends on 0x7fd2c5e03da0
[33m[WRN] [0m[R8] RobCusor 0x7fd2c5e06720 read-depends on 0x7fd2c5e065c0
[33m[WRN] [0m[R8] RobCusor 0x7fd2c5e06720 write can go ahead with ticket 0x7fd2c5e01640
0x00007fd2c601512c  b9000be8		str w8, [sp, #8]
[33m[WRN] [0m[R31] RobCusor 0x7fd2c5e06780 read can go ahead (init)
[33m[WRN] [0m[R8] RobCusor 0x7fd2c5e06780 read-depends on 0x7fd2c5e01640
[33m[WRN] [0mRobEntry 0x7fd2c5e06780 not ready due to 0x7fd2c5e01640
0x00007fd2c6015130  b9400fe8		ldr w8, [sp, #12]
[33m[WRN] [0m[R31] RobCusor 0x7fd2c5e067e0 read can go ahead (init)
[33m[WRN] [0m[R8] RobCusor 0x7fd2c5e067e0 write can go ahead with ticket 0x7fd2c5e08ee0
0x00007fd2c6015134  12800009		mov w9, #0xffffffff
[33m[WRN] [0m[R9] RobCusor 0x7fd2c5e06840 write can go ahead with ticket 0x7fd2c5e08f80
0x00007fd2c6015138  0b090108		add w8, w8, w9
[33m[WRN] [0m[R9] RobCusor 0x7fd2c5e068a0 read-depends on 0x7fd2c5e08f80
[33m[WRN] [0m[R8] RobCusor 0x7fd2c5e068a0 read-depends on 0x7fd2c5e08ee0
[33m[WRN] [0m[R8] RobCusor 0x7fd2c5e068a0 write can go ahead with ticket 0x7fd2c5e09140
0x00007fd2c601513c  b9000fe8		str w8, [sp, #12]
[33m[WRN] [0m[R31] RobCusor 0x7fd2c5e06900 read can go ahead (init)
[33m[WRN] [0m[R8] RobCusor 0x7fd2c5e06900 read-depends on 0x7fd2c5e09140
[33m[WRN] [0mRobEntry 0x7fd2c5e06900 not ready due to 0x7fd2c5e09140
0x00007fd2c6015140  17fffff4		b #-0x30 (addr 0x7fd2c6015110)
0x00007fd2c6015110  b9400fe8		ldr w8, [sp, #12]
[33m[WRN] [0m[R31] RobCusor 0x7fd2c5e06440 read can go ahead (init)
[33m[WRN] [0m[R8] RobCusor 0x7fd2c5e06440 write can go ahead with ticket 0x7fd2c5e09430
0x00007fd2c6015114  7100051f		cmp w8, #0x1 (1)
[33m[WRN] [0m[R8] RobCusor 0x7fd2c5e064a0 read-depends on 0x7fd2c5e09430
[33m[WRN] [0m[NZCV] RobCusor 0x7fd2c5e064a0 write can go ahead with ticket 0x7fd2c5e09570
[33m[WRN] [0m[NZCV] RobCusor 0x7fd2c5e064a0 write can go ahead with ticket 0x7fd2c5e09638
[33m[WRN] [0m[NZCV] RobCusor 0x7fd2c5e064a0 write can go ahead with ticket 0x7fd2c5e09710
[33m[WRN] [0m[NZCV] RobCusor 0x7fd2c5e064a0 write can go ahead with ticket 0x7fd2c5e09728
0x00007fd2c6015118  54000041		b.ne #+0x8 (addr 0x7fd2c6015120)
[33m[WRN] [0m[NZCV] RobCusor 0x7fd2c5e06500 read-depends on 0x7fd2c5e09728
0x00007fd2c6015120  b9400fe8		ldr w8, [sp, #12]
[33m[WRN] [0m[R31] RobCusor 0x7fd2c5e06560 read can go ahead (init)
[33m[WRN] [0m[R8] RobCusor 0x7fd2c5e06560 write can go ahead with ticket 0x7fd2c5e09980
0x00007fd2c6015124  b9400be9		ldr w9, [sp, #8]
[33m[WRN] [0m[R31] RobCusor 0x7fd2c5e06960 read can go ahead (init)
[33m[WRN] [0m[R9] RobCusor 0x7fd2c5e06960 write can go ahead with ticket 0x7fd2c5e09ab0
0x00007fd2c6015128  1b087d28		mul w8, w9, w8
[33m[WRN] [0m[R9] RobCusor 0x7fd2c5e069c0 read-depends on 0x7fd2c5e09ab0
[33m[WRN] [0m[R8] RobCusor 0x7fd2c5e069c0 read-depends on 0x7fd2c5e09980
[33m[WRN] [0m[R9] RobCusor 0x7fd2c5e069c0 read-depends on 0x7fd2c5e09ab0
[33m[WRN] [0m[R8] RobCusor 0x7fd2c5e069c0 read-depends on 0x7fd2c5e09980
[33m[WRN] [0m[R9] RobCusor 0x7fd2c5e069c0 read-depends on 0x7fd2c5e09ab0
[33m[WRN] [0m[R8] RobCusor 0x7fd2c5e069c0 read-depends on 0x7fd2c5e09980
[33m[WRN] [0m[R8] RobCusor 0x7fd2c5e069c0 write can go ahead with ticket 0x7fd2c5e09620
0x00007fd2c601512c  b9000be8		str w8, [sp, #8]
[33m[WRN] [0m[R31] RobCusor 0x7fd2c5e06a20 read can go ahead (init)
[33m[WRN] [0m[R8] RobCusor 0x7fd2c5e06a20 read-depends on 0x7fd2c5e09620
[33m[WRN] [0mRobEntry 0x7fd2c5e06a20 not ready due to 0x7fd2c5e09620
0x00007fd2c6015130  b9400fe8		ldr w8, [sp, #12]
[33m[WRN] [0m[R31] RobCusor 0x7fd2c5e06a80 read can go ahead (init)
[33m[WRN] [0m[R8] RobCusor 0x7fd2c5e06a80 write can go ahead with ticket 0x7fd2c5e0a130
0x00007fd2c6015134  12800009		mov w9, #0xffffffff
[33m[WRN] [0m[R9] RobCusor 0x7fd2c5e06ae0 write can go ahead with ticket 0x7fd2c5e0a1e0
0x00007fd2c6015138  0b090108		add w8, w8, w9
[33m[WRN] [0m[R9] RobCusor 0x7fd2c5e06b40 read-depends on 0x7fd2c5e0a1e0
[33m[WRN] [0m[R8] RobCusor 0x7fd2c5e06b40 read-depends on 0x7fd2c5e0a130
[33m[WRN] [0m[R8] RobCusor 0x7fd2c5e06b40 write can go ahead with ticket 0x7fd2c5e0a3a0
0x00007fd2c601513c  b9000fe8		str w8, [sp, #12]
[33m[WRN] [0m[R31] RobCusor 0x7fd2c5e06ba0 read can go ahead (init)
[33m[WRN] [0m[R8] RobCusor 0x7fd2c5e06ba0 read-depends on 0x7fd2c5e0a3a0
[33m[WRN] [0mRobEntry 0x7fd2c5e06ba0 not ready due to 0x7fd2c5e0a3a0
0x00007fd2c6015140  17fffff4		b #-0x30 (addr 0x7fd2c6015110)
0x00007fd2c6015110  b9400fe8		ldr w8, [sp, #12]
[33m[WRN] [0m[R31] RobCusor 0x7fd2c5e06c60 read can go ahead (init)
[33m[WRN] [0m[R8] RobCusor 0x7fd2c5e06c60 write can go ahead with ticket 0x7fd2c5e0a690
0x00007fd2c6015114  7100051f		cmp w8, #0x1 (1)
[33m[WRN] [0m[R8] RobCusor 0x7fd2c5e06cc0 read-depends on 0x7fd2c5e0a690
[33m[WRN] [0m[NZCV] RobCusor 0x7fd2c5e06cc0 write can go ahead with ticket 0x7fd2c5e0a7d0
[33m[WRN] [0m[NZCV] RobCusor 0x7fd2c5e06cc0 write can go ahead with ticket 0x7fd2c5e0a898
[33m[WRN] [0m[NZCV] RobCusor 0x7fd2c5e06cc0 write can go ahead with ticket 0x7fd2c5e0a970
[33m[WRN] [0m[NZCV] RobCusor 0x7fd2c5e06cc0 write can go ahead with ticket 0x7fd2c5e0a988
0x00007fd2c6015118  54000041		b.ne #+0x8 (addr 0x7fd2c6015120)
[33m[WRN] [0m[NZCV] RobCusor 0x7fd2c5e06d20 read-depends on 0x7fd2c5e0a988
0x00007fd2c6015120  b9400fe8		ldr w8, [sp, #12]
[33m[WRN] [0m[R31] RobCusor 0x7fd2c5e06d80 read can go ahead (init)
[33m[WRN] [0m[R8] RobCusor 0x7fd2c5e06d80 write can go ahead with ticket 0x7fd2c5e0abe0
0x00007fd2c6015124  b9400be9		ldr w9, [sp, #8]
[33m[WRN] [0m[R31] RobCusor 0x7fd2c5e06de0 read can go ahead (init)
[33m[WRN] [0m[R9] RobCusor 0x7fd2c5e06de0 write can go ahead with ticket 0x7fd2c5e0ad10
0x00007fd2c6015128  1b087d28		mul w8, w9, w8
[33m[WRN] [0m[R9] RobCusor 0x7fd2c5e06e40 read-depends on 0x7fd2c5e0ad10
[33m[WRN] [0m[R8] RobCusor 0x7fd2c5e06e40 read-depends on 0x7fd2c5e0abe0
[33m[WRN] [0m[R9] RobCusor 0x7fd2c5e06e40 read-depends on 0x7fd2c5e0ad10
[33m[WRN] [0m[R8] RobCusor 0x7fd2c5e06e40 read-depends on 0x7fd2c5e0abe0
[33m[WRN] [0m[R9] RobCusor 0x7fd2c5e06e40 read-depends on 0x7fd2c5e0ad10
[33m[WRN] [0m[R8] RobCusor 0x7fd2c5e06e40 read-depends on 0x7fd2c5e0abe0
[33m[WRN] [0m[R8] RobCusor 0x7fd2c5e06e40 write can go ahead with ticket 0x7fd2c5e0a880
0x00007fd2c601512c  b9000be8		str w8, [sp, #8]
[33m[WRN] [0m[R31] RobCusor 0x7fd2c5e06ea0 read can go ahead (init)
[33m[WRN] [0m[R8] RobCusor 0x7fd2c5e06ea0 read-depends on 0x7fd2c5e0a880
[33m[WRN] [0mRobEntry 0x7fd2c5e06ea0 not ready due to 0x7fd2c5e0a880
0x00007fd2c6015130  b9400fe8		ldr w8, [sp, #12]
[33m[WRN] [0m[R31] RobCusor 0x7fd2c5e06f00 read can go ahead (init)
[33m[WRN] [0m[R8] RobCusor 0x7fd2c5e06f00 write can go ahead with ticket 0x7fd2c5e0b390
0x00007fd2c6015134  12800009		mov w9, #0xffffffff
[33m[WRN] [0m[R9] RobCusor 0x7fd2c5e06f60 write can go ahead with ticket 0x7fd2c5e0b440
0x00007fd2c6015138  0b090108		add w8, w8, w9
[33m[WRN] [0m[R9] RobCusor 0x7fd2c5e06fc0 read-depends on 0x7fd2c5e0b440
[33m[WRN] [0m[R8] RobCusor 0x7fd2c5e06fc0 read-depends on 0x7fd2c5e0b390
[33m[WRN] [0m[R8] RobCusor 0x7fd2c5e06fc0 write can go ahead with ticket 0x7fd2c5e0b600
0x00007fd2c601513c  b9000fe8		str w8, [sp, #12]
[33m[WRN] [0m[R31] RobCusor 0x7fd2c5e07020 read can go ahead (init)
[33m[WRN] [0m[R8] RobCusor 0x7fd2c5e07020 read-depends on 0x7fd2c5e0b600
[33m[WRN] [0mRobEntry 0x7fd2c5e07020 not ready due to 0x7fd2c5e0b600
0x00007fd2c6015140  17fffff4		b #-0x30 (addr 0x7fd2c6015110)
0x00007fd2c6015110  b9400fe8		ldr w8, [sp, #12]
[33m[WRN] [0m[R31] RobCusor 0x7fd2c5e070e0 read can go ahead (init)
[33m[WRN] [0m[R8] RobCusor 0x7fd2c5e070e0 write can go ahead with ticket 0x7fd2c5e0b8f0
0x00007fd2c6015114  7100051f		cmp w8, #0x1 (1)
[33m[WRN] [0m[R8] RobCusor 0x7fd2c5e07140 read-depends on 0x7fd2c5e0b8f0
[33m[WRN] [0m[NZCV] RobCusor 0x7fd2c5e07140 write can go ahead with ticket 0x7fd2c5e0ba30
[33m[WRN] [0m[NZCV] RobCusor 0x7fd2c5e07140 write can go ahead with ticket 0x7fd2c5e0baf8
[33m[WRN] [0m[NZCV] RobCusor 0x7fd2c5e07140 write can go ahead with ticket 0x7fd2c5e0bbd0
[33m[WRN] [0m[NZCV] RobCusor 0x7fd2c5e07140 write can go ahead with ticket 0x7fd2c5e0bbe8
0x00007fd2c6015118  54000041		b.ne #+0x8 (addr 0x7fd2c6015120)
[33m[WRN] [0m[NZCV] RobCusor 0x7fd2c5e071a0 read-depends on 0x7fd2c5e0bbe8
0x00007fd2c6015120  b9400fe8		ldr w8, [sp, #12]
[33m[WRN] [0m[R31] RobCusor 0x7fd2c5e07200 read can go ahead (init)
[33m[WRN] [0m[R8] RobCusor 0x7fd2c5e07200 write can go ahead with ticket 0x7fd2c5e0be40
0x00007fd2c6015124  b9400be9		ldr w9, [sp, #8]
[33m[WRN] [0m[R31] RobCusor 0x7fd2c5e07260 read can go ahead (init)
[33m[WRN] [0m[R9] RobCusor 0x7fd2c5e07260 write can go ahead with ticket 0x7fd2c5e0bf70
0x00007fd2c6015128  1b087d28		mul w8, w9, w8
[33m[WRN] [0m[R9] RobCusor 0x7fd2c5e072c0 read-depends on 0x7fd2c5e0bf70
[33m[WRN] [0m[R8] RobCusor 0x7fd2c5e072c0 read-depends on 0x7fd2c5e0be40
[33m[WRN] [0m[R9] RobCusor 0x7fd2c5e072c0 read-depends on 0x7fd2c5e0bf70
[33m[WRN] [0m[R8] RobCusor 0x7fd2c5e072c0 read-depends on 0x7fd2c5e0be40
[33m[WRN] [0m[R9] RobCusor 0x7fd2c5e072c0 read-depends on 0x7fd2c5e0bf70
[33m[WRN] [0m[R8] RobCusor 0x7fd2c5e072c0 read-depends on 0x7fd2c5e0be40
[33m[WRN] [0m[R8] RobCusor 0x7fd2c5e072c0 write can go ahead with ticket 0x7fd2c5e0bae0
0x00007fd2c601512c  b9000be8		str w8, [sp, #8]
[33m[WRN] [0m[R31] RobCusor 0x7fd2c5e07320 read can go ahead (init)
[33m[WRN] [0m[R8] RobCusor 0x7fd2c5e07320 read-depends on 0x7fd2c5e0bae0
[33m[WRN] [0mRobEntry 0x7fd2c5e07320 not ready due to 0x7fd2c5e0bae0
0x00007fd2c6015130  b9400fe8		ldr w8, [sp, #12]
[33m[WRN] [0m[R31] RobCusor 0x7fd2c5e061e0 read can go ahead (init)
[33m[WRN] [0m[R8] RobCusor 0x7fd2c5e061e0 write can go ahead with ticket 0x7fd2c5e0c5f0
0x00007fd2c6015134  12800009		mov w9, #0xffffffff
[33m[WRN] [0m[R9] RobCusor 0x7fd2c5e06240 write can go ahead with ticket 0x7fd2c5e0c6a0
0x00007fd2c6015138  0b090108		add w8, w8, w9
[33m[WRN] [0m[R9] RobCusor 0x7fd2c5e062a0 read-depends on 0x7fd2c5e0c6a0
[33m[WRN] [0m[R8] RobCusor 0x7fd2c5e062a0 read-depends on 0x7fd2c5e0c5f0
[33m[WRN] [0m[R8] RobCusor 0x7fd2c5e062a0 write can go ahead with ticket 0x7fd2c5e0c860
0x00007fd2c601513c  b9000fe8		str w8, [sp, #12]
[33m[WRN] [0m[R31] RobCusor 0x7fd2c5e06300 read can go ahead (init)
[33m[WRN] [0m[R8] RobCusor 0x7fd2c5e06300 read-depends on 0x7fd2c5e0c860
[33m[WRN] [0mRobEntry 0x7fd2c5e06300 not ready due to 0x7fd2c5e0c860
0x00007fd2c6015140  17fffff4		b #-0x30 (addr 0x7fd2c6015110)
0x00007fd2c6015110  b9400fe8		ldr w8, [sp, #12]
[33m[WRN] [0m[R31] RobCusor 0x7fd2c5e07380 read can go ahead (init)
[33m[WRN] [0m[R8] RobCusor 0x7fd2c5e07380 write can go ahead with ticket 0x7fd2c5e0cb50
0x00007fd2c6015114  7100051f		cmp w8, #0x1 (1)
[33m[WRN] [0m[R8] RobCusor 0x7fd2c5e073e0 read-depends on 0x7fd2c5e0cb50
[33m[WRN] [0m[NZCV] RobCusor 0x7fd2c5e073e0 write can go ahead with ticket 0x7fd2c5e0cc90
[33m[WRN] [0m[NZCV] RobCusor 0x7fd2c5e073e0 write can go ahead with ticket 0x7fd2c5e0cd58
[33m[WRN] [0m[NZCV] RobCusor 0x7fd2c5e073e0 write can go ahead with ticket 0x7fd2c5e0ce30
[33m[WRN] [0m[NZCV] RobCusor 0x7fd2c5e073e0 write can go ahead with ticket 0x7fd2c5e0ce48
0x00007fd2c6015118  54000041		b.ne #+0x8 (addr 0x7fd2c6015120)
[33m[WRN] [0m[NZCV] RobCusor 0x7fd2c5e07440 read-depends on 0x7fd2c5e0ce48
0x00007fd2c6015120  b9400fe8		ldr w8, [sp, #12]
[33m[WRN] [0m[R31] RobCusor 0x7fd2c5e074a0 read can go ahead (init)
[33m[WRN] [0m[R8] RobCusor 0x7fd2c5e074a0 write can go ahead with ticket 0x7fd2c5e0d2a0
0x00007fd2c6015124  b9400be9		ldr w9, [sp, #8]
[33m[WRN] [0m[R31] RobCusor 0x7fd2c5e07500 read can go ahead (init)
[33m[WRN] [0m[R9] RobCusor 0x7fd2c5e07500 write can go ahead with ticket 0x7fd2c5e0d3d0
0x00007fd2c6015128  1b087d28		mul w8, w9, w8
[33m[WRN] [0m[R9] RobCusor 0x7fd2c5e07560 read-depends on 0x7fd2c5e0d3d0
[33m[WRN] [0m[R8] RobCusor 0x7fd2c5e07560 read-depends on 0x7fd2c5e0d2a0
[33m[WRN] [0m[R9] RobCusor 0x7fd2c5e07560 read-depends on 0x7fd2c5e0d3d0
[33m[WRN] [0m[R8] RobCusor 0x7fd2c5e07560 read-depends on 0x7fd2c5e0d2a0
[33m[WRN] [0m[R9] RobCusor 0x7fd2c5e07560 read-depends on 0x7fd2c5e0d3d0
[33m[WRN] [0m[R8] RobCusor 0x7fd2c5e07560 read-depends on 0x7fd2c5e0d2a0
[33m[WRN] [0m[R8] RobCusor 0x7fd2c5e07560 write can go ahead with ticket 0x7fd2c5e0cd40
0x00007fd2c601512c  b9000be8		str w8, [sp, #8]
[33m[WRN] [0m[R31] RobCusor 0x7fd2c5e075c0 read can go ahead (init)
[33m[WRN] [0m[R8] RobCusor 0x7fd2c5e075c0 read-depends on 0x7fd2c5e0cd40
[33m[WRN] [0mRobEntry 0x7fd2c5e075c0 not ready due to 0x7fd2c5e0cd40
0x00007fd2c6015130  b9400fe8		ldr w8, [sp, #12]
[33m[WRN] [0m[R31] RobCusor 0x7fd2c5e07620 read can go ahead (init)
[33m[WRN] [0m[R8] RobCusor 0x7fd2c5e07620 write can go ahead with ticket 0x7fd2c5e0da50
0x00007fd2c6015134  12800009		mov w9, #0xffffffff
[33m[WRN] [0m[R9] RobCusor 0x7fd2c5e07680 write can go ahead with ticket 0x7fd2c5e0db00
0x00007fd2c6015138  0b090108		add w8, w8, w9
[33m[WRN] [0m[R9] RobCusor 0x7fd2c5e076e0 read-depends on 0x7fd2c5e0db00
[33m[WRN] [0m[R8] RobCusor 0x7fd2c5e076e0 read-depends on 0x7fd2c5e0da50
[33m[WRN] [0m[R8] RobCusor 0x7fd2c5e076e0 write can go ahead with ticket 0x7fd2c5e0dcc0
0x00007fd2c601513c  b9000fe8		str w8, [sp, #12]
[33m[WRN] [0m[R31] RobCusor 0x7fd2c5e07740 read can go ahead (init)
[33m[WRN] [0m[R8] RobCusor 0x7fd2c5e07740 read-depends on 0x7fd2c5e0dcc0
[33m[WRN] [0mRobEntry 0x7fd2c5e07740 not ready due to 0x7fd2c5e0dcc0
0x00007fd2c6015140  17fffff4		b #-0x30 (addr 0x7fd2c6015110)
0x00007fd2c6015110  b9400fe8		ldr w8, [sp, #12]
[33m[WRN] [0m[R31] RobCusor 0x7fd2c5e07800 read can go ahead (init)
[33m[WRN] [0m[R8] RobCusor 0x7fd2c5e07800 write can go ahead with ticket 0x7fd2c5e0dfb0
0x00007fd2c6015114  7100051f		cmp w8, #0x1 (1)
[33m[WRN] [0m[R8] RobCusor 0x7fd2c5e07860 read-depends on 0x7fd2c5e0dfb0
[33m[WRN] [0m[NZCV] RobCusor 0x7fd2c5e07860 write can go ahead with ticket 0x7fd2c5e0e0f0
[33m[WRN] [0m[NZCV] RobCusor 0x7fd2c5e07860 write can go ahead with ticket 0x7fd2c5e0e1b8
[33m[WRN] [0m[NZCV] RobCusor 0x7fd2c5e07860 write can go ahead with ticket 0x7fd2c5e0e290
[33m[WRN] [0m[NZCV] RobCusor 0x7fd2c5e07860 write can go ahead with ticket 0x7fd2c5e0e2a8
0x00007fd2c6015118  54000041		b.ne #+0x8 (addr 0x7fd2c6015120)
[33m[WRN] [0m[NZCV] RobCusor 0x7fd2c5e078c0 read-depends on 0x7fd2c5e0e2a8
0x00007fd2c6015120  b9400fe8		ldr w8, [sp, #12]
[33m[WRN] [0m[R31] RobCusor 0x7fd2c5e07920 read can go ahead (init)
[33m[WRN] [0m[R8] RobCusor 0x7fd2c5e07920 write can go ahead with ticket 0x7fd2c5e0e500
0x00007fd2c6015124  b9400be9		ldr w9, [sp, #8]
[33m[WRN] [0m[R31] RobCusor 0x7fd2c5e07980 read can go ahead (init)
[33m[WRN] [0m[R9] RobCusor 0x7fd2c5e07980 write can go ahead with ticket 0x7fd2c5e0e630
0x00007fd2c6015128  1b087d28		mul w8, w9, w8
[33m[WRN] [0m[R9] RobCusor 0x7fd2c5e079e0 read-depends on 0x7fd2c5e0e630
[33m[WRN] [0m[R8] RobCusor 0x7fd2c5e079e0 read-depends on 0x7fd2c5e0e500
[33m[WRN] [0m[R9] RobCusor 0x7fd2c5e079e0 read-depends on 0x7fd2c5e0e630
[33m[WRN] [0m[R8] RobCusor 0x7fd2c5e079e0 read-depends on 0x7fd2c5e0e500
[33m[WRN] [0m[R9] RobCusor 0x7fd2c5e079e0 read-depends on 0x7fd2c5e0e630
[33m[WRN] [0m[R8] RobCusor 0x7fd2c5e079e0 read-depends on 0x7fd2c5e0e500
[33m[WRN] [0m[R8] RobCusor 0x7fd2c5e079e0 write can go ahead with ticket 0x7fd2c5e0e1a0
0x00007fd2c601512c  b9000be8		str w8, [sp, #8]
[33m[WRN] [0m[R31] RobCusor 0x7fd2c5e07a40 read can go ahead (init)
[33m[WRN] [0m[R8] RobCusor 0x7fd2c5e07a40 read-depends on 0x7fd2c5e0e1a0
[33m[WRN] [0mRobEntry 0x7fd2c5e07a40 not ready due to 0x7fd2c5e0e1a0
[33m[WRN] [0m----------------------Experimental Execute--------------
[33m[WRN] [0mRobEntry 0x7fd2c5e06720 not ready due to 0x7fd2c5e03da0
[33m[WRN] [0mRobEntry 0x7fd2c5e068a0 not ready due to 0x7fd2c5e08f80
[33m[WRN] [0mRobEntry 0x7fd2c5e064a0 not ready due to 0x7fd2c5e09430
[33m[WRN] [0mRobEntry 0x7fd2c5e06500 not ready due to 0x7fd2c5e09728
[33m[WRN] [0mRobEntry 0x7fd2c5e069c0 not ready due to 0x7fd2c5e09ab0
[33m[WRN] [0mRobEntry 0x7fd2c5e06b40 not ready due to 0x7fd2c5e0a1e0
[33m[WRN] [0mRobEntry 0x7fd2c5e06cc0 not ready due to 0x7fd2c5e0a690
[33m[WRN] [0mRobEntry 0x7fd2c5e06d20 not ready due to 0x7fd2c5e0a988
[33m[WRN] [0mRobEntry 0x7fd2c5e06e40 not ready due to 0x7fd2c5e0ad10
[33m[WRN] [0mRobEntry 0x7fd2c5e06fc0 not ready due to 0x7fd2c5e0b440
[33m[WRN] [0mRobEntry 0x7fd2c5e07140 not ready due to 0x7fd2c5e0b8f0
[33m[WRN] [0mRobEntry 0x7fd2c5e071a0 not ready due to 0x7fd2c5e0bbe8
[33m[WRN] [0mRobEntry 0x7fd2c5e072c0 not ready due to 0x7fd2c5e0bf70
[33m[WRN] [0mRobEntry 0x7fd2c5e062a0 not ready due to 0x7fd2c5e0c6a0
[33m[WRN] [0mRobEntry 0x7fd2c5e073e0 not ready due to 0x7fd2c5e0cb50
[33m[WRN] [0mRobEntry 0x7fd2c5e07440 not ready due to 0x7fd2c5e0ce48
[33m[WRN] [0mRobEntry 0x7fd2c5e07560 not ready due to 0x7fd2c5e0d3d0
[33m[WRN] [0mRobEntry 0x7fd2c5e076e0 not ready due to 0x7fd2c5e0db00
[33m[WRN] [0mRobEntry 0x7fd2c5e07860 not ready due to 0x7fd2c5e0dfb0
[33m[WRN] [0mRobEntry 0x7fd2c5e078c0 not ready due to 0x7fd2c5e0e2a8
[33m[WRN] [0mRobEntry 0x7fd2c5e079e0 not ready due to 0x7fd2c5e0e630
0x00007fd2c6015120  b9400fe8		ldr w8, [sp, #12]
[33m[WRN] [0m[R31] RobEntry 0x7fd2c5e06660 reads init val 0x0
[34m[DBG] [0m[MEM] read addr=0x7fd2c601d2dc len=0x4 val=0x9
[33m[WRN] [0m[0x7fd2c5e06660] filled ticket 0x7fd2c5e065c0
#    x8: 0x0000000000000009 <- 0x00007fd2c601d2dc
[34m[DBG] [0m   Logic[0]: newPc <- 0x7fd2c6015124
0x00007fd2c6015124  b9400be9		ldr w9, [sp, #8]
[33m[WRN] [0m[R31] RobEntry 0x7fd2c5e066c0 reads init val 0x0
[34m[DBG] [0m[MEM] read addr=0x7fd2c601d2d8 len=0x4 val=0xa
[33m[WRN] [0m[0x7fd2c5e066c0] filled ticket 0x7fd2c5e03da0
#    x9: 0x000000000000000a <- 0x00007fd2c601d2d8
[34m[DBG] [0m   Logic[1]: newPc <- 0x7fd2c6015128
[34m[DBG] [0m   Scribe: retired 0 ROB entries (now: 0x7fd2c5e06660:Done)
[34m[DBG] [0m======================================== Update[25/26] 
[34m[DBG] [0m   Fetcher: buffer.size = 128
[34m[DBG] [0m   Logic: instr executed ? yes: 2
[34m[DBG] [0m   Logic: rStation size <- 62, rsVacancy <- 2
[34m[DBG] [0m======================================== Sync [25/26] 
[34m[DBG] [0m======================================== Cycle End

[34m[DBG] [0m======================================== Compute[26/26]
[34m[DBG] [0mPC Offsest: 0x130
[34m[DBG] [0m   Fetcher: at: 0x7fd2c6015130 (buffer 0:128)
[34m[DBG] [0m   Fetcher: front instr = 0x7fd2c6015130, fetched 64, tmpBuffer: 64
[34m[DBG] [0m   Decoder: Logic reservation station is full
0x00007fd2c6015128  1b087d28		mul w8, w9, w8
0x00007fd2c601512c  b9000be8		str w8, [sp, #8]
[33m[WRN] [0mRobEntry 0x7fd2c5e06780 not ready due to 0x7fd2c5e01640
0x00007fd2c6015130  b9400fe8		ldr w8, [sp, #12]
0x00007fd2c6015134  12800009		mov w9, #0xffffffff
0x00007fd2c6015138  0b090108		add w8, w8, w9
0x00007fd2c601513c  b9000fe8		str w8, [sp, #12]
[33m[WRN] [0mRobEntry 0x7fd2c5e06900 not ready due to 0x7fd2c5e09140
0x00007fd2c6015140  17fffff4		b #-0x30 (addr 0x7fd2c6015110)
0x00007fd2c6015110  b9400fe8		ldr w8, [sp, #12]
0x00007fd2c6015114  7100051f		cmp w8, #0x1 (1)
0x00007fd2c6015118  54000041		b.ne #+0x8 (addr 0x7fd2c6015120)
0x00007fd2c6015120  b9400fe8		ldr w8, [sp, #12]
0x00007fd2c6015124  b9400be9		ldr w9, [sp, #8]
0x00007fd2c6015128  1b087d28		mul w8, w9, w8
0x00007fd2c601512c  b9000be8		str w8, [sp, #8]
[33m[WRN] [0mRobEntry 0x7fd2c5e06a20 not ready due to 0x7fd2c5e09620
0x00007fd2c6015130  b9400fe8		ldr w8, [sp, #12]
0x00007fd2c6015134  12800009		mov w9, #0xffffffff
0x00007fd2c6015138  0b090108		add w8, w8, w9
0x00007fd2c601513c  b9000fe8		str w8, [sp, #12]
[33m[WRN] [0mRobEntry 0x7fd2c5e06ba0 not ready due to 0x7fd2c5e0a3a0
0x00007fd2c6015140  17fffff4		b #-0x30 (addr 0x7fd2c6015110)
0x00007fd2c6015110  b9400fe8		ldr w8, [sp, #12]
0x00007fd2c6015114  7100051f		cmp w8, #0x1 (1)
0x00007fd2c6015118  54000041		b.ne #+0x8 (addr 0x7fd2c6015120)
0x00007fd2c6015120  b9400fe8		ldr w8, [sp, #12]
0x00007fd2c6015124  b9400be9		ldr w9, [sp, #8]
0x00007fd2c6015128  1b087d28		mul w8, w9, w8
0x00007fd2c601512c  b9000be8		str w8, [sp, #8]
[33m[WRN] [0mRobEntry 0x7fd2c5e06ea0 not ready due to 0x7fd2c5e0a880
0x00007fd2c6015130  b9400fe8		ldr w8, [sp, #12]
0x00007fd2c6015134  12800009		mov w9, #0xffffffff
0x00007fd2c6015138  0b090108		add w8, w8, w9
0x00007fd2c601513c  b9000fe8		str w8, [sp, #12]
[33m[WRN] [0mRobEntry 0x7fd2c5e07020 not ready due to 0x7fd2c5e0b600
0x00007fd2c6015140  17fffff4		b #-0x30 (addr 0x7fd2c6015110)
0x00007fd2c6015110  b9400fe8		ldr w8, [sp, #12]
0x00007fd2c6015114  7100051f		cmp w8, #0x1 (1)
0x00007fd2c6015118  54000041		b.ne #+0x8 (addr 0x7fd2c6015120)
0x00007fd2c6015120  b9400fe8		ldr w8, [sp, #12]
0x00007fd2c6015124  b9400be9		ldr w9, [sp, #8]
0x00007fd2c6015128  1b087d28		mul w8, w9, w8
0x00007fd2c601512c  b9000be8		str w8, [sp, #8]
[33m[WRN] [0mRobEntry 0x7fd2c5e07320 not ready due to 0x7fd2c5e0bae0
0x00007fd2c6015130  b9400fe8		ldr w8, [sp, #12]
0x00007fd2c6015134  12800009		mov w9, #0xffffffff
0x00007fd2c6015138  0b090108		add w8, w8, w9
0x00007fd2c601513c  b9000fe8		str w8, [sp, #12]
[33m[WRN] [0mRobEntry 0x7fd2c5e06300 not ready due to 0x7fd2c5e0c860
0x00007fd2c6015140  17fffff4		b #-0x30 (addr 0x7fd2c6015110)
0x00007fd2c6015110  b9400fe8		ldr w8, [sp, #12]
0x00007fd2c6015114  7100051f		cmp w8, #0x1 (1)
0x00007fd2c6015118  54000041		b.ne #+0x8 (addr 0x7fd2c6015120)
0x00007fd2c6015120  b9400fe8		ldr w8, [sp, #12]
0x00007fd2c6015124  b9400be9		ldr w9, [sp, #8]
0x00007fd2c6015128  1b087d28		mul w8, w9, w8
0x00007fd2c601512c  b9000be8		str w8, [sp, #8]
[33m[WRN] [0mRobEntry 0x7fd2c5e075c0 not ready due to 0x7fd2c5e0cd40
0x00007fd2c6015130  b9400fe8		ldr w8, [sp, #12]
0x00007fd2c6015134  12800009		mov w9, #0xffffffff
0x00007fd2c6015138  0b090108		add w8, w8, w9
0x00007fd2c601513c  b9000fe8		str w8, [sp, #12]
[33m[WRN] [0mRobEntry 0x7fd2c5e07740 not ready due to 0x7fd2c5e0dcc0
0x00007fd2c6015140  17fffff4		b #-0x30 (addr 0x7fd2c6015110)
0x00007fd2c6015110  b9400fe8		ldr w8, [sp, #12]
0x00007fd2c6015114  7100051f		cmp w8, #0x1 (1)
0x00007fd2c6015118  54000041		b.ne #+0x8 (addr 0x7fd2c6015120)
0x00007fd2c6015120  b9400fe8		ldr w8, [sp, #12]
0x00007fd2c6015124  b9400be9		ldr w9, [sp, #8]
0x00007fd2c6015128  1b087d28		mul w8, w9, w8
0x00007fd2c601512c  b9000be8		str w8, [sp, #8]
[33m[WRN] [0mRobEntry 0x7fd2c5e07a40 not ready due to 0x7fd2c5e0e1a0
[33m[WRN] [0m----------------------Experimental Execute--------------
[33m[WRN] [0mRobEntry 0x7fd2c5e06720 ready with 0x7fd2c5e03da0
[33m[WRN] [0mRobEntry 0x7fd2c5e06720 ready with 0x7fd2c5e065c0
[33m[WRN] [0mRobEntry 0x7fd2c5e06720 ready with 0x7fd2c5e03da0
[33m[WRN] [0mRobEntry 0x7fd2c5e06720 ready with 0x7fd2c5e065c0
[33m[WRN] [0mRobEntry 0x7fd2c5e06720 ready with 0x7fd2c5e03da0
[33m[WRN] [0mRobEntry 0x7fd2c5e06720 ready with 0x7fd2c5e065c0
[33m[WRN] [0mRobEntry 0x7fd2c5e068a0 not ready due to 0x7fd2c5e08f80
[33m[WRN] [0mRobEntry 0x7fd2c5e064a0 not ready due to 0x7fd2c5e09430
[33m[WRN] [0mRobEntry 0x7fd2c5e06500 not ready due to 0x7fd2c5e09728
[33m[WRN] [0mRobEntry 0x7fd2c5e069c0 not ready due to 0x7fd2c5e09ab0
[33m[WRN] [0mRobEntry 0x7fd2c5e06b40 not ready due to 0x7fd2c5e0a1e0
[33m[WRN] [0mRobEntry 0x7fd2c5e06cc0 not ready due to 0x7fd2c5e0a690
[33m[WRN] [0mRobEntry 0x7fd2c5e06d20 not ready due to 0x7fd2c5e0a988
[33m[WRN] [0mRobEntry 0x7fd2c5e06e40 not ready due to 0x7fd2c5e0ad10
[33m[WRN] [0mRobEntry 0x7fd2c5e06fc0 not ready due to 0x7fd2c5e0b440
[33m[WRN] [0mRobEntry 0x7fd2c5e07140 not ready due to 0x7fd2c5e0b8f0
[33m[WRN] [0mRobEntry 0x7fd2c5e071a0 not ready due to 0x7fd2c5e0bbe8
[33m[WRN] [0mRobEntry 0x7fd2c5e072c0 not ready due to 0x7fd2c5e0bf70
[33m[WRN] [0mRobEntry 0x7fd2c5e062a0 not ready due to 0x7fd2c5e0c6a0
[33m[WRN] [0mRobEntry 0x7fd2c5e073e0 not ready due to 0x7fd2c5e0cb50
[33m[WRN] [0mRobEntry 0x7fd2c5e07440 not ready due to 0x7fd2c5e0ce48
[33m[WRN] [0mRobEntry 0x7fd2c5e07560 not ready due to 0x7fd2c5e0d3d0
[33m[WRN] [0mRobEntry 0x7fd2c5e076e0 not ready due to 0x7fd2c5e0db00
[33m[WRN] [0mRobEntry 0x7fd2c5e07860 not ready due to 0x7fd2c5e0dfb0
[33m[WRN] [0mRobEntry 0x7fd2c5e078c0 not ready due to 0x7fd2c5e0e2a8
[33m[WRN] [0mRobEntry 0x7fd2c5e079e0 not ready due to 0x7fd2c5e0e630
0x00007fd2c6015128  1b087d28		mul w8, w9, w8
[33m[WRN] [0m[0x7fd2c5e06720] filled ticket 0x7fd2c5e01640
#    x8: 0x000000000000005a
[34m[DBG] [0m   Logic[0]: newPc <- 0x7fd2c601512c
0x00007fd2c6015130  b9400fe8		ldr w8, [sp, #12]
[33m[WRN] [0m[R31] RobEntry 0x7fd2c5e067e0 reads init val 0x0
[34m[DBG] [0m[MEM] read addr=0x7fd2c601d2dc len=0x4 val=0x9
[33m[WRN] [0m[0x7fd2c5e067e0] filled ticket 0x7fd2c5e08ee0
#    x8: 0x0000000000000009 <- 0x00007fd2c601d2dc
[34m[DBG] [0m   Logic[1]: newPc <- 0x7fd2c6015134
[34m[DBG] [0m   Scribe: retired 2 ROB entries (now: 0x7fd2c5e06720:Done)
[34m[DBG] [0m======================================== Update[26/28] 
[34m[DBG] [0m   Fetcher: buffer.size = 192
[34m[DBG] [0m   Logic: instr executed ? yes: 1
[34m[DBG] [0m   Logic: rStation size <- 63, rsVacancy <- 1
[34m[DBG] [0m======================================== Sync [26/28] 
[34m[DBG] [0m======================================== Cycle End

[34m[DBG] [0m======================================== Compute[27/28]
[34m[DBG] [0mPC Offsest: 0x140
[34m[DBG] [0m   Fetcher: at: 0x7fd2c6015140 (buffer 0:192)
[34m[DBG] [0m   Fetcher: front instr = 0x7fd2c6015140, fetched 64, tmpBuffer: 64
[34m[DBG] [0m   Decoder: front instr = 0x7fd2c6015140
[34m[DBG] [0m   Decoder: Logic reservation station is full
0x00007fd2c601512c  b9000be8		str w8, [sp, #8]
[33m[WRN] [0mRobEntry 0x7fd2c5e06780 ready with 0x7fd2c5e01640
0x00007fd2c6015134  12800009		mov w9, #0xffffffff
0x00007fd2c6015138  0b090108		add w8, w8, w9
0x00007fd2c601513c  b9000fe8		str w8, [sp, #12]
[33m[WRN] [0mRobEntry 0x7fd2c5e06900 not ready due to 0x7fd2c5e09140
0x00007fd2c6015140  17fffff4		b #-0x30 (addr 0x7fd2c6015110)
0x00007fd2c6015110  b9400fe8		ldr w8, [sp, #12]
0x00007fd2c6015114  7100051f		cmp w8, #0x1 (1)
0x00007fd2c6015118  54000041		b.ne #+0x8 (addr 0x7fd2c6015120)
0x00007fd2c6015120  b9400fe8		ldr w8, [sp, #12]
0x00007fd2c6015124  b9400be9		ldr w9, [sp, #8]
0x00007fd2c6015128  1b087d28		mul w8, w9, w8
0x00007fd2c601512c  b9000be8		str w8, [sp, #8]
[33m[WRN] [0mRobEntry 0x7fd2c5e06a20 not ready due to 0x7fd2c5e09620
0x00007fd2c6015130  b9400fe8		ldr w8, [sp, #12]
0x00007fd2c6015134  12800009		mov w9, #0xffffffff
0x00007fd2c6015138  0b090108		add w8, w8, w9
0x00007fd2c601513c  b9000fe8		str w8, [sp, #12]
[33m[WRN] [0mRobEntry 0x7fd2c5e06ba0 not ready due to 0x7fd2c5e0a3a0
0x00007fd2c6015140  17fffff4		b #-0x30 (addr 0x7fd2c6015110)
0x00007fd2c6015110  b9400fe8		ldr w8, [sp, #12]
0x00007fd2c6015114  7100051f		cmp w8, #0x1 (1)
0x00007fd2c6015118  54000041		b.ne #+0x8 (addr 0x7fd2c6015120)
0x00007fd2c6015120  b9400fe8		ldr w8, [sp, #12]
0x00007fd2c6015124  b9400be9		ldr w9, [sp, #8]
0x00007fd2c6015128  1b087d28		mul w8, w9, w8
0x00007fd2c601512c  b9000be8		str w8, [sp, #8]
[33m[WRN] [0mRobEntry 0x7fd2c5e06ea0 not ready due to 0x7fd2c5e0a880
0x00007fd2c6015130  b9400fe8		ldr w8, [sp, #12]
0x00007fd2c6015134  12800009		mov w9, #0xffffffff
0x00007fd2c6015138  0b090108		add w8, w8, w9
0x00007fd2c601513c  b9000fe8		str w8, [sp, #12]
[33m[WRN] [0mRobEntry 0x7fd2c5e07020 not ready due to 0x7fd2c5e0b600
0x00007fd2c6015140  17fffff4		b #-0x30 (addr 0x7fd2c6015110)
0x00007fd2c6015110  b9400fe8		ldr w8, [sp, #12]
0x00007fd2c6015114  7100051f		cmp w8, #0x1 (1)
0x00007fd2c6015118  54000041		b.ne #+0x8 (addr 0x7fd2c6015120)
0x00007fd2c6015120  b9400fe8		ldr w8, [sp, #12]
0x00007fd2c6015124  b9400be9		ldr w9, [sp, #8]
0x00007fd2c6015128  1b087d28		mul w8, w9, w8
0x00007fd2c601512c  b9000be8		str w8, [sp, #8]
[33m[WRN] [0mRobEntry 0x7fd2c5e07320 not ready due to 0x7fd2c5e0bae0
0x00007fd2c6015130  b9400fe8		ldr w8, [sp, #12]
0x00007fd2c6015134  12800009		mov w9, #0xffffffff
0x00007fd2c6015138  0b090108		add w8, w8, w9
0x00007fd2c601513c  b9000fe8		str w8, [sp, #12]
[33m[WRN] [0mRobEntry 0x7fd2c5e06300 not ready due to 0x7fd2c5e0c860
0x00007fd2c6015140  17fffff4		b #-0x30 (addr 0x7fd2c6015110)
0x00007fd2c6015110  b9400fe8		ldr w8, [sp, #12]
0x00007fd2c6015114  7100051f		cmp w8, #0x1 (1)
0x00007fd2c6015118  54000041		b.ne #+0x8 (addr 0x7fd2c6015120)
0x00007fd2c6015120  b9400fe8		ldr w8, [sp, #12]
0x00007fd2c6015124  b9400be9		ldr w9, [sp, #8]
0x00007fd2c6015128  1b087d28		mul w8, w9, w8
0x00007fd2c601512c  b9000be8		str w8, [sp, #8]
[33m[WRN] [0mRobEntry 0x7fd2c5e075c0 not ready due to 0x7fd2c5e0cd40
0x00007fd2c6015130  b9400fe8		ldr w8, [sp, #12]
0x00007fd2c6015134  12800009		mov w9, #0xffffffff
0x00007fd2c6015138  0b090108		add w8, w8, w9
0x00007fd2c601513c  b9000fe8		str w8, [sp, #12]
[33m[WRN] [0mRobEntry 0x7fd2c5e07740 not ready due to 0x7fd2c5e0dcc0
0x00007fd2c6015140  17fffff4		b #-0x30 (addr 0x7fd2c6015110)
0x00007fd2c6015110  b9400fe8		ldr w8, [sp, #12]
0x00007fd2c6015114  7100051f		cmp w8, #0x1 (1)
0x00007fd2c6015118  54000041		b.ne #+0x8 (addr 0x7fd2c6015120)
0x00007fd2c6015120  b9400fe8		ldr w8, [sp, #12]
0x00007fd2c6015124  b9400be9		ldr w9, [sp, #8]
0x00007fd2c6015128  1b087d28		mul w8, w9, w8
0x00007fd2c601512c  b9000be8		str w8, [sp, #8]
[33m[WRN] [0mRobEntry 0x7fd2c5e07a40 not ready due to 0x7fd2c5e0e1a0
0x00007fd2c6015130  b9400fe8		ldr w8, [sp, #12]
[33m[WRN] [0m[R31] RobCusor 0x7fd2c5e10320 read can go ahead (init)
[33m[WRN] [0m[R8] RobCusor 0x7fd2c5e10320 write can go ahead with ticket 0x7fd2c5e0ed40
0x00007fd2c6015134  12800009		mov w9, #0xffffffff
[33m[WRN] [0m[R9] RobCusor 0x7fd2c5e10380 write can go ahead with ticket 0x7fd2c5e0ede0
[33m[WRN] [0m----------------------Experimental Execute--------------
[33m[WRN] [0mRobEntry 0x7fd2c5e06780 ready with 0x7fd2c5e01640
[33m[WRN] [0mRobEntry 0x7fd2c5e068a0 not ready due to 0x7fd2c5e08f80
[33m[WRN] [0mRobEntry 0x7fd2c5e064a0 not ready due to 0x7fd2c5e09430
[33m[WRN] [0mRobEntry 0x7fd2c5e06500 not ready due to 0x7fd2c5e09728
[33m[WRN] [0mRobEntry 0x7fd2c5e069c0 not ready due to 0x7fd2c5e09ab0
[33m[WRN] [0mRobEntry 0x7fd2c5e06b40 not ready due to 0x7fd2c5e0a1e0
[33m[WRN] [0mRobEntry 0x7fd2c5e06cc0 not ready due to 0x7fd2c5e0a690
[33m[WRN] [0mRobEntry 0x7fd2c5e06d20 not ready due to 0x7fd2c5e0a988
[33m[WRN] [0mRobEntry 0x7fd2c5e06e40 not ready due to 0x7fd2c5e0ad10
[33m[WRN] [0mRobEntry 0x7fd2c5e06fc0 not ready due to 0x7fd2c5e0b440
[33m[WRN] [0mRobEntry 0x7fd2c5e07140 not ready due to 0x7fd2c5e0b8f0
[33m[WRN] [0mRobEntry 0x7fd2c5e071a0 not ready due to 0x7fd2c5e0bbe8
[33m[WRN] [0mRobEntry 0x7fd2c5e072c0 not ready due to 0x7fd2c5e0bf70
[33m[WRN] [0mRobEntry 0x7fd2c5e062a0 not ready due to 0x7fd2c5e0c6a0
[33m[WRN] [0mRobEntry 0x7fd2c5e073e0 not ready due to 0x7fd2c5e0cb50
[33m[WRN] [0mRobEntry 0x7fd2c5e07440 not ready due to 0x7fd2c5e0ce48
[33m[WRN] [0mRobEntry 0x7fd2c5e07560 not ready due to 0x7fd2c5e0d3d0
[33m[WRN] [0mRobEntry 0x7fd2c5e076e0 not ready due to 0x7fd2c5e0db00
[33m[WRN] [0mRobEntry 0x7fd2c5e07860 not ready due to 0x7fd2c5e0dfb0
[33m[WRN] [0mRobEntry 0x7fd2c5e078c0 not ready due to 0x7fd2c5e0e2a8
[33m[WRN] [0mRobEntry 0x7fd2c5e079e0 not ready due to 0x7fd2c5e0e630
0x00007fd2c601512c  b9000be8		str w8, [sp, #8]
[33m[WRN] [0m[R31] RobEntry 0x7fd2c5e06780 reads init val 0x0
[33m[WRN] [0mReal write: 0x7fd2c601d2d8, 0x5a
#    w8:         0x00000009 -> 0x00007fd2c601d2d8
[34m[DBG] [0m   Logic[0]: newPc <- 0x7fd2c6015130
0x00007fd2c6015134  12800009		mov w9, #0xffffffff
[33m[WRN] [0m[0x7fd2c5e06840] filled ticket 0x7fd2c5e08f80
#    x9: 0x00000000ffffffff
[34m[DBG] [0m   Logic[1]: newPc <- 0x7fd2c6015138
[34m[DBG] [0m   Scribe: retired 1 ROB entries (now: 0x7fd2c5e06780:Done)
[34m[DBG] [0m======================================== Update[27/29] 
[34m[DBG] [0m   Fetcher: buffer.size = 254
[34m[DBG] [0m   Logic: instr executed ? yes: 3
[34m[DBG] [0m   Logic: rStation size <- 61, rsVacancy <- 3
[34m[DBG] [0m======================================== Sync [27/29] 
[34m[DBG] [0m======================================== Cycle End

[34m[DBG] [0m======================================== Compute[28/29]
[34m[DBG] [0mPC Offsest: 0x120
[34m[DBG] [0m   Fetcher: at: 0x7fd2c6015120 (buffer 0:254)
[34m[DBG] [0m   Fetcher: front instr = 0x7fd2c6015120, fetched 64, tmpBuffer: 64
[34m[DBG] [0m   Decoder: front instr = 0x7fd2c6015114
[34m[DBG] [0m   Decoder: Logic reservation station is full
0x00007fd2c6015138  0b090108		add w8, w8, w9
0x00007fd2c601513c  b9000fe8		str w8, [sp, #12]
[33m[WRN] [0mRobEntry 0x7fd2c5e06900 not ready due to 0x7fd2c5e09140
0x00007fd2c6015140  17fffff4		b #-0x30 (addr 0x7fd2c6015110)
0x00007fd2c6015110  b9400fe8		ldr w8, [sp, #12]
0x00007fd2c6015114  7100051f		cmp w8, #0x1 (1)
0x00007fd2c6015118  54000041		b.ne #+0x8 (addr 0x7fd2c6015120)
0x00007fd2c6015120  b9400fe8		ldr w8, [sp, #12]
0x00007fd2c6015124  b9400be9		ldr w9, [sp, #8]
0x00007fd2c6015128  1b087d28		mul w8, w9, w8
0x00007fd2c601512c  b9000be8		str w8, [sp, #8]
[33m[WRN] [0mRobEntry 0x7fd2c5e06a20 not ready due to 0x7fd2c5e09620
0x00007fd2c6015130  b9400fe8		ldr w8, [sp, #12]
0x00007fd2c6015134  12800009		mov w9, #0xffffffff
0x00007fd2c6015138  0b090108		add w8, w8, w9
0x00007fd2c601513c  b9000fe8		str w8, [sp, #12]
[33m[WRN] [0mRobEntry 0x7fd2c5e06ba0 not ready due to 0x7fd2c5e0a3a0
0x00007fd2c6015140  17fffff4		b #-0x30 (addr 0x7fd2c6015110)
0x00007fd2c6015110  b9400fe8		ldr w8, [sp, #12]
0x00007fd2c6015114  7100051f		cmp w8, #0x1 (1)
0x00007fd2c6015118  54000041		b.ne #+0x8 (addr 0x7fd2c6015120)
0x00007fd2c6015120  b9400fe8		ldr w8, [sp, #12]
0x00007fd2c6015124  b9400be9		ldr w9, [sp, #8]
0x00007fd2c6015128  1b087d28		mul w8, w9, w8
0x00007fd2c601512c  b9000be8		str w8, [sp, #8]
[33m[WRN] [0mRobEntry 0x7fd2c5e06ea0 not ready due to 0x7fd2c5e0a880
0x00007fd2c6015130  b9400fe8		ldr w8, [sp, #12]
0x00007fd2c6015134  12800009		mov w9, #0xffffffff
0x00007fd2c6015138  0b090108		add w8, w8, w9
0x00007fd2c601513c  b9000fe8		str w8, [sp, #12]
[33m[WRN] [0mRobEntry 0x7fd2c5e07020 not ready due to 0x7fd2c5e0b600
0x00007fd2c6015140  17fffff4		b #-0x30 (addr 0x7fd2c6015110)
0x00007fd2c6015110  b9400fe8		ldr w8, [sp, #12]
0x00007fd2c6015114  7100051f		cmp w8, #0x1 (1)
0x00007fd2c6015118  54000041		b.ne #+0x8 (addr 0x7fd2c6015120)
0x00007fd2c6015120  b9400fe8		ldr w8, [sp, #12]
0x00007fd2c6015124  b9400be9		ldr w9, [sp, #8]
0x00007fd2c6015128  1b087d28		mul w8, w9, w8
0x00007fd2c601512c  b9000be8		str w8, [sp, #8]
[33m[WRN] [0mRobEntry 0x7fd2c5e07320 not ready due to 0x7fd2c5e0bae0
0x00007fd2c6015130  b9400fe8		ldr w8, [sp, #12]
0x00007fd2c6015134  12800009		mov w9, #0xffffffff
0x00007fd2c6015138  0b090108		add w8, w8, w9
0x00007fd2c601513c  b9000fe8		str w8, [sp, #12]
[33m[WRN] [0mRobEntry 0x7fd2c5e06300 not ready due to 0x7fd2c5e0c860
0x00007fd2c6015140  17fffff4		b #-0x30 (addr 0x7fd2c6015110)
0x00007fd2c6015110  b9400fe8		ldr w8, [sp, #12]
0x00007fd2c6015114  7100051f		cmp w8, #0x1 (1)
0x00007fd2c6015118  54000041		b.ne #+0x8 (addr 0x7fd2c6015120)
0x00007fd2c6015120  b9400fe8		ldr w8, [sp, #12]
0x00007fd2c6015124  b9400be9		ldr w9, [sp, #8]
0x00007fd2c6015128  1b087d28		mul w8, w9, w8
0x00007fd2c601512c  b9000be8		str w8, [sp, #8]
[33m[WRN] [0mRobEntry 0x7fd2c5e075c0 not ready due to 0x7fd2c5e0cd40
0x00007fd2c6015130  b9400fe8		ldr w8, [sp, #12]
0x00007fd2c6015134  12800009		mov w9, #0xffffffff
0x00007fd2c6015138  0b090108		add w8, w8, w9
0x00007fd2c601513c  b9000fe8		str w8, [sp, #12]
[33m[WRN] [0mRobEntry 0x7fd2c5e07740 not ready due to 0x7fd2c5e0dcc0
0x00007fd2c6015140  17fffff4		b #-0x30 (addr 0x7fd2c6015110)
0x00007fd2c6015110  b9400fe8		ldr w8, [sp, #12]
0x00007fd2c6015114  7100051f		cmp w8, #0x1 (1)
0x00007fd2c6015118  54000041		b.ne #+0x8 (addr 0x7fd2c6015120)
0x00007fd2c6015120  b9400fe8		ldr w8, [sp, #12]
0x00007fd2c6015124  b9400be9		ldr w9, [sp, #8]
0x00007fd2c6015128  1b087d28		mul w8, w9, w8
0x00007fd2c601512c  b9000be8		str w8, [sp, #8]
[33m[WRN] [0mRobEntry 0x7fd2c5e07a40 not ready due to 0x7fd2c5e0e1a0
0x00007fd2c6015130  b9400fe8		ldr w8, [sp, #12]
0x00007fd2c6015134  12800009		mov w9, #0xffffffff
0x00007fd2c6015138  0b090108		add w8, w8, w9
[33m[WRN] [0m[R9] RobCusor 0x7fd2c5e12260 read-depends on 0x7fd2c5e0ede0
[33m[WRN] [0m[R8] RobCusor 0x7fd2c5e12260 read-depends on 0x7fd2c5e0ed40
[33m[WRN] [0m[R8] RobCusor 0x7fd2c5e12260 write can go ahead with ticket 0x7fd2c5e0ee00
[33m[WRN] [0m----------------------Experimental Execute--------------
[33m[WRN] [0mRobEntry 0x7fd2c5e068a0 ready with 0x7fd2c5e08f80
[33m[WRN] [0mRobEntry 0x7fd2c5e068a0 ready with 0x7fd2c5e08ee0
[33m[WRN] [0mRobEntry 0x7fd2c5e064a0 not ready due to 0x7fd2c5e09430
[33m[WRN] [0mRobEntry 0x7fd2c5e06500 not ready due to 0x7fd2c5e09728
[33m[WRN] [0mRobEntry 0x7fd2c5e069c0 not ready due to 0x7fd2c5e09ab0
[33m[WRN] [0mRobEntry 0x7fd2c5e06b40 not ready due to 0x7fd2c5e0a1e0
[33m[WRN] [0mRobEntry 0x7fd2c5e06cc0 not ready due to 0x7fd2c5e0a690
[33m[WRN] [0mRobEntry 0x7fd2c5e06d20 not ready due to 0x7fd2c5e0a988
[33m[WRN] [0mRobEntry 0x7fd2c5e06e40 not ready due to 0x7fd2c5e0ad10
[33m[WRN] [0mRobEntry 0x7fd2c5e06fc0 not ready due to 0x7fd2c5e0b440
[33m[WRN] [0mRobEntry 0x7fd2c5e07140 not ready due to 0x7fd2c5e0b8f0
[33m[WRN] [0mRobEntry 0x7fd2c5e071a0 not ready due to 0x7fd2c5e0bbe8
[33m[WRN] [0mRobEntry 0x7fd2c5e072c0 not ready due to 0x7fd2c5e0bf70
[33m[WRN] [0mRobEntry 0x7fd2c5e062a0 not ready due to 0x7fd2c5e0c6a0
[33m[WRN] [0mRobEntry 0x7fd2c5e073e0 not ready due to 0x7fd2c5e0cb50
[33m[WRN] [0mRobEntry 0x7fd2c5e07440 not ready due to 0x7fd2c5e0ce48
[33m[WRN] [0mRobEntry 0x7fd2c5e07560 not ready due to 0x7fd2c5e0d3d0
[33m[WRN] [0mRobEntry 0x7fd2c5e076e0 not ready due to 0x7fd2c5e0db00
[33m[WRN] [0mRobEntry 0x7fd2c5e07860 not ready due to 0x7fd2c5e0dfb0
[33m[WRN] [0mRobEntry 0x7fd2c5e078c0 not ready due to 0x7fd2c5e0e2a8
[33m[WRN] [0mRobEntry 0x7fd2c5e079e0 not ready due to 0x7fd2c5e0e630
[33m[WRN] [0mRobEntry 0x7fd2c5e12260 not ready due to 0x7fd2c5e0ede0
0x00007fd2c6015138  0b090108		add w8, w8, w9
[33m[WRN] [0m[0x7fd2c5e068a0] filled ticket 0x7fd2c5e09140
#    x8: 0x0000000000000008
[34m[DBG] [0m   Logic[0]: newPc <- 0x7fd2c601513c
0x00007fd2c6015140  17fffff4		b #-0x30 (addr 0x7fd2c6015110)
#    pc: 0x7fd2c6015110 (by 0x7fd2c5e063e0)
[33m[WRN] [0m[0x7fd2c5e063e0] filled ticket 0x7fd2c5e09380
[34m[DBG] [0m   Logic[1]: newPc <- 0x7fd2c6015110
[34m[DBG] [0m   Scribe: retired 3 ROB entries (now: 0x7fd2c5e068a0:Done)
[34m[DBG] [0m======================================== Update[28/32] 
[34m[DBG] [0m   Fetcher: buffer.size = 317
[34m[DBG] [0m   Logic: Branch prediction 0x7fd2c6015140 was correct: 3
[34m[DBG] [0m   Logic: Correct branch: 0x7fd2c5e063e0 succ 0x7fd2c5e06440
[34m[DBG] [0m   Logic: 0x7fd2c5e063e0 affirmed speculative RobEntry 0x7fd2c5e06440
[34m[DBG] [0m   Logic: 0x7fd2c5e063e0 affirmed speculative RobEntry 0x7fd2c5e064a0
[34m[DBG] [0m   Logic: 0x7fd2c5e063e0 affirmed speculative RobEntry 0x7fd2c5e06500
[34m[DBG] [0m   Logic: instr executed ? yes: 1
[34m[DBG] [0m   Logic: rStation size <- 63, rsVacancy <- 1
[34m[DBG] [0m======================================== Sync [28/32] 
[34m[DBG] [0m======================================== Cycle End

[34m[DBG] [0m======================================== Compute[29/32]
[34m[DBG] [0mPC Offsest: 0x130
[34m[DBG] [0m   Fetcher: at: 0x7fd2c6015130 (buffer 0:317)
[34m[DBG] [0m   Fetcher: front instr = 0x7fd2c6015130, fetched 64, tmpBuffer: 64
[34m[DBG] [0m   Decoder: front instr = 0x7fd2c6015118
[34m[DBG] [0m   Decoder: Logic reservation station is full
0x00007fd2c601513c  b9000fe8		str w8, [sp, #12]
[33m[WRN] [0mRobEntry 0x7fd2c5e06900 ready with 0x7fd2c5e09140
0x00007fd2c6015110  b9400fe8		ldr w8, [sp, #12]
0x00007fd2c6015114  7100051f		cmp w8, #0x1 (1)
0x00007fd2c6015118  54000041		b.ne #+0x8 (addr 0x7fd2c6015120)
0x00007fd2c6015120  b9400fe8		ldr w8, [sp, #12]
0x00007fd2c6015124  b9400be9		ldr w9, [sp, #8]
0x00007fd2c6015128  1b087d28		mul w8, w9, w8
0x00007fd2c601512c  b9000be8		str w8, [sp, #8]
[33m[WRN] [0mRobEntry 0x7fd2c5e06a20 not ready due to 0x7fd2c5e09620
0x00007fd2c6015130  b9400fe8		ldr w8, [sp, #12]
0x00007fd2c6015134  12800009		mov w9, #0xffffffff
0x00007fd2c6015138  0b090108		add w8, w8, w9
0x00007fd2c601513c  b9000fe8		str w8, [sp, #12]
[33m[WRN] [0mRobEntry 0x7fd2c5e06ba0 not ready due to 0x7fd2c5e0a3a0
0x00007fd2c6015140  17fffff4		b #-0x30 (addr 0x7fd2c6015110)
0x00007fd2c6015110  b9400fe8		ldr w8, [sp, #12]
0x00007fd2c6015114  7100051f		cmp w8, #0x1 (1)
0x00007fd2c6015118  54000041		b.ne #+0x8 (addr 0x7fd2c6015120)
0x00007fd2c6015120  b9400fe8		ldr w8, [sp, #12]
0x00007fd2c6015124  b9400be9		ldr w9, [sp, #8]
0x00007fd2c6015128  1b087d28		mul w8, w9, w8
0x00007fd2c601512c  b9000be8		str w8, [sp, #8]
[33m[WRN] [0mRobEntry 0x7fd2c5e06ea0 not ready due to 0x7fd2c5e0a880
0x00007fd2c6015130  b9400fe8		ldr w8, [sp, #12]
0x00007fd2c6015134  12800009		mov w9, #0xffffffff
0x00007fd2c6015138  0b090108		add w8, w8, w9
0x00007fd2c601513c  b9000fe8		str w8, [sp, #12]
[33m[WRN] [0mRobEntry 0x7fd2c5e07020 not ready due to 0x7fd2c5e0b600
0x00007fd2c6015140  17fffff4		b #-0x30 (addr 0x7fd2c6015110)
0x00007fd2c6015110  b9400fe8		ldr w8, [sp, #12]
0x00007fd2c6015114  7100051f		cmp w8, #0x1 (1)
0x00007fd2c6015118  54000041		b.ne #+0x8 (addr 0x7fd2c6015120)
0x00007fd2c6015120  b9400fe8		ldr w8, [sp, #12]
0x00007fd2c6015124  b9400be9		ldr w9, [sp, #8]
0x00007fd2c6015128  1b087d28		mul w8, w9, w8
0x00007fd2c601512c  b9000be8		str w8, [sp, #8]
[33m[WRN] [0mRobEntry 0x7fd2c5e07320 not ready due to 0x7fd2c5e0bae0
0x00007fd2c6015130  b9400fe8		ldr w8, [sp, #12]
0x00007fd2c6015134  12800009		mov w9, #0xffffffff
0x00007fd2c6015138  0b090108		add w8, w8, w9
0x00007fd2c601513c  b9000fe8		str w8, [sp, #12]
[33m[WRN] [0mRobEntry 0x7fd2c5e06300 not ready due to 0x7fd2c5e0c860
0x00007fd2c6015140  17fffff4		b #-0x30 (addr 0x7fd2c6015110)
0x00007fd2c6015110  b9400fe8		ldr w8, [sp, #12]
0x00007fd2c6015114  7100051f		cmp w8, #0x1 (1)
0x00007fd2c6015118  54000041		b.ne #+0x8 (addr 0x7fd2c6015120)
0x00007fd2c6015120  b9400fe8		ldr w8, [sp, #12]
0x00007fd2c6015124  b9400be9		ldr w9, [sp, #8]
0x00007fd2c6015128  1b087d28		mul w8, w9, w8
0x00007fd2c601512c  b9000be8		str w8, [sp, #8]
[33m[WRN] [0mRobEntry 0x7fd2c5e075c0 not ready due to 0x7fd2c5e0cd40
0x00007fd2c6015130  b9400fe8		ldr w8, [sp, #12]
0x00007fd2c6015134  12800009		mov w9, #0xffffffff
0x00007fd2c6015138  0b090108		add w8, w8, w9
0x00007fd2c601513c  b9000fe8		str w8, [sp, #12]
[33m[WRN] [0mRobEntry 0x7fd2c5e07740 not ready due to 0x7fd2c5e0dcc0
0x00007fd2c6015140  17fffff4		b #-0x30 (addr 0x7fd2c6015110)
0x00007fd2c6015110  b9400fe8		ldr w8, [sp, #12]
0x00007fd2c6015114  7100051f		cmp w8, #0x1 (1)
0x00007fd2c6015118  54000041		b.ne #+0x8 (addr 0x7fd2c6015120)
0x00007fd2c6015120  b9400fe8		ldr w8, [sp, #12]
0x00007fd2c6015124  b9400be9		ldr w9, [sp, #8]
0x00007fd2c6015128  1b087d28		mul w8, w9, w8
0x00007fd2c601512c  b9000be8		str w8, [sp, #8]
[33m[WRN] [0mRobEntry 0x7fd2c5e07a40 not ready due to 0x7fd2c5e0e1a0
0x00007fd2c6015130  b9400fe8		ldr w8, [sp, #12]
0x00007fd2c6015134  12800009		mov w9, #0xffffffff
0x00007fd2c6015138  0b090108		add w8, w8, w9
0x00007fd2c601513c  b9000fe8		str w8, [sp, #12]
[33m[WRN] [0m[R31] RobCusor 0x7fd2c5e14020 read can go ahead (init)
[33m[WRN] [0m[R8] RobCusor 0x7fd2c5e14020 read-depends on 0x7fd2c5e0ee00
[33m[WRN] [0mRobEntry 0x7fd2c5e14020 not ready due to 0x7fd2c5e0ee00
0x00007fd2c6015140  17fffff4		b #-0x30 (addr 0x7fd2c6015110)
0x00007fd2c6015110  b9400fe8		ldr w8, [sp, #12]
[33m[WRN] [0m[R31] RobCusor 0x7fd2c5e140e0 read can go ahead (init)
[33m[WRN] [0m[R8] RobCusor 0x7fd2c5e140e0 write can go ahead with ticket 0x7fd2c5e12df0
[33m[WRN] [0m----------------------Experimental Execute--------------
[33m[WRN] [0mRobEntry 0x7fd2c5e06900 ready with 0x7fd2c5e09140
[33m[WRN] [0mRobEntry 0x7fd2c5e064a0 not ready due to 0x7fd2c5e09430
[33m[WRN] [0mRobEntry 0x7fd2c5e06500 not ready due to 0x7fd2c5e09728
[33m[WRN] [0mRobEntry 0x7fd2c5e069c0 not ready due to 0x7fd2c5e09ab0
[33m[WRN] [0mRobEntry 0x7fd2c5e06b40 not ready due to 0x7fd2c5e0a1e0
[33m[WRN] [0mRobEntry 0x7fd2c5e06cc0 not ready due to 0x7fd2c5e0a690
[33m[WRN] [0mRobEntry 0x7fd2c5e06d20 not ready due to 0x7fd2c5e0a988
[33m[WRN] [0mRobEntry 0x7fd2c5e06e40 not ready due to 0x7fd2c5e0ad10
[33m[WRN] [0mRobEntry 0x7fd2c5e06fc0 not ready due to 0x7fd2c5e0b440
[33m[WRN] [0mRobEntry 0x7fd2c5e07140 not ready due to 0x7fd2c5e0b8f0
[33m[WRN] [0mRobEntry 0x7fd2c5e071a0 not ready due to 0x7fd2c5e0bbe8
[33m[WRN] [0mRobEntry 0x7fd2c5e072c0 not ready due to 0x7fd2c5e0bf70
[33m[WRN] [0mRobEntry 0x7fd2c5e062a0 not ready due to 0x7fd2c5e0c6a0
[33m[WRN] [0mRobEntry 0x7fd2c5e073e0 not ready due to 0x7fd2c5e0cb50
[33m[WRN] [0mRobEntry 0x7fd2c5e07440 not ready due to 0x7fd2c5e0ce48
[33m[WRN] [0mRobEntry 0x7fd2c5e07560 not ready due to 0x7fd2c5e0d3d0
[33m[WRN] [0mRobEntry 0x7fd2c5e076e0 not ready due to 0x7fd2c5e0db00
[33m[WRN] [0mRobEntry 0x7fd2c5e07860 not ready due to 0x7fd2c5e0dfb0
[33m[WRN] [0mRobEntry 0x7fd2c5e078c0 not ready due to 0x7fd2c5e0e2a8
[33m[WRN] [0mRobEntry 0x7fd2c5e079e0 not ready due to 0x7fd2c5e0e630
[33m[WRN] [0mRobEntry 0x7fd2c5e12260 not ready due to 0x7fd2c5e0ede0
0x00007fd2c601513c  b9000fe8		str w8, [sp, #12]
[33m[WRN] [0m[R31] RobEntry 0x7fd2c5e06900 reads init val 0x0
[33m[WRN] [0mReal write: 0x7fd2c601d2dc, 0x8
#    w8:         0x00000008 -> 0x00007fd2c601d2dc
[34m[DBG] [0m   Logic[0]: newPc <- 0x7fd2c6015140
0x00007fd2c6015124  b9400be9		ldr w9, [sp, #8]
[33m[WRN] [0m[R31] RobEntry 0x7fd2c5e06960 reads init val 0x0
[34m[DBG] [0m[MEM] read addr=0x7fd2c601d2d8 len=0x4 val=0x5a
[33m[WRN] [0m[R9] Speculative write by 0x7fd2c5e06960 val=0x5a
[33m[WRN] [0m[0x7fd2c5e06960] filled ticket 0x7fd2c5e09ab0
#    x9: 0x00000000ffffffff <- 0x00007fd2c601d2d8
[34m[DBG] [0m   Logic[1]: speculation no set pc
[34m[DBG] [0m   Scribe: retired 1 ROB entries (now: 0x7fd2c5e06900:Done)
[34m[DBG] [0m======================================== Update[29/33] 
[34m[DBG] [0m   Fetcher: buffer.size = 378
[34m[DBG] [0m   Logic: instr executed ? yes: 2
[34m[DBG] [0m   Logic: rStation size <- 62, rsVacancy <- 2
[34m[DBG] [0m======================================== Sync [29/33] 
[34m[DBG] [0m======================================== Cycle End

[34m[DBG] [0m======================================== Compute[30/33]
[34m[DBG] [0mPC Offsest: 0x140
[34m[DBG] [0m   Fetcher: at: 0x7fd2c6015140 (buffer 0:378)
[34m[DBG] [0m   Fetcher: front instr = 0x7fd2c6015140, fetched 64, tmpBuffer: 64
[34m[DBG] [0m   Decoder: front instr = 0x7fd2c6015128
[34m[DBG] [0m   Decoder: Logic reservation station is full
0x00007fd2c6015110  b9400fe8		ldr w8, [sp, #12]
0x00007fd2c6015114  7100051f		cmp w8, #0x1 (1)
0x00007fd2c6015118  54000041		b.ne #+0x8 (addr 0x7fd2c6015120)
0x00007fd2c6015120  b9400fe8		ldr w8, [sp, #12]
0x00007fd2c6015128  1b087d28		mul w8, w9, w8
0x00007fd2c601512c  b9000be8		str w8, [sp, #8]
[33m[WRN] [0mRobEntry 0x7fd2c5e06a20 not ready due to 0x7fd2c5e09620
0x00007fd2c6015130  b9400fe8		ldr w8, [sp, #12]
0x00007fd2c6015134  12800009		mov w9, #0xffffffff
0x00007fd2c6015138  0b090108		add w8, w8, w9
0x00007fd2c601513c  b9000fe8		str w8, [sp, #12]
[33m[WRN] [0mRobEntry 0x7fd2c5e06ba0 not ready due to 0x7fd2c5e0a3a0
0x00007fd2c6015140  17fffff4		b #-0x30 (addr 0x7fd2c6015110)
0x00007fd2c6015110  b9400fe8		ldr w8, [sp, #12]
0x00007fd2c6015114  7100051f		cmp w8, #0x1 (1)
0x00007fd2c6015118  54000041		b.ne #+0x8 (addr 0x7fd2c6015120)
0x00007fd2c6015120  b9400fe8		ldr w8, [sp, #12]
0x00007fd2c6015124  b9400be9		ldr w9, [sp, #8]
0x00007fd2c6015128  1b087d28		mul w8, w9, w8
0x00007fd2c601512c  b9000be8		str w8, [sp, #8]
[33m[WRN] [0mRobEntry 0x7fd2c5e06ea0 not ready due to 0x7fd2c5e0a880
0x00007fd2c6015130  b9400fe8		ldr w8, [sp, #12]
0x00007fd2c6015134  12800009		mov w9, #0xffffffff
0x00007fd2c6015138  0b090108		add w8, w8, w9
0x00007fd2c601513c  b9000fe8		str w8, [sp, #12]
[33m[WRN] [0mRobEntry 0x7fd2c5e07020 not ready due to 0x7fd2c5e0b600
0x00007fd2c6015140  17fffff4		b #-0x30 (addr 0x7fd2c6015110)
0x00007fd2c6015110  b9400fe8		ldr w8, [sp, #12]
0x00007fd2c6015114  7100051f		cmp w8, #0x1 (1)
0x00007fd2c6015118  54000041		b.ne #+0x8 (addr 0x7fd2c6015120)
0x00007fd2c6015120  b9400fe8		ldr w8, [sp, #12]
0x00007fd2c6015124  b9400be9		ldr w9, [sp, #8]
0x00007fd2c6015128  1b087d28		mul w8, w9, w8
0x00007fd2c601512c  b9000be8		str w8, [sp, #8]
[33m[WRN] [0mRobEntry 0x7fd2c5e07320 not ready due to 0x7fd2c5e0bae0
0x00007fd2c6015130  b9400fe8		ldr w8, [sp, #12]
0x00007fd2c6015134  12800009		mov w9, #0xffffffff
0x00007fd2c6015138  0b090108		add w8, w8, w9
0x00007fd2c601513c  b9000fe8		str w8, [sp, #12]
[33m[WRN] [0mRobEntry 0x7fd2c5e06300 not ready due to 0x7fd2c5e0c860
0x00007fd2c6015140  17fffff4		b #-0x30 (addr 0x7fd2c6015110)
0x00007fd2c6015110  b9400fe8		ldr w8, [sp, #12]
0x00007fd2c6015114  7100051f		cmp w8, #0x1 (1)
0x00007fd2c6015118  54000041		b.ne #+0x8 (addr 0x7fd2c6015120)
0x00007fd2c6015120  b9400fe8		ldr w8, [sp, #12]
0x00007fd2c6015124  b9400be9		ldr w9, [sp, #8]
0x00007fd2c6015128  1b087d28		mul w8, w9, w8
0x00007fd2c601512c  b9000be8		str w8, [sp, #8]
[33m[WRN] [0mRobEntry 0x7fd2c5e075c0 not ready due to 0x7fd2c5e0cd40
0x00007fd2c6015130  b9400fe8		ldr w8, [sp, #12]
0x00007fd2c6015134  12800009		mov w9, #0xffffffff
0x00007fd2c6015138  0b090108		add w8, w8, w9
0x00007fd2c601513c  b9000fe8		str w8, [sp, #12]
[33m[WRN] [0mRobEntry 0x7fd2c5e07740 not ready due to 0x7fd2c5e0dcc0
0x00007fd2c6015140  17fffff4		b #-0x30 (addr 0x7fd2c6015110)
0x00007fd2c6015110  b9400fe8		ldr w8, [sp, #12]
0x00007fd2c6015114  7100051f		cmp w8, #0x1 (1)
0x00007fd2c6015118  54000041		b.ne #+0x8 (addr 0x7fd2c6015120)
0x00007fd2c6015120  b9400fe8		ldr w8, [sp, #12]
0x00007fd2c6015124  b9400be9		ldr w9, [sp, #8]
0x00007fd2c6015128  1b087d28		mul w8, w9, w8
0x00007fd2c601512c  b9000be8		str w8, [sp, #8]
[33m[WRN] [0mRobEntry 0x7fd2c5e07a40 not ready due to 0x7fd2c5e0e1a0
0x00007fd2c6015130  b9400fe8		ldr w8, [sp, #12]
0x00007fd2c6015134  12800009		mov w9, #0xffffffff
0x00007fd2c6015138  0b090108		add w8, w8, w9
0x00007fd2c601513c  b9000fe8		str w8, [sp, #12]
[33m[WRN] [0mRobEntry 0x7fd2c5e14020 not ready due to 0x7fd2c5e0ee00
0x00007fd2c6015140  17fffff4		b #-0x30 (addr 0x7fd2c6015110)
0x00007fd2c6015110  b9400fe8		ldr w8, [sp, #12]
0x00007fd2c6015114  7100051f		cmp w8, #0x1 (1)
[33m[WRN] [0m[R8] RobCusor 0x7fd2c5e16300 read-depends on 0x7fd2c5e12df0
[33m[WRN] [0m[NZCV] RobCusor 0x7fd2c5e16300 write can go ahead with ticket 0x7fd2c5e10280
[33m[WRN] [0m[NZCV] RobCusor 0x7fd2c5e16300 write can go ahead with ticket 0x7fd2c5e17028
[33m[WRN] [0m[NZCV] RobCusor 0x7fd2c5e16300 write can go ahead with ticket 0x7fd2c5e188e0
[33m[WRN] [0m[NZCV] RobCusor 0x7fd2c5e16300 write can go ahead with ticket 0x7fd2c5e188f8
[33m[WRN] [0m----------------------Experimental Execute--------------
[33m[WRN] [0mRobEntry 0x7fd2c5e064a0 not ready due to 0x7fd2c5e09430
[33m[WRN] [0mRobEntry 0x7fd2c5e06500 not ready due to 0x7fd2c5e09728
[33m[WRN] [0mRobEntry 0x7fd2c5e069c0 ready with 0x7fd2c5e09ab0
[33m[WRN] [0mRobEntry 0x7fd2c5e069c0 not ready due to 0x7fd2c5e09980
[33m[WRN] [0mRobEntry 0x7fd2c5e06b40 not ready due to 0x7fd2c5e0a1e0
[33m[WRN] [0mRobEntry 0x7fd2c5e06cc0 not ready due to 0x7fd2c5e0a690
[33m[WRN] [0mRobEntry 0x7fd2c5e06d20 not ready due to 0x7fd2c5e0a988
[33m[WRN] [0mRobEntry 0x7fd2c5e06e40 not ready due to 0x7fd2c5e0ad10
[33m[WRN] [0mRobEntry 0x7fd2c5e06fc0 not ready due to 0x7fd2c5e0b440
[33m[WRN] [0mRobEntry 0x7fd2c5e07140 not ready due to 0x7fd2c5e0b8f0
[33m[WRN] [0mRobEntry 0x7fd2c5e071a0 not ready due to 0x7fd2c5e0bbe8
[33m[WRN] [0mRobEntry 0x7fd2c5e072c0 not ready due to 0x7fd2c5e0bf70
[33m[WRN] [0mRobEntry 0x7fd2c5e062a0 not ready due to 0x7fd2c5e0c6a0
[33m[WRN] [0mRobEntry 0x7fd2c5e073e0 not ready due to 0x7fd2c5e0cb50
[33m[WRN] [0mRobEntry 0x7fd2c5e07440 not ready due to 0x7fd2c5e0ce48
[33m[WRN] [0mRobEntry 0x7fd2c5e07560 not ready due to 0x7fd2c5e0d3d0
[33m[WRN] [0mRobEntry 0x7fd2c5e076e0 not ready due to 0x7fd2c5e0db00
[33m[WRN] [0mRobEntry 0x7fd2c5e07860 not ready due to 0x7fd2c5e0dfb0
[33m[WRN] [0mRobEntry 0x7fd2c5e078c0 not ready due to 0x7fd2c5e0e2a8
[33m[WRN] [0mRobEntry 0x7fd2c5e079e0 not ready due to 0x7fd2c5e0e630
[33m[WRN] [0mRobEntry 0x7fd2c5e12260 not ready due to 0x7fd2c5e0ede0
[33m[WRN] [0mRobEntry 0x7fd2c5e16300 not ready due to 0x7fd2c5e12df0
0x00007fd2c6015110  b9400fe8		ldr w8, [sp, #12]
[33m[WRN] [0m[R31] RobEntry 0x7fd2c5e06440 reads init val 0x0
[34m[DBG] [0m[MEM] read addr=0x7fd2c601d2dc len=0x4 val=0x8
[33m[WRN] [0m[0x7fd2c5e06440] filled ticket 0x7fd2c5e09430
#    x8: 0x0000000000000008 <- 0x00007fd2c601d2dc
[34m[DBG] [0m   Logic[0]: newPc <- 0x7fd2c6015114
0x00007fd2c6015120  b9400fe8		ldr w8, [sp, #12]
[33m[WRN] [0m[R31] RobEntry 0x7fd2c5e06560 reads init val 0x0
[34m[DBG] [0m[MEM] read addr=0x7fd2c601d2dc len=0x4 val=0x8
[33m[WRN] [0m[R8] Speculative write by 0x7fd2c5e06560 val=0x8
[33m[WRN] [0m[0x7fd2c5e06560] filled ticket 0x7fd2c5e09980
#    x8: 0x0000000000000008 <- 0x00007fd2c601d2dc
[34m[DBG] [0m   Logic[1]: speculation no set pc
[34m[DBG] [0m   Scribe: retired 2 ROB entries (now: 0x7fd2c5e06440:Done)
[34m[DBG] [0m======================================== Update[30/35] 
[34m[DBG] [0m   Fetcher: buffer.size = 441
[34m[DBG] [0m   Logic: instr executed ? yes: 1
[34m[DBG] [0m   Logic: rStation size <- 63, rsVacancy <- 1
[34m[DBG] [0m======================================== Sync [30/35] 
[34m[DBG] [0m======================================== Cycle End

[34m[DBG] [0m======================================== Compute[31/35]
[34m[DBG] [0mPC Offsest: 0x120
[34m[DBG] [0m   Fetcher: at: 0x7fd2c6015120 (buffer 0:441)
[34m[DBG] [0m   Fetcher: front instr = 0x7fd2c6015120, fetched 64, tmpBuffer: 64
[34m[DBG] [0m   Decoder: front instr = 0x7fd2c601512c
[34m[DBG] [0m   Decoder: Logic reservation station is full
0x00007fd2c6015114  7100051f		cmp w8, #0x1 (1)
0x00007fd2c6015118  54000041		b.ne #+0x8 (addr 0x7fd2c6015120)
0x00007fd2c6015128  1b087d28		mul w8, w9, w8
0x00007fd2c601512c  b9000be8		str w8, [sp, #8]
[33m[WRN] [0mRobEntry 0x7fd2c5e06a20 not ready due to 0x7fd2c5e09620
0x00007fd2c6015130  b9400fe8		ldr w8, [sp, #12]
0x00007fd2c6015134  12800009		mov w9, #0xffffffff
0x00007fd2c6015138  0b090108		add w8, w8, w9
0x00007fd2c601513c  b9000fe8		str w8, [sp, #12]
[33m[WRN] [0mRobEntry 0x7fd2c5e06ba0 not ready due to 0x7fd2c5e0a3a0
0x00007fd2c6015140  17fffff4		b #-0x30 (addr 0x7fd2c6015110)
0x00007fd2c6015110  b9400fe8		ldr w8, [sp, #12]
0x00007fd2c6015114  7100051f		cmp w8, #0x1 (1)
0x00007fd2c6015118  54000041		b.ne #+0x8 (addr 0x7fd2c6015120)
0x00007fd2c6015120  b9400fe8		ldr w8, [sp, #12]
0x00007fd2c6015124  b9400be9		ldr w9, [sp, #8]
0x00007fd2c6015128  1b087d28		mul w8, w9, w8
0x00007fd2c601512c  b9000be8		str w8, [sp, #8]
[33m[WRN] [0mRobEntry 0x7fd2c5e06ea0 not ready due to 0x7fd2c5e0a880
0x00007fd2c6015130  b9400fe8		ldr w8, [sp, #12]
0x00007fd2c6015134  12800009		mov w9, #0xffffffff
0x00007fd2c6015138  0b090108		add w8, w8, w9
0x00007fd2c601513c  b9000fe8		str w8, [sp, #12]
[33m[WRN] [0mRobEntry 0x7fd2c5e07020 not ready due to 0x7fd2c5e0b600
0x00007fd2c6015140  17fffff4		b #-0x30 (addr 0x7fd2c6015110)
0x00007fd2c6015110  b9400fe8		ldr w8, [sp, #12]
0x00007fd2c6015114  7100051f		cmp w8, #0x1 (1)
0x00007fd2c6015118  54000041		b.ne #+0x8 (addr 0x7fd2c6015120)
0x00007fd2c6015120  b9400fe8		ldr w8, [sp, #12]
0x00007fd2c6015124  b9400be9		ldr w9, [sp, #8]
0x00007fd2c6015128  1b087d28		mul w8, w9, w8
0x00007fd2c601512c  b9000be8		str w8, [sp, #8]
[33m[WRN] [0mRobEntry 0x7fd2c5e07320 not ready due to 0x7fd2c5e0bae0
0x00007fd2c6015130  b9400fe8		ldr w8, [sp, #12]
0x00007fd2c6015134  12800009		mov w9, #0xffffffff
0x00007fd2c6015138  0b090108		add w8, w8, w9
0x00007fd2c601513c  b9000fe8		str w8, [sp, #12]
[33m[WRN] [0mRobEntry 0x7fd2c5e06300 not ready due to 0x7fd2c5e0c860
0x00007fd2c6015140  17fffff4		b #-0x30 (addr 0x7fd2c6015110)
0x00007fd2c6015110  b9400fe8		ldr w8, [sp, #12]
0x00007fd2c6015114  7100051f		cmp w8, #0x1 (1)
0x00007fd2c6015118  54000041		b.ne #+0x8 (addr 0x7fd2c6015120)
0x00007fd2c6015120  b9400fe8		ldr w8, [sp, #12]
0x00007fd2c6015124  b9400be9		ldr w9, [sp, #8]
0x00007fd2c6015128  1b087d28		mul w8, w9, w8
0x00007fd2c601512c  b9000be8		str w8, [sp, #8]
[33m[WRN] [0mRobEntry 0x7fd2c5e075c0 not ready due to 0x7fd2c5e0cd40
0x00007fd2c6015130  b9400fe8		ldr w8, [sp, #12]
0x00007fd2c6015134  12800009		mov w9, #0xffffffff
0x00007fd2c6015138  0b090108		add w8, w8, w9
0x00007fd2c601513c  b9000fe8		str w8, [sp, #12]
[33m[WRN] [0mRobEntry 0x7fd2c5e07740 not ready due to 0x7fd2c5e0dcc0
0x00007fd2c6015140  17fffff4		b #-0x30 (addr 0x7fd2c6015110)
0x00007fd2c6015110  b9400fe8		ldr w8, [sp, #12]
0x00007fd2c6015114  7100051f		cmp w8, #0x1 (1)
0x00007fd2c6015118  54000041		b.ne #+0x8 (addr 0x7fd2c6015120)
0x00007fd2c6015120  b9400fe8		ldr w8, [sp, #12]
0x00007fd2c6015124  b9400be9		ldr w9, [sp, #8]
0x00007fd2c6015128  1b087d28		mul w8, w9, w8
0x00007fd2c601512c  b9000be8		str w8, [sp, #8]
[33m[WRN] [0mRobEntry 0x7fd2c5e07a40 not ready due to 0x7fd2c5e0e1a0
0x00007fd2c6015130  b9400fe8		ldr w8, [sp, #12]
0x00007fd2c6015134  12800009		mov w9, #0xffffffff
0x00007fd2c6015138  0b090108		add w8, w8, w9
0x00007fd2c601513c  b9000fe8		str w8, [sp, #12]
[33m[WRN] [0mRobEntry 0x7fd2c5e14020 not ready due to 0x7fd2c5e0ee00
0x00007fd2c6015140  17fffff4		b #-0x30 (addr 0x7fd2c6015110)
0x00007fd2c6015110  b9400fe8		ldr w8, [sp, #12]
0x00007fd2c6015114  7100051f		cmp w8, #0x1 (1)
0x00007fd2c6015118  54000041		b.ne #+0x8 (addr 0x7fd2c6015120)
[33m[WRN] [0m[NZCV] RobCusor 0x7fd2c5e182d0 read-depends on 0x7fd2c5e188f8
0x00007fd2c6015120  b9400fe8		ldr w8, [sp, #12]
[33m[WRN] [0m[R31] RobCusor 0x7fd2c5e100a0 read can go ahead (init)
[33m[WRN] [0m[R8] RobCusor 0x7fd2c5e100a0 write can go ahead with ticket 0x7fd2c5e18d10
[33m[WRN] [0m----------------------Experimental Execute--------------
[33m[WRN] [0mRobEntry 0x7fd2c5e064a0 ready with 0x7fd2c5e09430
[33m[WRN] [0mRobEntry 0x7fd2c5e06500 not ready due to 0x7fd2c5e09728
[33m[WRN] [0mRobEntry 0x7fd2c5e069c0 ready with 0x7fd2c5e09ab0
[33m[WRN] [0mRobEntry 0x7fd2c5e069c0 ready with 0x7fd2c5e09980
[33m[WRN] [0mRobEntry 0x7fd2c5e069c0 ready with 0x7fd2c5e09ab0
[33m[WRN] [0mRobEntry 0x7fd2c5e069c0 ready with 0x7fd2c5e09980
[33m[WRN] [0mRobEntry 0x7fd2c5e069c0 ready with 0x7fd2c5e09ab0
[33m[WRN] [0mRobEntry 0x7fd2c5e069c0 ready with 0x7fd2c5e09980
[33m[WRN] [0mRobEntry 0x7fd2c5e06b40 not ready due to 0x7fd2c5e0a1e0
[33m[WRN] [0mRobEntry 0x7fd2c5e06cc0 not ready due to 0x7fd2c5e0a690
[33m[WRN] [0mRobEntry 0x7fd2c5e06d20 not ready due to 0x7fd2c5e0a988
[33m[WRN] [0mRobEntry 0x7fd2c5e06e40 not ready due to 0x7fd2c5e0ad10
[33m[WRN] [0mRobEntry 0x7fd2c5e06fc0 not ready due to 0x7fd2c5e0b440
[33m[WRN] [0mRobEntry 0x7fd2c5e07140 not ready due to 0x7fd2c5e0b8f0
[33m[WRN] [0mRobEntry 0x7fd2c5e071a0 not ready due to 0x7fd2c5e0bbe8
[33m[WRN] [0mRobEntry 0x7fd2c5e072c0 not ready due to 0x7fd2c5e0bf70
[33m[WRN] [0mRobEntry 0x7fd2c5e062a0 not ready due to 0x7fd2c5e0c6a0
[33m[WRN] [0mRobEntry 0x7fd2c5e073e0 not ready due to 0x7fd2c5e0cb50
[33m[WRN] [0mRobEntry 0x7fd2c5e07440 not ready due to 0x7fd2c5e0ce48
[33m[WRN] [0mRobEntry 0x7fd2c5e07560 not ready due to 0x7fd2c5e0d3d0
[33m[WRN] [0mRobEntry 0x7fd2c5e076e0 not ready due to 0x7fd2c5e0db00
[33m[WRN] [0mRobEntry 0x7fd2c5e07860 not ready due to 0x7fd2c5e0dfb0
[33m[WRN] [0mRobEntry 0x7fd2c5e078c0 not ready due to 0x7fd2c5e0e2a8
[33m[WRN] [0mRobEntry 0x7fd2c5e079e0 not ready due to 0x7fd2c5e0e630
[33m[WRN] [0mRobEntry 0x7fd2c5e12260 not ready due to 0x7fd2c5e0ede0
[33m[WRN] [0mRobEntry 0x7fd2c5e16300 not ready due to 0x7fd2c5e12df0
[33m[WRN] [0mRobEntry 0x7fd2c5e182d0 not ready due to 0x7fd2c5e188f8
0x00007fd2c6015114  7100051f		cmp w8, #0x1 (1)
[33m[WRN] [0m[0x7fd2c5e064a0] filled ticket 0x7fd2c5e096e0
[33m[WRN] [0m[0x7fd2c5e064a0] filled ticket 0x7fd2c5e096f8
[33m[WRN] [0m[0x7fd2c5e064a0] filled ticket 0x7fd2c5e09710
[33m[WRN] [0m[0x7fd2c5e064a0] filled ticket 0x7fd2c5e09728
[33m[WRN] [0m[0x7fd2c5e064a0] filled ticket 0x7fd2c5e096e0
[33m[WRN] [0m[0x7fd2c5e064a0] filled ticket 0x7fd2c5e096f8
[33m[WRN] [0m[0x7fd2c5e064a0] filled ticket 0x7fd2c5e09710
[33m[WRN] [0m[0x7fd2c5e064a0] filled ticket 0x7fd2c5e09728
[33m[WRN] [0m[0x7fd2c5e064a0] filled ticket 0x7fd2c5e096e0
[33m[WRN] [0m[0x7fd2c5e064a0] filled ticket 0x7fd2c5e096f8
[33m[WRN] [0m[0x7fd2c5e064a0] filled ticket 0x7fd2c5e09710
[33m[WRN] [0m[0x7fd2c5e064a0] filled ticket 0x7fd2c5e09728
[33m[WRN] [0m[0x7fd2c5e064a0] filled ticket 0x7fd2c5e096e0
[33m[WRN] [0m[0x7fd2c5e064a0] filled ticket 0x7fd2c5e096f8
[33m[WRN] [0m[0x7fd2c5e064a0] filled ticket 0x7fd2c5e09710
[33m[WRN] [0m[0x7fd2c5e064a0] filled ticket 0x7fd2c5e09728
# NZCV: N:0 Z:0 C:1 V:0
[34m[DBG] [0m   Logic[0]: newPc <- 0x7fd2c6015118
0x00007fd2c6015128  1b087d28		mul w8, w9, w8
[33m[WRN] [0m[R8] Speculative write by 0x7fd2c5e069c0 val=0x7fffffff8
[33m[WRN] [0m[0x7fd2c5e069c0] filled ticket 0x7fd2c5e09620
#    x8: 0x0000000000000008
[34m[DBG] [0m   Logic[1]: speculation no set pc
[34m[DBG] [0m   Scribe: retired 1 ROB entries (now: 0x7fd2c5e064a0:Done)
[34m[DBG] [0m======================================== Update[31/36] 
[34m[DBG] [0m   Fetcher: buffer.size = 503
[34m[DBG] [0m   Logic: instr executed ? yes: 1
[34m[DBG] [0m   Logic: rStation size <- 63, rsVacancy <- 1
[34m[DBG] [0m======================================== Sync [31/36] 
[34m[DBG] [0m======================================== Cycle End

[34m[DBG] [0m======================================== Compute[32/36]
[34m[DBG] [0mPC Offsest: 0x130
[34m[DBG] [0m   Fetcher: at: 0x7fd2c6015130 (buffer 0:503)
[34m[DBG] [0m   Fetcher: front instr = 0x7fd2c6015130, fetched 64, tmpBuffer: 64
[34m[DBG] [0m   Decoder: front instr = 0x7fd2c6015134
[34m[DBG] [0m   Decoder: Logic reservation station is full
0x00007fd2c6015118  54000041		b.ne #+0x8 (addr 0x7fd2c6015120)
0x00007fd2c601512c  b9000be8		str w8, [sp, #8]
[33m[WRN] [0mRobEntry 0x7fd2c5e06a20 ready with 0x7fd2c5e09620
0x00007fd2c6015130  b9400fe8		ldr w8, [sp, #12]
0x00007fd2c6015134  12800009		mov w9, #0xffffffff
0x00007fd2c6015138  0b090108		add w8, w8, w9
0x00007fd2c601513c  b9000fe8		str w8, [sp, #12]
[33m[WRN] [0mRobEntry 0x7fd2c5e06ba0 not ready due to 0x7fd2c5e0a3a0
0x00007fd2c6015140  17fffff4		b #-0x30 (addr 0x7fd2c6015110)
0x00007fd2c6015110  b9400fe8		ldr w8, [sp, #12]
0x00007fd2c6015114  7100051f		cmp w8, #0x1 (1)
0x00007fd2c6015118  54000041		b.ne #+0x8 (addr 0x7fd2c6015120)
0x00007fd2c6015120  b9400fe8		ldr w8, [sp, #12]
0x00007fd2c6015124  b9400be9		ldr w9, [sp, #8]
0x00007fd2c6015128  1b087d28		mul w8, w9, w8
0x00007fd2c601512c  b9000be8		str w8, [sp, #8]
[33m[WRN] [0mRobEntry 0x7fd2c5e06ea0 not ready due to 0x7fd2c5e0a880
0x00007fd2c6015130  b9400fe8		ldr w8, [sp, #12]
0x00007fd2c6015134  12800009		mov w9, #0xffffffff
0x00007fd2c6015138  0b090108		add w8, w8, w9
0x00007fd2c601513c  b9000fe8		str w8, [sp, #12]
[33m[WRN] [0mRobEntry 0x7fd2c5e07020 not ready due to 0x7fd2c5e0b600
0x00007fd2c6015140  17fffff4		b #-0x30 (addr 0x7fd2c6015110)
0x00007fd2c6015110  b9400fe8		ldr w8, [sp, #12]
0x00007fd2c6015114  7100051f		cmp w8, #0x1 (1)
0x00007fd2c6015118  54000041		b.ne #+0x8 (addr 0x7fd2c6015120)
0x00007fd2c6015120  b9400fe8		ldr w8, [sp, #12]
0x00007fd2c6015124  b9400be9		ldr w9, [sp, #8]
0x00007fd2c6015128  1b087d28		mul w8, w9, w8
0x00007fd2c601512c  b9000be8		str w8, [sp, #8]
[33m[WRN] [0mRobEntry 0x7fd2c5e07320 not ready due to 0x7fd2c5e0bae0
0x00007fd2c6015130  b9400fe8		ldr w8, [sp, #12]
0x00007fd2c6015134  12800009		mov w9, #0xffffffff
0x00007fd2c6015138  0b090108		add w8, w8, w9
0x00007fd2c601513c  b9000fe8		str w8, [sp, #12]
[33m[WRN] [0mRobEntry 0x7fd2c5e06300 not ready due to 0x7fd2c5e0c860
0x00007fd2c6015140  17fffff4		b #-0x30 (addr 0x7fd2c6015110)
0x00007fd2c6015110  b9400fe8		ldr w8, [sp, #12]
0x00007fd2c6015114  7100051f		cmp w8, #0x1 (1)
0x00007fd2c6015118  54000041		b.ne #+0x8 (addr 0x7fd2c6015120)
0x00007fd2c6015120  b9400fe8		ldr w8, [sp, #12]
0x00007fd2c6015124  b9400be9		ldr w9, [sp, #8]
0x00007fd2c6015128  1b087d28		mul w8, w9, w8
0x00007fd2c601512c  b9000be8		str w8, [sp, #8]
[33m[WRN] [0mRobEntry 0x7fd2c5e075c0 not ready due to 0x7fd2c5e0cd40
0x00007fd2c6015130  b9400fe8		ldr w8, [sp, #12]
0x00007fd2c6015134  12800009		mov w9, #0xffffffff
0x00007fd2c6015138  0b090108		add w8, w8, w9
0x00007fd2c601513c  b9000fe8		str w8, [sp, #12]
[33m[WRN] [0mRobEntry 0x7fd2c5e07740 not ready due to 0x7fd2c5e0dcc0
0x00007fd2c6015140  17fffff4		b #-0x30 (addr 0x7fd2c6015110)
0x00007fd2c6015110  b9400fe8		ldr w8, [sp, #12]
0x00007fd2c6015114  7100051f		cmp w8, #0x1 (1)
0x00007fd2c6015118  54000041		b.ne #+0x8 (addr 0x7fd2c6015120)
0x00007fd2c6015120  b9400fe8		ldr w8, [sp, #12]
0x00007fd2c6015124  b9400be9		ldr w9, [sp, #8]
0x00007fd2c6015128  1b087d28		mul w8, w9, w8
0x00007fd2c601512c  b9000be8		str w8, [sp, #8]
[33m[WRN] [0mRobEntry 0x7fd2c5e07a40 not ready due to 0x7fd2c5e0e1a0
0x00007fd2c6015130  b9400fe8		ldr w8, [sp, #12]
0x00007fd2c6015134  12800009		mov w9, #0xffffffff
0x00007fd2c6015138  0b090108		add w8, w8, w9
0x00007fd2c601513c  b9000fe8		str w8, [sp, #12]
[33m[WRN] [0mRobEntry 0x7fd2c5e14020 not ready due to 0x7fd2c5e0ee00
0x00007fd2c6015140  17fffff4		b #-0x30 (addr 0x7fd2c6015110)
0x00007fd2c6015110  b9400fe8		ldr w8, [sp, #12]
0x00007fd2c6015114  7100051f		cmp w8, #0x1 (1)
0x00007fd2c6015118  54000041		b.ne #+0x8 (addr 0x7fd2c6015120)
0x00007fd2c6015120  b9400fe8		ldr w8, [sp, #12]
0x00007fd2c6015124  b9400be9		ldr w9, [sp, #8]
[33m[WRN] [0m[R31] RobCusor 0x7fd2c5e1a250 read can go ahead (init)
[33m[WRN] [0m[R9] RobCusor 0x7fd2c5e1a250 write can go ahead with ticket 0x7fd2c5e18d30
[33m[WRN] [0m----------------------Experimental Execute--------------
[33m[WRN] [0mRobEntry 0x7fd2c5e06500 ready with 0x7fd2c5e09728
[33m[WRN] [0mRobEntry 0x7fd2c5e06b40 not ready due to 0x7fd2c5e0a1e0
[33m[WRN] [0mRobEntry 0x7fd2c5e06cc0 not ready due to 0x7fd2c5e0a690
[33m[WRN] [0mRobEntry 0x7fd2c5e06d20 not ready due to 0x7fd2c5e0a988
[33m[WRN] [0mRobEntry 0x7fd2c5e06e40 not ready due to 0x7fd2c5e0ad10
[33m[WRN] [0mRobEntry 0x7fd2c5e06fc0 not ready due to 0x7fd2c5e0b440
[33m[WRN] [0mRobEntry 0x7fd2c5e07140 not ready due to 0x7fd2c5e0b8f0
[33m[WRN] [0mRobEntry 0x7fd2c5e071a0 not ready due to 0x7fd2c5e0bbe8
[33m[WRN] [0mRobEntry 0x7fd2c5e072c0 not ready due to 0x7fd2c5e0bf70
[33m[WRN] [0mRobEntry 0x7fd2c5e062a0 not ready due to 0x7fd2c5e0c6a0
[33m[WRN] [0mRobEntry 0x7fd2c5e073e0 not ready due to 0x7fd2c5e0cb50
[33m[WRN] [0mRobEntry 0x7fd2c5e07440 not ready due to 0x7fd2c5e0ce48
[33m[WRN] [0mRobEntry 0x7fd2c5e07560 not ready due to 0x7fd2c5e0d3d0
[33m[WRN] [0mRobEntry 0x7fd2c5e076e0 not ready due to 0x7fd2c5e0db00
[33m[WRN] [0mRobEntry 0x7fd2c5e07860 not ready due to 0x7fd2c5e0dfb0
[33m[WRN] [0mRobEntry 0x7fd2c5e078c0 not ready due to 0x7fd2c5e0e2a8
[33m[WRN] [0mRobEntry 0x7fd2c5e079e0 not ready due to 0x7fd2c5e0e630
[33m[WRN] [0mRobEntry 0x7fd2c5e12260 not ready due to 0x7fd2c5e0ede0
[33m[WRN] [0mRobEntry 0x7fd2c5e16300 not ready due to 0x7fd2c5e12df0
[33m[WRN] [0mRobEntry 0x7fd2c5e182d0 not ready due to 0x7fd2c5e188f8
0x00007fd2c6015118  54000041		b.ne #+0x8 (addr 0x7fd2c6015120)
#    pc: 0x7fd2c6015120 (by 0x7fd2c5e06500)
[33m[WRN] [0m[0x7fd2c5e06500] filled ticket 0x7fd2c5e098d0
[34m[DBG] [0m   Logic[0]: newPc <- 0x7fd2c6015120
0x00007fd2c6015130  b9400fe8		ldr w8, [sp, #12]
[33m[WRN] [0m[R31] RobEntry 0x7fd2c5e06a80 reads init val 0x0
[34m[DBG] [0m[MEM] read addr=0x7fd2c601d2dc len=0x4 val=0x8
[33m[WRN] [0m[R8] Speculative write by 0x7fd2c5e06a80 val=0x8
[33m[WRN] [0m[0x7fd2c5e06a80] filled ticket 0x7fd2c5e0a130
#    x8: 0x0000000000000008 <- 0x00007fd2c601d2dc
[34m[DBG] [0m   Logic[1]: speculation no set pc
[34m[DBG] [0m   Scribe: retired 1 ROB entries (now: 0x7fd2c5e06500:Done)
[34m[DBG] [0m======================================== Update[32/37] 
[34m[DBG] [0m   Fetcher: buffer.size = 566
[34m[DBG] [0m   Logic: Branch prediction 0x7fd2c6015118 was correct: 4
[34m[DBG] [0m   Logic: Correct branch: 0x7fd2c5e06500 succ 0x7fd2c5e06560
[34m[DBG] [0m   Logic: 0x7fd2c5e06500 affirmed speculative RobEntry 0x7fd2c5e06560
[34m[DBG] [0m   Logic: 0x7fd2c5e06500 enacting RobEntry 0x7fd2c5e06560
0x00007fd2c6015120  b9400fe8		ldr w8, [sp, #12]
[33m[WRN] [0m[R31] RobEntry 0x7fd2c5e06560 reads init val 0x0
[34m[DBG] [0m[MEM] read addr=0x7fd2c601d2dc len=0x4 val=0x8
[33m[WRN] [0m[0x7fd2c5e06560] filled ticket 0x7fd2c5e09980
#    x8: 0x0000000000000008 <- 0x00007fd2c601d2dc
[34m[DBG] [0m   Logic: 0x7fd2c5e06500 affirmed speculative RobEntry 0x7fd2c5e06960
[34m[DBG] [0m   Logic: 0x7fd2c5e06500 enacting RobEntry 0x7fd2c5e06960
0x00007fd2c6015124  b9400be9		ldr w9, [sp, #8]
[33m[WRN] [0m[R31] RobEntry 0x7fd2c5e06960 reads init val 0x0
[34m[DBG] [0m[MEM] read addr=0x7fd2c601d2d8 len=0x4 val=0x5a
[33m[WRN] [0m[0x7fd2c5e06960] filled ticket 0x7fd2c5e09ab0
#    x9: 0x000000000000005a <- 0x00007fd2c601d2d8
[34m[DBG] [0m   Logic: 0x7fd2c5e06500 affirmed speculative RobEntry 0x7fd2c5e069c0
[34m[DBG] [0m   Logic: 0x7fd2c5e06500 enacting RobEntry 0x7fd2c5e069c0
0x00007fd2c6015128  1b087d28		mul w8, w9, w8
[33m[WRN] [0m[0x7fd2c5e069c0] filled ticket 0x7fd2c5e09620
#    x8: 0x00000000000002d0
[34m[DBG] [0m   Logic: 0x7fd2c5e06500 affirmed speculative RobEntry 0x7fd2c5e06a20
[34m[DBG] [0m   Logic: 0x7fd2c5e06500 affirmed speculative RobEntry 0x7fd2c5e06a80
[34m[DBG] [0m   Logic: 0x7fd2c5e06500 enacting RobEntry 0x7fd2c5e06a80
0x00007fd2c6015130  b9400fe8		ldr w8, [sp, #12]
[33m[WRN] [0m[R31] RobEntry 0x7fd2c5e06a80 reads init val 0x0
[34m[DBG] [0m[MEM] read addr=0x7fd2c601d2dc len=0x4 val=0x8
[33m[WRN] [0m[0x7fd2c5e06a80] filled ticket 0x7fd2c5e0a130
#    x8: 0x0000000000000008 <- 0x00007fd2c601d2dc
[34m[DBG] [0m   Logic: 0x7fd2c5e06500 affirmed speculative RobEntry 0x7fd2c5e06ae0
[34m[DBG] [0m   Logic: 0x7fd2c5e06500 affirmed speculative RobEntry 0x7fd2c5e06b40
[34m[DBG] [0m   Logic: 0x7fd2c5e06500 affirmed speculative RobEntry 0x7fd2c5e06ba0
[34m[DBG] [0m   Logic: 0x7fd2c5e06500 affirmed speculative RobEntry 0x7fd2c5e06c00
[34m[DBG] [0m   Logic: instr executed ? yes: 4
[34m[DBG] [0m   Logic: rStation size <- 60, rsVacancy <- 4
[34m[DBG] [0m======================================== Sync [32/37] 
[34m[DBG] [0m======================================== Cycle End

[34m[DBG] [0m======================================== Compute[33/37]
[34m[DBG] [0mPC Offsest: 0x140
[34m[DBG] [0m   Fetcher: at: 0x7fd2c6015140 (buffer 0:566)
[34m[DBG] [0m   Fetcher: front instr = 0x7fd2c6015140, fetched 64, tmpBuffer: 64
[34m[DBG] [0m   Decoder: front instr = 0x7fd2c6015138
[34m[DBG] [0m   Decoder: Logic reservation station is full
0x00007fd2c601512c  b9000be8		str w8, [sp, #8]
[33m[WRN] [0mRobEntry 0x7fd2c5e06a20 ready with 0x7fd2c5e09620
0x00007fd2c6015134  12800009		mov w9, #0xffffffff
0x00007fd2c6015138  0b090108		add w8, w8, w9
0x00007fd2c601513c  b9000fe8		str w8, [sp, #12]
[33m[WRN] [0mRobEntry 0x7fd2c5e06ba0 not ready due to 0x7fd2c5e0a3a0
0x00007fd2c6015140  17fffff4		b #-0x30 (addr 0x7fd2c6015110)
0x00007fd2c6015110  b9400fe8		ldr w8, [sp, #12]
0x00007fd2c6015114  7100051f		cmp w8, #0x1 (1)
0x00007fd2c6015118  54000041		b.ne #+0x8 (addr 0x7fd2c6015120)
0x00007fd2c6015120  b9400fe8		ldr w8, [sp, #12]
0x00007fd2c6015124  b9400be9		ldr w9, [sp, #8]
0x00007fd2c6015128  1b087d28		mul w8, w9, w8
0x00007fd2c601512c  b9000be8		str w8, [sp, #8]
[33m[WRN] [0mRobEntry 0x7fd2c5e06ea0 not ready due to 0x7fd2c5e0a880
0x00007fd2c6015130  b9400fe8		ldr w8, [sp, #12]
0x00007fd2c6015134  12800009		mov w9, #0xffffffff
0x00007fd2c6015138  0b090108		add w8, w8, w9
0x00007fd2c601513c  b9000fe8		str w8, [sp, #12]
[33m[WRN] [0mRobEntry 0x7fd2c5e07020 not ready due to 0x7fd2c5e0b600
0x00007fd2c6015140  17fffff4		b #-0x30 (addr 0x7fd2c6015110)
0x00007fd2c6015110  b9400fe8		ldr w8, [sp, #12]
0x00007fd2c6015114  7100051f		cmp w8, #0x1 (1)
0x00007fd2c6015118  54000041		b.ne #+0x8 (addr 0x7fd2c6015120)
0x00007fd2c6015120  b9400fe8		ldr w8, [sp, #12]
0x00007fd2c6015124  b9400be9		ldr w9, [sp, #8]
0x00007fd2c6015128  1b087d28		mul w8, w9, w8
0x00007fd2c601512c  b9000be8		str w8, [sp, #8]
[33m[WRN] [0mRobEntry 0x7fd2c5e07320 not ready due to 0x7fd2c5e0bae0
0x00007fd2c6015130  b9400fe8		ldr w8, [sp, #12]
0x00007fd2c6015134  12800009		mov w9, #0xffffffff
0x00007fd2c6015138  0b090108		add w8, w8, w9
0x00007fd2c601513c  b9000fe8		str w8, [sp, #12]
[33m[WRN] [0mRobEntry 0x7fd2c5e06300 not ready due to 0x7fd2c5e0c860
0x00007fd2c6015140  17fffff4		b #-0x30 (addr 0x7fd2c6015110)
0x00007fd2c6015110  b9400fe8		ldr w8, [sp, #12]
0x00007fd2c6015114  7100051f		cmp w8, #0x1 (1)
0x00007fd2c6015118  54000041		b.ne #+0x8 (addr 0x7fd2c6015120)
0x00007fd2c6015120  b9400fe8		ldr w8, [sp, #12]
0x00007fd2c6015124  b9400be9		ldr w9, [sp, #8]
0x00007fd2c6015128  1b087d28		mul w8, w9, w8
0x00007fd2c601512c  b9000be8		str w8, [sp, #8]
[33m[WRN] [0mRobEntry 0x7fd2c5e075c0 not ready due to 0x7fd2c5e0cd40
0x00007fd2c6015130  b9400fe8		ldr w8, [sp, #12]
0x00007fd2c6015134  12800009		mov w9, #0xffffffff
0x00007fd2c6015138  0b090108		add w8, w8, w9
0x00007fd2c601513c  b9000fe8		str w8, [sp, #12]
[33m[WRN] [0mRobEntry 0x7fd2c5e07740 not ready due to 0x7fd2c5e0dcc0
0x00007fd2c6015140  17fffff4		b #-0x30 (addr 0x7fd2c6015110)
0x00007fd2c6015110  b9400fe8		ldr w8, [sp, #12]
0x00007fd2c6015114  7100051f		cmp w8, #0x1 (1)
0x00007fd2c6015118  54000041		b.ne #+0x8 (addr 0x7fd2c6015120)
0x00007fd2c6015120  b9400fe8		ldr w8, [sp, #12]
0x00007fd2c6015124  b9400be9		ldr w9, [sp, #8]
0x00007fd2c6015128  1b087d28		mul w8, w9, w8
0x00007fd2c601512c  b9000be8		str w8, [sp, #8]
[33m[WRN] [0mRobEntry 0x7fd2c5e07a40 not ready due to 0x7fd2c5e0e1a0
0x00007fd2c6015130  b9400fe8		ldr w8, [sp, #12]
0x00007fd2c6015134  12800009		mov w9, #0xffffffff
0x00007fd2c6015138  0b090108		add w8, w8, w9
0x00007fd2c601513c  b9000fe8		str w8, [sp, #12]
[33m[WRN] [0mRobEntry 0x7fd2c5e14020 not ready due to 0x7fd2c5e0ee00
0x00007fd2c6015140  17fffff4		b #-0x30 (addr 0x7fd2c6015110)
0x00007fd2c6015110  b9400fe8		ldr w8, [sp, #12]
0x00007fd2c6015114  7100051f		cmp w8, #0x1 (1)
0x00007fd2c6015118  54000041		b.ne #+0x8 (addr 0x7fd2c6015120)
0x00007fd2c6015120  b9400fe8		ldr w8, [sp, #12]
0x00007fd2c6015124  b9400be9		ldr w9, [sp, #8]
0x00007fd2c6015128  1b087d28		mul w8, w9, w8
[33m[WRN] [0m[R9] RobCusor 0x7fd2c5e1cc10 read-depends on 0x7fd2c5e18d30
[33m[WRN] [0m[R8] RobCusor 0x7fd2c5e1cc10 read-depends on 0x7fd2c5e18d10
[33m[WRN] [0m[R9] RobCusor 0x7fd2c5e1cc10 read-depends on 0x7fd2c5e18d30
[33m[WRN] [0m[R8] RobCusor 0x7fd2c5e1cc10 read-depends on 0x7fd2c5e18d10
[33m[WRN] [0m[R9] RobCusor 0x7fd2c5e1cc10 read-depends on 0x7fd2c5e18d30
[33m[WRN] [0m[R8] RobCusor 0x7fd2c5e1cc10 read-depends on 0x7fd2c5e18d10
[33m[WRN] [0m[R8] RobCusor 0x7fd2c5e1cc10 write can go ahead with ticket 0x7fd2c5e1d600
[33m[WRN] [0m----------------------Experimental Execute--------------
[33m[WRN] [0mRobEntry 0x7fd2c5e06a20 ready with 0x7fd2c5e09620
[33m[WRN] [0mRobEntry 0x7fd2c5e06b40 not ready due to 0x7fd2c5e0a1e0
[33m[WRN] [0mRobEntry 0x7fd2c5e06cc0 not ready due to 0x7fd2c5e0a690
[33m[WRN] [0mRobEntry 0x7fd2c5e06d20 not ready due to 0x7fd2c5e0a988
[33m[WRN] [0mRobEntry 0x7fd2c5e06e40 not ready due to 0x7fd2c5e0ad10
[33m[WRN] [0mRobEntry 0x7fd2c5e06fc0 not ready due to 0x7fd2c5e0b440
[33m[WRN] [0mRobEntry 0x7fd2c5e07140 not ready due to 0x7fd2c5e0b8f0
[33m[WRN] [0mRobEntry 0x7fd2c5e071a0 not ready due to 0x7fd2c5e0bbe8
[33m[WRN] [0mRobEntry 0x7fd2c5e072c0 not ready due to 0x7fd2c5e0bf70
[33m[WRN] [0mRobEntry 0x7fd2c5e062a0 not ready due to 0x7fd2c5e0c6a0
[33m[WRN] [0mRobEntry 0x7fd2c5e073e0 not ready due to 0x7fd2c5e0cb50
[33m[WRN] [0mRobEntry 0x7fd2c5e07440 not ready due to 0x7fd2c5e0ce48
[33m[WRN] [0mRobEntry 0x7fd2c5e07560 not ready due to 0x7fd2c5e0d3d0
[33m[WRN] [0mRobEntry 0x7fd2c5e076e0 not ready due to 0x7fd2c5e0db00
[33m[WRN] [0mRobEntry 0x7fd2c5e07860 not ready due to 0x7fd2c5e0dfb0
[33m[WRN] [0mRobEntry 0x7fd2c5e078c0 not ready due to 0x7fd2c5e0e2a8
[33m[WRN] [0mRobEntry 0x7fd2c5e079e0 not ready due to 0x7fd2c5e0e630
[33m[WRN] [0mRobEntry 0x7fd2c5e12260 not ready due to 0x7fd2c5e0ede0
[33m[WRN] [0mRobEntry 0x7fd2c5e16300 not ready due to 0x7fd2c5e12df0
[33m[WRN] [0mRobEntry 0x7fd2c5e182d0 not ready due to 0x7fd2c5e188f8
[33m[WRN] [0mRobEntry 0x7fd2c5e1cc10 not ready due to 0x7fd2c5e18d30
0x00007fd2c601512c  b9000be8		str w8, [sp, #8]
[33m[WRN] [0m[R31] RobEntry 0x7fd2c5e06a20 reads init val 0x0
[33m[WRN] [0mReal write: 0x7fd2c601d2d8, 0x2d0
#    w8:         0x00000008 -> 0x00007fd2c601d2d8
[34m[DBG] [0m   Logic[0]: newPc <- 0x7fd2c6015130
0x00007fd2c6015134  12800009		mov w9, #0xffffffff
[33m[WRN] [0m[0x7fd2c5e06ae0] filled ticket 0x7fd2c5e0a1e0
#    x9: 0x00000000ffffffff
[34m[DBG] [0m   Logic[1]: newPc <- 0x7fd2c6015138
[34m[DBG] [0m   Scribe: retired 4 ROB entries (now: 0x7fd2c5e06a20:Done)
[34m[DBG] [0m======================================== Update[33/41] 
[34m[DBG] [0m   Fetcher: buffer.size = 629
[34m[DBG] [0m   Logic: instr executed ? yes: 3
[34m[DBG] [0m   Logic: rStation size <- 61, rsVacancy <- 3
[34m[DBG] [0m======================================== Sync [33/41] 
[34m[DBG] [0m======================================== Cycle End

[34m[DBG] [0m======================================== Compute[34/41]
[34m[DBG] [0mPC Offsest: 0x120
[34m[DBG] [0m   Fetcher: at: 0x7fd2c6015120 (buffer 0:629)
[34m[DBG] [0m   Fetcher: front instr = 0x7fd2c6015120, fetched 64, tmpBuffer: 64
[34m[DBG] [0m   Decoder: front instr = 0x7fd2c601513c
[34m[DBG] [0m   Decoder: Logic reservation station is full
0x00007fd2c6015138  0b090108		add w8, w8, w9
0x00007fd2c601513c  b9000fe8		str w8, [sp, #12]
[33m[WRN] [0mRobEntry 0x7fd2c5e06ba0 not ready due to 0x7fd2c5e0a3a0
0x00007fd2c6015140  17fffff4		b #-0x30 (addr 0x7fd2c6015110)
0x00007fd2c6015110  b9400fe8		ldr w8, [sp, #12]
0x00007fd2c6015114  7100051f		cmp w8, #0x1 (1)
0x00007fd2c6015118  54000041		b.ne #+0x8 (addr 0x7fd2c6015120)
0x00007fd2c6015120  b9400fe8		ldr w8, [sp, #12]
0x00007fd2c6015124  b9400be9		ldr w9, [sp, #8]
0x00007fd2c6015128  1b087d28		mul w8, w9, w8
0x00007fd2c601512c  b9000be8		str w8, [sp, #8]
[33m[WRN] [0mRobEntry 0x7fd2c5e06ea0 not ready due to 0x7fd2c5e0a880
0x00007fd2c6015130  b9400fe8		ldr w8, [sp, #12]
0x00007fd2c6015134  12800009		mov w9, #0xffffffff
0x00007fd2c6015138  0b090108		add w8, w8, w9
0x00007fd2c601513c  b9000fe8		str w8, [sp, #12]
[33m[WRN] [0mRobEntry 0x7fd2c5e07020 not ready due to 0x7fd2c5e0b600
0x00007fd2c6015140  17fffff4		b #-0x30 (addr 0x7fd2c6015110)
0x00007fd2c6015110  b9400fe8		ldr w8, [sp, #12]
0x00007fd2c6015114  7100051f		cmp w8, #0x1 (1)
0x00007fd2c6015118  54000041		b.ne #+0x8 (addr 0x7fd2c6015120)
0x00007fd2c6015120  b9400fe8		ldr w8, [sp, #12]
0x00007fd2c6015124  b9400be9		ldr w9, [sp, #8]
0x00007fd2c6015128  1b087d28		mul w8, w9, w8
0x00007fd2c601512c  b9000be8		str w8, [sp, #8]
[33m[WRN] [0mRobEntry 0x7fd2c5e07320 not ready due to 0x7fd2c5e0bae0
0x00007fd2c6015130  b9400fe8		ldr w8, [sp, #12]
0x00007fd2c6015134  12800009		mov w9, #0xffffffff
0x00007fd2c6015138  0b090108		add w8, w8, w9
0x00007fd2c601513c  b9000fe8		str w8, [sp, #12]
[33m[WRN] [0mRobEntry 0x7fd2c5e06300 not ready due to 0x7fd2c5e0c860
0x00007fd2c6015140  17fffff4		b #-0x30 (addr 0x7fd2c6015110)
0x00007fd2c6015110  b9400fe8		ldr w8, [sp, #12]
0x00007fd2c6015114  7100051f		cmp w8, #0x1 (1)
0x00007fd2c6015118  54000041		b.ne #+0x8 (addr 0x7fd2c6015120)
0x00007fd2c6015120  b9400fe8		ldr w8, [sp, #12]
0x00007fd2c6015124  b9400be9		ldr w9, [sp, #8]
0x00007fd2c6015128  1b087d28		mul w8, w9, w8
0x00007fd2c601512c  b9000be8		str w8, [sp, #8]
[33m[WRN] [0mRobEntry 0x7fd2c5e075c0 not ready due to 0x7fd2c5e0cd40
0x00007fd2c6015130  b9400fe8		ldr w8, [sp, #12]
0x00007fd2c6015134  12800009		mov w9, #0xffffffff
0x00007fd2c6015138  0b090108		add w8, w8, w9
0x00007fd2c601513c  b9000fe8		str w8, [sp, #12]
[33m[WRN] [0mRobEntry 0x7fd2c5e07740 not ready due to 0x7fd2c5e0dcc0
0x00007fd2c6015140  17fffff4		b #-0x30 (addr 0x7fd2c6015110)
0x00007fd2c6015110  b9400fe8		ldr w8, [sp, #12]
0x00007fd2c6015114  7100051f		cmp w8, #0x1 (1)
0x00007fd2c6015118  54000041		b.ne #+0x8 (addr 0x7fd2c6015120)
0x00007fd2c6015120  b9400fe8		ldr w8, [sp, #12]
0x00007fd2c6015124  b9400be9		ldr w9, [sp, #8]
0x00007fd2c6015128  1b087d28		mul w8, w9, w8
0x00007fd2c601512c  b9000be8		str w8, [sp, #8]
[33m[WRN] [0mRobEntry 0x7fd2c5e07a40 not ready due to 0x7fd2c5e0e1a0
0x00007fd2c6015130  b9400fe8		ldr w8, [sp, #12]
0x00007fd2c6015134  12800009		mov w9, #0xffffffff
0x00007fd2c6015138  0b090108		add w8, w8, w9
0x00007fd2c601513c  b9000fe8		str w8, [sp, #12]
[33m[WRN] [0mRobEntry 0x7fd2c5e14020 not ready due to 0x7fd2c5e0ee00
0x00007fd2c6015140  17fffff4		b #-0x30 (addr 0x7fd2c6015110)
0x00007fd2c6015110  b9400fe8		ldr w8, [sp, #12]
0x00007fd2c6015114  7100051f		cmp w8, #0x1 (1)
0x00007fd2c6015118  54000041		b.ne #+0x8 (addr 0x7fd2c6015120)
0x00007fd2c6015120  b9400fe8		ldr w8, [sp, #12]
0x00007fd2c6015124  b9400be9		ldr w9, [sp, #8]
0x00007fd2c6015128  1b087d28		mul w8, w9, w8
0x00007fd2c601512c  b9000be8		str w8, [sp, #8]
[33m[WRN] [0m[R31] RobCusor 0x7fd2c5e1f630 read can go ahead (init)
[33m[WRN] [0m[R8] RobCusor 0x7fd2c5e1f630 read-depends on 0x7fd2c5e1d600
[33m[WRN] [0mRobEntry 0x7fd2c5e1f630 not ready due to 0x7fd2c5e1d600
0x00007fd2c6015130  b9400fe8		ldr w8, [sp, #12]
[33m[WRN] [0m[R31] RobCusor 0x7fd2c5e1f690 read can go ahead (init)
[33m[WRN] [0m[R8] RobCusor 0x7fd2c5e1f690 write can go ahead with ticket 0x7fd2c5e20230
0x00007fd2c6015134  12800009		mov w9, #0xffffffff
[33m[WRN] [0m[R9] RobCusor 0x7fd2c5e1f6f0 write can go ahead with ticket 0x7fd2c5e20460
0x00007fd2c6015138  0b090108		add w8, w8, w9
[33m[WRN] [0m[R9] RobCusor 0x7fd2c5e1f750 read-depends on 0x7fd2c5e20460
[33m[WRN] [0m[R8] RobCusor 0x7fd2c5e1f750 read-depends on 0x7fd2c5e20230
[33m[WRN] [0m[R8] RobCusor 0x7fd2c5e1f750 write can go ahead with ticket 0x7fd2c5e220c0
[33m[WRN] [0m----------------------Experimental Execute--------------
[33m[WRN] [0mRobEntry 0x7fd2c5e06b40 ready with 0x7fd2c5e0a1e0
[33m[WRN] [0mRobEntry 0x7fd2c5e06b40 ready with 0x7fd2c5e0a130
[33m[WRN] [0mRobEntry 0x7fd2c5e06cc0 not ready due to 0x7fd2c5e0a690
[33m[WRN] [0mRobEntry 0x7fd2c5e06d20 not ready due to 0x7fd2c5e0a988
[33m[WRN] [0mRobEntry 0x7fd2c5e06e40 not ready due to 0x7fd2c5e0ad10
[33m[WRN] [0mRobEntry 0x7fd2c5e06fc0 not ready due to 0x7fd2c5e0b440
[33m[WRN] [0mRobEntry 0x7fd2c5e07140 not ready due to 0x7fd2c5e0b8f0
[33m[WRN] [0mRobEntry 0x7fd2c5e071a0 not ready due to 0x7fd2c5e0bbe8
[33m[WRN] [0mRobEntry 0x7fd2c5e072c0 not ready due to 0x7fd2c5e0bf70
[33m[WRN] [0mRobEntry 0x7fd2c5e062a0 not ready due to 0x7fd2c5e0c6a0
[33m[WRN] [0mRobEntry 0x7fd2c5e073e0 not ready due to 0x7fd2c5e0cb50
[33m[WRN] [0mRobEntry 0x7fd2c5e07440 not ready due to 0x7fd2c5e0ce48
[33m[WRN] [0mRobEntry 0x7fd2c5e07560 not ready due to 0x7fd2c5e0d3d0
[33m[WRN] [0mRobEntry 0x7fd2c5e076e0 not ready due to 0x7fd2c5e0db00
[33m[WRN] [0mRobEntry 0x7fd2c5e07860 not ready due to 0x7fd2c5e0dfb0
[33m[WRN] [0mRobEntry 0x7fd2c5e078c0 not ready due to 0x7fd2c5e0e2a8
[33m[WRN] [0mRobEntry 0x7fd2c5e079e0 not ready due to 0x7fd2c5e0e630
[33m[WRN] [0mRobEntry 0x7fd2c5e12260 not ready due to 0x7fd2c5e0ede0
[33m[WRN] [0mRobEntry 0x7fd2c5e16300 not ready due to 0x7fd2c5e12df0
[33m[WRN] [0mRobEntry 0x7fd2c5e182d0 not ready due to 0x7fd2c5e188f8
[33m[WRN] [0mRobEntry 0x7fd2c5e1cc10 not ready due to 0x7fd2c5e18d30
[33m[WRN] [0mRobEntry 0x7fd2c5e1f750 not ready due to 0x7fd2c5e20460
0x00007fd2c6015138  0b090108		add w8, w8, w9
[33m[WRN] [0m[0x7fd2c5e06b40] filled ticket 0x7fd2c5e0a3a0
#    x8: 0x0000000000000007
[34m[DBG] [0m   Logic[0]: newPc <- 0x7fd2c601513c
0x00007fd2c6015140  17fffff4		b #-0x30 (addr 0x7fd2c6015110)
#    pc: 0x7fd2c6015110 (by 0x7fd2c5e06c00)
[33m[WRN] [0m[0x7fd2c5e06c00] filled ticket 0x7fd2c5e0a5e0
[34m[DBG] [0m   Logic[1]: newPc <- 0x7fd2c6015110
[34m[DBG] [0m   Scribe: retired 3 ROB entries (now: 0x7fd2c5e06b40:Done)
[34m[DBG] [0m======================================== Update[34/44] 
[34m[DBG] [0m   Fetcher: buffer.size = 689
[34m[DBG] [0m   Logic: Branch prediction 0x7fd2c6015140 was correct: 5
[34m[DBG] [0m   Logic: Correct branch: 0x7fd2c5e06c00 succ 0x7fd2c5e06c60
[34m[DBG] [0m   Logic: 0x7fd2c5e06c00 affirmed speculative RobEntry 0x7fd2c5e06c60
[34m[DBG] [0m   Logic: 0x7fd2c5e06c00 affirmed speculative RobEntry 0x7fd2c5e06cc0
[34m[DBG] [0m   Logic: 0x7fd2c5e06c00 affirmed speculative RobEntry 0x7fd2c5e06d20
[34m[DBG] [0m   Logic: instr executed ? yes: 1
[34m[DBG] [0m   Logic: rStation size <- 63, rsVacancy <- 1
[34m[DBG] [0m======================================== Sync [34/44] 
[34m[DBG] [0m======================================== Cycle End

[34m[DBG] [0m======================================== Compute[35/44]
[34m[DBG] [0mPC Offsest: 0x130
[34m[DBG] [0m   Fetcher: at: 0x7fd2c6015130 (buffer 0:689)
[34m[DBG] [0m   Fetcher: front instr = 0x7fd2c6015130, fetched 64, tmpBuffer: 64
[34m[DBG] [0m   Decoder: front instr = 0x7fd2c6015118
[34m[DBG] [0m   Decoder: Logic reservation station is full
0x00007fd2c601513c  b9000fe8		str w8, [sp, #12]
[33m[WRN] [0mRobEntry 0x7fd2c5e06ba0 ready with 0x7fd2c5e0a3a0
0x00007fd2c6015110  b9400fe8		ldr w8, [sp, #12]
0x00007fd2c6015114  7100051f		cmp w8, #0x1 (1)
0x00007fd2c6015118  54000041		b.ne #+0x8 (addr 0x7fd2c6015120)
0x00007fd2c6015120  b9400fe8		ldr w8, [sp, #12]
0x00007fd2c6015124  b9400be9		ldr w9, [sp, #8]
0x00007fd2c6015128  1b087d28		mul w8, w9, w8
0x00007fd2c601512c  b9000be8		str w8, [sp, #8]
[33m[WRN] [0mRobEntry 0x7fd2c5e06ea0 not ready due to 0x7fd2c5e0a880
0x00007fd2c6015130  b9400fe8		ldr w8, [sp, #12]
0x00007fd2c6015134  12800009		mov w9, #0xffffffff
0x00007fd2c6015138  0b090108		add w8, w8, w9
0x00007fd2c601513c  b9000fe8		str w8, [sp, #12]
[33m[WRN] [0mRobEntry 0x7fd2c5e07020 not ready due to 0x7fd2c5e0b600
0x00007fd2c6015140  17fffff4		b #-0x30 (addr 0x7fd2c6015110)
0x00007fd2c6015110  b9400fe8		ldr w8, [sp, #12]
0x00007fd2c6015114  7100051f		cmp w8, #0x1 (1)
0x00007fd2c6015118  54000041		b.ne #+0x8 (addr 0x7fd2c6015120)
0x00007fd2c6015120  b9400fe8		ldr w8, [sp, #12]
0x00007fd2c6015124  b9400be9		ldr w9, [sp, #8]
0x00007fd2c6015128  1b087d28		mul w8, w9, w8
0x00007fd2c601512c  b9000be8		str w8, [sp, #8]
[33m[WRN] [0mRobEntry 0x7fd2c5e07320 not ready due to 0x7fd2c5e0bae0
0x00007fd2c6015130  b9400fe8		ldr w8, [sp, #12]
0x00007fd2c6015134  12800009		mov w9, #0xffffffff
0x00007fd2c6015138  0b090108		add w8, w8, w9
0x00007fd2c601513c  b9000fe8		str w8, [sp, #12]
[33m[WRN] [0mRobEntry 0x7fd2c5e06300 not ready due to 0x7fd2c5e0c860
0x00007fd2c6015140  17fffff4		b #-0x30 (addr 0x7fd2c6015110)
0x00007fd2c6015110  b9400fe8		ldr w8, [sp, #12]
0x00007fd2c6015114  7100051f		cmp w8, #0x1 (1)
0x00007fd2c6015118  54000041		b.ne #+0x8 (addr 0x7fd2c6015120)
0x00007fd2c6015120  b9400fe8		ldr w8, [sp, #12]
0x00007fd2c6015124  b9400be9		ldr w9, [sp, #8]
0x00007fd2c6015128  1b087d28		mul w8, w9, w8
0x00007fd2c601512c  b9000be8		str w8, [sp, #8]
[33m[WRN] [0mRobEntry 0x7fd2c5e075c0 not ready due to 0x7fd2c5e0cd40
0x00007fd2c6015130  b9400fe8		ldr w8, [sp, #12]
0x00007fd2c6015134  12800009		mov w9, #0xffffffff
0x00007fd2c6015138  0b090108		add w8, w8, w9
0x00007fd2c601513c  b9000fe8		str w8, [sp, #12]
[33m[WRN] [0mRobEntry 0x7fd2c5e07740 not ready due to 0x7fd2c5e0dcc0
0x00007fd2c6015140  17fffff4		b #-0x30 (addr 0x7fd2c6015110)
0x00007fd2c6015110  b9400fe8		ldr w8, [sp, #12]
0x00007fd2c6015114  7100051f		cmp w8, #0x1 (1)
0x00007fd2c6015118  54000041		b.ne #+0x8 (addr 0x7fd2c6015120)
0x00007fd2c6015120  b9400fe8		ldr w8, [sp, #12]
0x00007fd2c6015124  b9400be9		ldr w9, [sp, #8]
0x00007fd2c6015128  1b087d28		mul w8, w9, w8
0x00007fd2c601512c  b9000be8		str w8, [sp, #8]
[33m[WRN] [0mRobEntry 0x7fd2c5e07a40 not ready due to 0x7fd2c5e0e1a0
0x00007fd2c6015130  b9400fe8		ldr w8, [sp, #12]
0x00007fd2c6015134  12800009		mov w9, #0xffffffff
0x00007fd2c6015138  0b090108		add w8, w8, w9
0x00007fd2c601513c  b9000fe8		str w8, [sp, #12]
[33m[WRN] [0mRobEntry 0x7fd2c5e14020 not ready due to 0x7fd2c5e0ee00
0x00007fd2c6015140  17fffff4		b #-0x30 (addr 0x7fd2c6015110)
0x00007fd2c6015110  b9400fe8		ldr w8, [sp, #12]
0x00007fd2c6015114  7100051f		cmp w8, #0x1 (1)
0x00007fd2c6015118  54000041		b.ne #+0x8 (addr 0x7fd2c6015120)
0x00007fd2c6015120  b9400fe8		ldr w8, [sp, #12]
0x00007fd2c6015124  b9400be9		ldr w9, [sp, #8]
0x00007fd2c6015128  1b087d28		mul w8, w9, w8
0x00007fd2c601512c  b9000be8		str w8, [sp, #8]
[33m[WRN] [0mRobEntry 0x7fd2c5e1f630 not ready due to 0x7fd2c5e1d600
0x00007fd2c6015130  b9400fe8		ldr w8, [sp, #12]
0x00007fd2c6015134  12800009		mov w9, #0xffffffff
0x00007fd2c6015138  0b090108		add w8, w8, w9
0x00007fd2c601513c  b9000fe8		str w8, [sp, #12]
[33m[WRN] [0m[R31] RobCusor 0x7fd2c5e21690 read can go ahead (init)
[33m[WRN] [0m[R8] RobCusor 0x7fd2c5e21690 read-depends on 0x7fd2c5e220c0
[33m[WRN] [0mRobEntry 0x7fd2c5e21690 not ready due to 0x7fd2c5e220c0
0x00007fd2c6015140  17fffff4		b #-0x30 (addr 0x7fd2c6015110)
0x00007fd2c6015110  b9400fe8		ldr w8, [sp, #12]
[33m[WRN] [0m[R31] RobCusor 0x7fd2c5e21750 read can go ahead (init)
[33m[WRN] [0m[R8] RobCusor 0x7fd2c5e21750 write can go ahead with ticket 0x7fd2c5e22530
[33m[WRN] [0m----------------------Experimental Execute--------------
[33m[WRN] [0mRobEntry 0x7fd2c5e06ba0 ready with 0x7fd2c5e0a3a0
[33m[WRN] [0mRobEntry 0x7fd2c5e06cc0 not ready due to 0x7fd2c5e0a690
[33m[WRN] [0mRobEntry 0x7fd2c5e06d20 not ready due to 0x7fd2c5e0a988
[33m[WRN] [0mRobEntry 0x7fd2c5e06e40 not ready due to 0x7fd2c5e0ad10
[33m[WRN] [0mRobEntry 0x7fd2c5e06fc0 not ready due to 0x7fd2c5e0b440
[33m[WRN] [0mRobEntry 0x7fd2c5e07140 not ready due to 0x7fd2c5e0b8f0
[33m[WRN] [0mRobEntry 0x7fd2c5e071a0 not ready due to 0x7fd2c5e0bbe8
[33m[WRN] [0mRobEntry 0x7fd2c5e072c0 not ready due to 0x7fd2c5e0bf70
[33m[WRN] [0mRobEntry 0x7fd2c5e062a0 not ready due to 0x7fd2c5e0c6a0
[33m[WRN] [0mRobEntry 0x7fd2c5e073e0 not ready due to 0x7fd2c5e0cb50
[33m[WRN] [0mRobEntry 0x7fd2c5e07440 not ready due to 0x7fd2c5e0ce48
[33m[WRN] [0mRobEntry 0x7fd2c5e07560 not ready due to 0x7fd2c5e0d3d0
[33m[WRN] [0mRobEntry 0x7fd2c5e076e0 not ready due to 0x7fd2c5e0db00
[33m[WRN] [0mRobEntry 0x7fd2c5e07860 not ready due to 0x7fd2c5e0dfb0
[33m[WRN] [0mRobEntry 0x7fd2c5e078c0 not ready due to 0x7fd2c5e0e2a8
[33m[WRN] [0mRobEntry 0x7fd2c5e079e0 not ready due to 0x7fd2c5e0e630
[33m[WRN] [0mRobEntry 0x7fd2c5e12260 not ready due to 0x7fd2c5e0ede0
[33m[WRN] [0mRobEntry 0x7fd2c5e16300 not ready due to 0x7fd2c5e12df0
[33m[WRN] [0mRobEntry 0x7fd2c5e182d0 not ready due to 0x7fd2c5e188f8
[33m[WRN] [0mRobEntry 0x7fd2c5e1cc10 not ready due to 0x7fd2c5e18d30
[33m[WRN] [0mRobEntry 0x7fd2c5e1f750 not ready due to 0x7fd2c5e20460
0x00007fd2c601513c  b9000fe8		str w8, [sp, #12]
[33m[WRN] [0m[R31] RobEntry 0x7fd2c5e06ba0 reads init val 0x0
[33m[WRN] [0mReal write: 0x7fd2c601d2dc, 0x7
#    w8:         0x00000007 -> 0x00007fd2c601d2dc
[34m[DBG] [0m   Logic[0]: newPc <- 0x7fd2c6015140
0x00007fd2c6015124  b9400be9		ldr w9, [sp, #8]
[33m[WRN] [0m[R31] RobEntry 0x7fd2c5e06de0 reads init val 0x0
[34m[DBG] [0m[MEM] read addr=0x7fd2c601d2d8 len=0x4 val=0x2d0
[33m[WRN] [0m[R9] Speculative write by 0x7fd2c5e06de0 val=0x2d0
[33m[WRN] [0m[0x7fd2c5e06de0] filled ticket 0x7fd2c5e0ad10
#    x9: 0x00000000ffffffff <- 0x00007fd2c601d2d8
[34m[DBG] [0m   Logic[1]: speculation no set pc
[34m[DBG] [0m   Scribe: retired 1 ROB entries (now: 0x7fd2c5e06ba0:Done)
[34m[DBG] [0m======================================== Update[35/45] 
[34m[DBG] [0m   Fetcher: buffer.size = 750
[34m[DBG] [0m   Logic: instr executed ? yes: 2
[34m[DBG] [0m   Logic: rStation size <- 62, rsVacancy <- 2
[34m[DBG] [0m======================================== Sync [35/45] 
[34m[DBG] [0m======================================== Cycle End

[34m[DBG] [0m======================================== Compute[36/45]
[34m[DBG] [0mPC Offsest: 0x140
[34m[DBG] [0m   Fetcher: at: 0x7fd2c6015140 (buffer 0:750)
[34m[DBG] [0m   Fetcher: front instr = 0x7fd2c6015140, fetched 64, tmpBuffer: 64
[34m[DBG] [0m   Decoder: front instr = 0x7fd2c6015128
[34m[DBG] [0m   Decoder: Logic reservation station is full
0x00007fd2c6015110  b9400fe8		ldr w8, [sp, #12]
0x00007fd2c6015114  7100051f		cmp w8, #0x1 (1)
0x00007fd2c6015118  54000041		b.ne #+0x8 (addr 0x7fd2c6015120)
0x00007fd2c6015120  b9400fe8		ldr w8, [sp, #12]
0x00007fd2c6015128  1b087d28		mul w8, w9, w8
0x00007fd2c601512c  b9000be8		str w8, [sp, #8]
[33m[WRN] [0mRobEntry 0x7fd2c5e06ea0 not ready due to 0x7fd2c5e0a880
0x00007fd2c6015130  b9400fe8		ldr w8, [sp, #12]
0x00007fd2c6015134  12800009		mov w9, #0xffffffff
0x00007fd2c6015138  0b090108		add w8, w8, w9
0x00007fd2c601513c  b9000fe8		str w8, [sp, #12]
[33m[WRN] [0mRobEntry 0x7fd2c5e07020 not ready due to 0x7fd2c5e0b600
0x00007fd2c6015140  17fffff4		b #-0x30 (addr 0x7fd2c6015110)
0x00007fd2c6015110  b9400fe8		ldr w8, [sp, #12]
0x00007fd2c6015114  7100051f		cmp w8, #0x1 (1)
0x00007fd2c6015118  54000041		b.ne #+0x8 (addr 0x7fd2c6015120)
0x00007fd2c6015120  b9400fe8		ldr w8, [sp, #12]
0x00007fd2c6015124  b9400be9		ldr w9, [sp, #8]
0x00007fd2c6015128  1b087d28		mul w8, w9, w8
0x00007fd2c601512c  b9000be8		str w8, [sp, #8]
[33m[WRN] [0mRobEntry 0x7fd2c5e07320 not ready due to 0x7fd2c5e0bae0
0x00007fd2c6015130  b9400fe8		ldr w8, [sp, #12]
0x00007fd2c6015134  12800009		mov w9, #0xffffffff
0x00007fd2c6015138  0b090108		add w8, w8, w9
0x00007fd2c601513c  b9000fe8		str w8, [sp, #12]
[33m[WRN] [0mRobEntry 0x7fd2c5e06300 not ready due to 0x7fd2c5e0c860
0x00007fd2c6015140  17fffff4		b #-0x30 (addr 0x7fd2c6015110)
0x00007fd2c6015110  b9400fe8		ldr w8, [sp, #12]
0x00007fd2c6015114  7100051f		cmp w8, #0x1 (1)
0x00007fd2c6015118  54000041		b.ne #+0x8 (addr 0x7fd2c6015120)
0x00007fd2c6015120  b9400fe8		ldr w8, [sp, #12]
0x00007fd2c6015124  b9400be9		ldr w9, [sp, #8]
0x00007fd2c6015128  1b087d28		mul w8, w9, w8
0x00007fd2c601512c  b9000be8		str w8, [sp, #8]
[33m[WRN] [0mRobEntry 0x7fd2c5e075c0 not ready due to 0x7fd2c5e0cd40
0x00007fd2c6015130  b9400fe8		ldr w8, [sp, #12]
0x00007fd2c6015134  12800009		mov w9, #0xffffffff
0x00007fd2c6015138  0b090108		add w8, w8, w9
0x00007fd2c601513c  b9000fe8		str w8, [sp, #12]
[33m[WRN] [0mRobEntry 0x7fd2c5e07740 not ready due to 0x7fd2c5e0dcc0
0x00007fd2c6015140  17fffff4		b #-0x30 (addr 0x7fd2c6015110)
0x00007fd2c6015110  b9400fe8		ldr w8, [sp, #12]
0x00007fd2c6015114  7100051f		cmp w8, #0x1 (1)
0x00007fd2c6015118  54000041		b.ne #+0x8 (addr 0x7fd2c6015120)
0x00007fd2c6015120  b9400fe8		ldr w8, [sp, #12]
0x00007fd2c6015124  b9400be9		ldr w9, [sp, #8]
0x00007fd2c6015128  1b087d28		mul w8, w9, w8
0x00007fd2c601512c  b9000be8		str w8, [sp, #8]
[33m[WRN] [0mRobEntry 0x7fd2c5e07a40 not ready due to 0x7fd2c5e0e1a0
0x00007fd2c6015130  b9400fe8		ldr w8, [sp, #12]
0x00007fd2c6015134  12800009		mov w9, #0xffffffff
0x00007fd2c6015138  0b090108		add w8, w8, w9
0x00007fd2c601513c  b9000fe8		str w8, [sp, #12]
[33m[WRN] [0mRobEntry 0x7fd2c5e14020 not ready due to 0x7fd2c5e0ee00
0x00007fd2c6015140  17fffff4		b #-0x30 (addr 0x7fd2c6015110)
0x00007fd2c6015110  b9400fe8		ldr w8, [sp, #12]
0x00007fd2c6015114  7100051f		cmp w8, #0x1 (1)
0x00007fd2c6015118  54000041		b.ne #+0x8 (addr 0x7fd2c6015120)
0x00007fd2c6015120  b9400fe8		ldr w8, [sp, #12]
0x00007fd2c6015124  b9400be9		ldr w9, [sp, #8]
0x00007fd2c6015128  1b087d28		mul w8, w9, w8
0x00007fd2c601512c  b9000be8		str w8, [sp, #8]
[33m[WRN] [0mRobEntry 0x7fd2c5e1f630 not ready due to 0x7fd2c5e1d600
0x00007fd2c6015130  b9400fe8		ldr w8, [sp, #12]
0x00007fd2c6015134  12800009		mov w9, #0xffffffff
0x00007fd2c6015138  0b090108		add w8, w8, w9
0x00007fd2c601513c  b9000fe8		str w8, [sp, #12]
[33m[WRN] [0mRobEntry 0x7fd2c5e21690 not ready due to 0x7fd2c5e220c0
0x00007fd2c6015140  17fffff4		b #-0x30 (addr 0x7fd2c6015110)
0x00007fd2c6015110  b9400fe8		ldr w8, [sp, #12]
0x00007fd2c6015114  7100051f		cmp w8, #0x1 (1)
[33m[WRN] [0m[R8] RobCusor 0x7fd2c5e23a60 read-depends on 0x7fd2c5e22530
[33m[WRN] [0m[NZCV] RobCusor 0x7fd2c5e23a60 write can go ahead with ticket 0x7fd2c5e24550
[33m[WRN] [0m[NZCV] RobCusor 0x7fd2c5e23a60 write can go ahead with ticket 0x7fd2c5e24798
[33m[WRN] [0m[NZCV] RobCusor 0x7fd2c5e23a60 write can go ahead with ticket 0x7fd2c5e26360
[33m[WRN] [0m[NZCV] RobCusor 0x7fd2c5e23a60 write can go ahead with ticket 0x7fd2c5e26378
[33m[WRN] [0m----------------------Experimental Execute--------------
[33m[WRN] [0mRobEntry 0x7fd2c5e06cc0 not ready due to 0x7fd2c5e0a690
[33m[WRN] [0mRobEntry 0x7fd2c5e06d20 not ready due to 0x7fd2c5e0a988
[33m[WRN] [0mRobEntry 0x7fd2c5e06e40 ready with 0x7fd2c5e0ad10
[33m[WRN] [0mRobEntry 0x7fd2c5e06e40 not ready due to 0x7fd2c5e0abe0
[33m[WRN] [0mRobEntry 0x7fd2c5e06fc0 not ready due to 0x7fd2c5e0b440
[33m[WRN] [0mRobEntry 0x7fd2c5e07140 not ready due to 0x7fd2c5e0b8f0
[33m[WRN] [0mRobEntry 0x7fd2c5e071a0 not ready due to 0x7fd2c5e0bbe8
[33m[WRN] [0mRobEntry 0x7fd2c5e072c0 not ready due to 0x7fd2c5e0bf70
[33m[WRN] [0mRobEntry 0x7fd2c5e062a0 not ready due to 0x7fd2c5e0c6a0
[33m[WRN] [0mRobEntry 0x7fd2c5e073e0 not ready due to 0x7fd2c5e0cb50
[33m[WRN] [0mRobEntry 0x7fd2c5e07440 not ready due to 0x7fd2c5e0ce48
[33m[WRN] [0mRobEntry 0x7fd2c5e07560 not ready due to 0x7fd2c5e0d3d0
[33m[WRN] [0mRobEntry 0x7fd2c5e076e0 not ready due to 0x7fd2c5e0db00
[33m[WRN] [0mRobEntry 0x7fd2c5e07860 not ready due to 0x7fd2c5e0dfb0
[33m[WRN] [0mRobEntry 0x7fd2c5e078c0 not ready due to 0x7fd2c5e0e2a8
[33m[WRN] [0mRobEntry 0x7fd2c5e079e0 not ready due to 0x7fd2c5e0e630
[33m[WRN] [0mRobEntry 0x7fd2c5e12260 not ready due to 0x7fd2c5e0ede0
[33m[WRN] [0mRobEntry 0x7fd2c5e16300 not ready due to 0x7fd2c5e12df0
[33m[WRN] [0mRobEntry 0x7fd2c5e182d0 not ready due to 0x7fd2c5e188f8
[33m[WRN] [0mRobEntry 0x7fd2c5e1cc10 not ready due to 0x7fd2c5e18d30
[33m[WRN] [0mRobEntry 0x7fd2c5e1f750 not ready due to 0x7fd2c5e20460
[33m[WRN] [0mRobEntry 0x7fd2c5e23a60 not ready due to 0x7fd2c5e22530
0x00007fd2c6015110  b9400fe8		ldr w8, [sp, #12]
[33m[WRN] [0m[R31] RobEntry 0x7fd2c5e06c60 reads init val 0x0
[34m[DBG] [0m[MEM] read addr=0x7fd2c601d2dc len=0x4 val=0x7
[33m[WRN] [0m[0x7fd2c5e06c60] filled ticket 0x7fd2c5e0a690
#    x8: 0x0000000000000007 <- 0x00007fd2c601d2dc
[34m[DBG] [0m   Logic[0]: newPc <- 0x7fd2c6015114
0x00007fd2c6015120  b9400fe8		ldr w8, [sp, #12]
[33m[WRN] [0m[R31] RobEntry 0x7fd2c5e06d80 reads init val 0x0
[34m[DBG] [0m[MEM] read addr=0x7fd2c601d2dc len=0x4 val=0x7
[33m[WRN] [0m[R8] Speculative write by 0x7fd2c5e06d80 val=0x7
[33m[WRN] [0m[0x7fd2c5e06d80] filled ticket 0x7fd2c5e0abe0
#    x8: 0x0000000000000007 <- 0x00007fd2c601d2dc
[34m[DBG] [0m   Logic[1]: speculation no set pc
[34m[DBG] [0m   Scribe: retired 2 ROB entries (now: 0x7fd2c5e06c60:Done)
[34m[DBG] [0m======================================== Update[36/47] 
[34m[DBG] [0m   Fetcher: buffer.size = 813
[34m[DBG] [0m   Logic: instr executed ? yes: 1
[34m[DBG] [0m   Logic: rStation size <- 63, rsVacancy <- 1
[34m[DBG] [0m======================================== Sync [36/47] 
[34m[DBG] [0m======================================== Cycle End

[34m[DBG] [0m======================================== Compute[37/47]
[34m[DBG] [0mPC Offsest: 0x120
[34m[DBG] [0m   Fetcher: at: 0x7fd2c6015120 (buffer 0:813)
[34m[DBG] [0m   Fetcher: front instr = 0x7fd2c6015120, fetched 64, tmpBuffer: 64
[34m[DBG] [0m   Decoder: front instr = 0x7fd2c601512c
[34m[DBG] [0m   Decoder: Logic reservation station is full
0x00007fd2c6015114  7100051f		cmp w8, #0x1 (1)
0x00007fd2c6015118  54000041		b.ne #+0x8 (addr 0x7fd2c6015120)
0x00007fd2c6015128  1b087d28		mul w8, w9, w8
0x00007fd2c601512c  b9000be8		str w8, [sp, #8]
[33m[WRN] [0mRobEntry 0x7fd2c5e06ea0 not ready due to 0x7fd2c5e0a880
0x00007fd2c6015130  b9400fe8		ldr w8, [sp, #12]
0x00007fd2c6015134  12800009		mov w9, #0xffffffff
0x00007fd2c6015138  0b090108		add w8, w8, w9
0x00007fd2c601513c  b9000fe8		str w8, [sp, #12]
[33m[WRN] [0mRobEntry 0x7fd2c5e07020 not ready due to 0x7fd2c5e0b600
0x00007fd2c6015140  17fffff4		b #-0x30 (addr 0x7fd2c6015110)
0x00007fd2c6015110  b9400fe8		ldr w8, [sp, #12]
0x00007fd2c6015114  7100051f		cmp w8, #0x1 (1)
0x00007fd2c6015118  54000041		b.ne #+0x8 (addr 0x7fd2c6015120)
0x00007fd2c6015120  b9400fe8		ldr w8, [sp, #12]
0x00007fd2c6015124  b9400be9		ldr w9, [sp, #8]
0x00007fd2c6015128  1b087d28		mul w8, w9, w8
0x00007fd2c601512c  b9000be8		str w8, [sp, #8]
[33m[WRN] [0mRobEntry 0x7fd2c5e07320 not ready due to 0x7fd2c5e0bae0
0x00007fd2c6015130  b9400fe8		ldr w8, [sp, #12]
0x00007fd2c6015134  12800009		mov w9, #0xffffffff
0x00007fd2c6015138  0b090108		add w8, w8, w9
0x00007fd2c601513c  b9000fe8		str w8, [sp, #12]
[33m[WRN] [0mRobEntry 0x7fd2c5e06300 not ready due to 0x7fd2c5e0c860
0x00007fd2c6015140  17fffff4		b #-0x30 (addr 0x7fd2c6015110)
0x00007fd2c6015110  b9400fe8		ldr w8, [sp, #12]
0x00007fd2c6015114  7100051f		cmp w8, #0x1 (1)
0x00007fd2c6015118  54000041		b.ne #+0x8 (addr 0x7fd2c6015120)
0x00007fd2c6015120  b9400fe8		ldr w8, [sp, #12]
0x00007fd2c6015124  b9400be9		ldr w9, [sp, #8]
0x00007fd2c6015128  1b087d28		mul w8, w9, w8
0x00007fd2c601512c  b9000be8		str w8, [sp, #8]
[33m[WRN] [0mRobEntry 0x7fd2c5e075c0 not ready due to 0x7fd2c5e0cd40
0x00007fd2c6015130  b9400fe8		ldr w8, [sp, #12]
0x00007fd2c6015134  12800009		mov w9, #0xffffffff
0x00007fd2c6015138  0b090108		add w8, w8, w9
0x00007fd2c601513c  b9000fe8		str w8, [sp, #12]
[33m[WRN] [0mRobEntry 0x7fd2c5e07740 not ready due to 0x7fd2c5e0dcc0
0x00007fd2c6015140  17fffff4		b #-0x30 (addr 0x7fd2c6015110)
0x00007fd2c6015110  b9400fe8		ldr w8, [sp, #12]
0x00007fd2c6015114  7100051f		cmp w8, #0x1 (1)
0x00007fd2c6015118  54000041		b.ne #+0x8 (addr 0x7fd2c6015120)
0x00007fd2c6015120  b9400fe8		ldr w8, [sp, #12]
0x00007fd2c6015124  b9400be9		ldr w9, [sp, #8]
0x00007fd2c6015128  1b087d28		mul w8, w9, w8
0x00007fd2c601512c  b9000be8		str w8, [sp, #8]
[33m[WRN] [0mRobEntry 0x7fd2c5e07a40 not ready due to 0x7fd2c5e0e1a0
0x00007fd2c6015130  b9400fe8		ldr w8, [sp, #12]
0x00007fd2c6015134  12800009		mov w9, #0xffffffff
0x00007fd2c6015138  0b090108		add w8, w8, w9
0x00007fd2c601513c  b9000fe8		str w8, [sp, #12]
[33m[WRN] [0mRobEntry 0x7fd2c5e14020 not ready due to 0x7fd2c5e0ee00
0x00007fd2c6015140  17fffff4		b #-0x30 (addr 0x7fd2c6015110)
0x00007fd2c6015110  b9400fe8		ldr w8, [sp, #12]
0x00007fd2c6015114  7100051f		cmp w8, #0x1 (1)
0x00007fd2c6015118  54000041		b.ne #+0x8 (addr 0x7fd2c6015120)
0x00007fd2c6015120  b9400fe8		ldr w8, [sp, #12]
0x00007fd2c6015124  b9400be9		ldr w9, [sp, #8]
0x00007fd2c6015128  1b087d28		mul w8, w9, w8
0x00007fd2c601512c  b9000be8		str w8, [sp, #8]
[33m[WRN] [0mRobEntry 0x7fd2c5e1f630 not ready due to 0x7fd2c5e1d600
0x00007fd2c6015130  b9400fe8		ldr w8, [sp, #12]
0x00007fd2c6015134  12800009		mov w9, #0xffffffff
0x00007fd2c6015138  0b090108		add w8, w8, w9
0x00007fd2c601513c  b9000fe8		str w8, [sp, #12]
[33m[WRN] [0mRobEntry 0x7fd2c5e21690 not ready due to 0x7fd2c5e220c0
0x00007fd2c6015140  17fffff4		b #-0x30 (addr 0x7fd2c6015110)
0x00007fd2c6015110  b9400fe8		ldr w8, [sp, #12]
0x00007fd2c6015114  7100051f		cmp w8, #0x1 (1)
0x00007fd2c6015118  54000041		b.ne #+0x8 (addr 0x7fd2c6015120)
[33m[WRN] [0m[NZCV] RobCusor 0x7fd2c5e25b60 read-depends on 0x7fd2c5e26378
0x00007fd2c6015120  b9400fe8		ldr w8, [sp, #12]
[33m[WRN] [0m[R31] RobCusor 0x7fd2c5e25bc0 read can go ahead (init)
[33m[WRN] [0m[R8] RobCusor 0x7fd2c5e25bc0 write can go ahead with ticket 0x7fd2c5e267a0
[33m[WRN] [0m----------------------Experimental Execute--------------
[33m[WRN] [0mRobEntry 0x7fd2c5e06cc0 ready with 0x7fd2c5e0a690
[33m[WRN] [0mRobEntry 0x7fd2c5e06d20 not ready due to 0x7fd2c5e0a988
[33m[WRN] [0mRobEntry 0x7fd2c5e06e40 ready with 0x7fd2c5e0ad10
[33m[WRN] [0mRobEntry 0x7fd2c5e06e40 ready with 0x7fd2c5e0abe0
[33m[WRN] [0mRobEntry 0x7fd2c5e06e40 ready with 0x7fd2c5e0ad10
[33m[WRN] [0mRobEntry 0x7fd2c5e06e40 ready with 0x7fd2c5e0abe0
[33m[WRN] [0mRobEntry 0x7fd2c5e06e40 ready with 0x7fd2c5e0ad10
[33m[WRN] [0mRobEntry 0x7fd2c5e06e40 ready with 0x7fd2c5e0abe0
[33m[WRN] [0mRobEntry 0x7fd2c5e06fc0 not ready due to 0x7fd2c5e0b440
[33m[WRN] [0mRobEntry 0x7fd2c5e07140 not ready due to 0x7fd2c5e0b8f0
[33m[WRN] [0mRobEntry 0x7fd2c5e071a0 not ready due to 0x7fd2c5e0bbe8
[33m[WRN] [0mRobEntry 0x7fd2c5e072c0 not ready due to 0x7fd2c5e0bf70
[33m[WRN] [0mRobEntry 0x7fd2c5e062a0 not ready due to 0x7fd2c5e0c6a0
[33m[WRN] [0mRobEntry 0x7fd2c5e073e0 not ready due to 0x7fd2c5e0cb50
[33m[WRN] [0mRobEntry 0x7fd2c5e07440 not ready due to 0x7fd2c5e0ce48
[33m[WRN] [0mRobEntry 0x7fd2c5e07560 not ready due to 0x7fd2c5e0d3d0
[33m[WRN] [0mRobEntry 0x7fd2c5e076e0 not ready due to 0x7fd2c5e0db00
[33m[WRN] [0mRobEntry 0x7fd2c5e07860 not ready due to 0x7fd2c5e0dfb0
[33m[WRN] [0mRobEntry 0x7fd2c5e078c0 not ready due to 0x7fd2c5e0e2a8
[33m[WRN] [0mRobEntry 0x7fd2c5e079e0 not ready due to 0x7fd2c5e0e630
[33m[WRN] [0mRobEntry 0x7fd2c5e12260 not ready due to 0x7fd2c5e0ede0
[33m[WRN] [0mRobEntry 0x7fd2c5e16300 not ready due to 0x7fd2c5e12df0
[33m[WRN] [0mRobEntry 0x7fd2c5e182d0 not ready due to 0x7fd2c5e188f8
[33m[WRN] [0mRobEntry 0x7fd2c5e1cc10 not ready due to 0x7fd2c5e18d30
[33m[WRN] [0mRobEntry 0x7fd2c5e1f750 not ready due to 0x7fd2c5e20460
[33m[WRN] [0mRobEntry 0x7fd2c5e23a60 not ready due to 0x7fd2c5e22530
[33m[WRN] [0mRobEntry 0x7fd2c5e25b60 not ready due to 0x7fd2c5e26378
0x00007fd2c6015114  7100051f		cmp w8, #0x1 (1)
[33m[WRN] [0m[0x7fd2c5e06cc0] filled ticket 0x7fd2c5e0a940
[33m[WRN] [0m[0x7fd2c5e06cc0] filled ticket 0x7fd2c5e0a958
[33m[WRN] [0m[0x7fd2c5e06cc0] filled ticket 0x7fd2c5e0a970
[33m[WRN] [0m[0x7fd2c5e06cc0] filled ticket 0x7fd2c5e0a988
[33m[WRN] [0m[0x7fd2c5e06cc0] filled ticket 0x7fd2c5e0a940
[33m[WRN] [0m[0x7fd2c5e06cc0] filled ticket 0x7fd2c5e0a958
[33m[WRN] [0m[0x7fd2c5e06cc0] filled ticket 0x7fd2c5e0a970
[33m[WRN] [0m[0x7fd2c5e06cc0] filled ticket 0x7fd2c5e0a988
[33m[WRN] [0m[0x7fd2c5e06cc0] filled ticket 0x7fd2c5e0a940
[33m[WRN] [0m[0x7fd2c5e06cc0] filled ticket 0x7fd2c5e0a958
[33m[WRN] [0m[0x7fd2c5e06cc0] filled ticket 0x7fd2c5e0a970
[33m[WRN] [0m[0x7fd2c5e06cc0] filled ticket 0x7fd2c5e0a988
[33m[WRN] [0m[0x7fd2c5e06cc0] filled ticket 0x7fd2c5e0a940
[33m[WRN] [0m[0x7fd2c5e06cc0] filled ticket 0x7fd2c5e0a958
[33m[WRN] [0m[0x7fd2c5e06cc0] filled ticket 0x7fd2c5e0a970
[33m[WRN] [0m[0x7fd2c5e06cc0] filled ticket 0x7fd2c5e0a988
# NZCV: N:0 Z:0 C:1 V:0
[34m[DBG] [0m   Logic[0]: newPc <- 0x7fd2c6015118
0x00007fd2c6015128  1b087d28		mul w8, w9, w8
[33m[WRN] [0m[R8] Speculative write by 0x7fd2c5e06e40 val=0x6fffffff9
[33m[WRN] [0m[0x7fd2c5e06e40] filled ticket 0x7fd2c5e0a880
#    x8: 0x0000000000000007
[34m[DBG] [0m   Logic[1]: speculation no set pc
[34m[DBG] [0m   Scribe: retired 1 ROB entries (now: 0x7fd2c5e06cc0:Done)
[34m[DBG] [0m======================================== Update[37/48] 
[34m[DBG] [0m   Fetcher: buffer.size = 875
[34m[DBG] [0m   Logic: instr executed ? yes: 1
[34m[DBG] [0m   Logic: rStation size <- 63, rsVacancy <- 1
[34m[DBG] [0m======================================== Sync [37/48] 
[34m[DBG] [0m======================================== Cycle End

[34m[DBG] [0m======================================== Compute[38/48]
[34m[DBG] [0mPC Offsest: 0x130
[34m[DBG] [0m   Fetcher: at: 0x7fd2c6015130 (buffer 0:875)
[34m[DBG] [0m   Fetcher: front instr = 0x7fd2c6015130, fetched 64, tmpBuffer: 64
[34m[DBG] [0m   Decoder: front instr = 0x7fd2c6015134
[34m[DBG] [0m   Decoder: Logic reservation station is full
0x00007fd2c6015118  54000041		b.ne #+0x8 (addr 0x7fd2c6015120)
0x00007fd2c601512c  b9000be8		str w8, [sp, #8]
[33m[WRN] [0mRobEntry 0x7fd2c5e06ea0 ready with 0x7fd2c5e0a880
0x00007fd2c6015130  b9400fe8		ldr w8, [sp, #12]
0x00007fd2c6015134  12800009		mov w9, #0xffffffff
0x00007fd2c6015138  0b090108		add w8, w8, w9
0x00007fd2c601513c  b9000fe8		str w8, [sp, #12]
[33m[WRN] [0mRobEntry 0x7fd2c5e07020 not ready due to 0x7fd2c5e0b600
0x00007fd2c6015140  17fffff4		b #-0x30 (addr 0x7fd2c6015110)
0x00007fd2c6015110  b9400fe8		ldr w8, [sp, #12]
0x00007fd2c6015114  7100051f		cmp w8, #0x1 (1)
0x00007fd2c6015118  54000041		b.ne #+0x8 (addr 0x7fd2c6015120)
0x00007fd2c6015120  b9400fe8		ldr w8, [sp, #12]
0x00007fd2c6015124  b9400be9		ldr w9, [sp, #8]
0x00007fd2c6015128  1b087d28		mul w8, w9, w8
0x00007fd2c601512c  b9000be8		str w8, [sp, #8]
[33m[WRN] [0mRobEntry 0x7fd2c5e07320 not ready due to 0x7fd2c5e0bae0
0x00007fd2c6015130  b9400fe8		ldr w8, [sp, #12]
0x00007fd2c6015134  12800009		mov w9, #0xffffffff
0x00007fd2c6015138  0b090108		add w8, w8, w9
0x00007fd2c601513c  b9000fe8		str w8, [sp, #12]
[33m[WRN] [0mRobEntry 0x7fd2c5e06300 not ready due to 0x7fd2c5e0c860
0x00007fd2c6015140  17fffff4		b #-0x30 (addr 0x7fd2c6015110)
0x00007fd2c6015110  b9400fe8		ldr w8, [sp, #12]
0x00007fd2c6015114  7100051f		cmp w8, #0x1 (1)
0x00007fd2c6015118  54000041		b.ne #+0x8 (addr 0x7fd2c6015120)
0x00007fd2c6015120  b9400fe8		ldr w8, [sp, #12]
0x00007fd2c6015124  b9400be9		ldr w9, [sp, #8]
0x00007fd2c6015128  1b087d28		mul w8, w9, w8
0x00007fd2c601512c  b9000be8		str w8, [sp, #8]
[33m[WRN] [0mRobEntry 0x7fd2c5e075c0 not ready due to 0x7fd2c5e0cd40
0x00007fd2c6015130  b9400fe8		ldr w8, [sp, #12]
0x00007fd2c6015134  12800009		mov w9, #0xffffffff
0x00007fd2c6015138  0b090108		add w8, w8, w9
0x00007fd2c601513c  b9000fe8		str w8, [sp, #12]
[33m[WRN] [0mRobEntry 0x7fd2c5e07740 not ready due to 0x7fd2c5e0dcc0
0x00007fd2c6015140  17fffff4		b #-0x30 (addr 0x7fd2c6015110)
0x00007fd2c6015110  b9400fe8		ldr w8, [sp, #12]
0x00007fd2c6015114  7100051f		cmp w8, #0x1 (1)
0x00007fd2c6015118  54000041		b.ne #+0x8 (addr 0x7fd2c6015120)
0x00007fd2c6015120  b9400fe8		ldr w8, [sp, #12]
0x00007fd2c6015124  b9400be9		ldr w9, [sp, #8]
0x00007fd2c6015128  1b087d28		mul w8, w9, w8
0x00007fd2c601512c  b9000be8		str w8, [sp, #8]
[33m[WRN] [0mRobEntry 0x7fd2c5e07a40 not ready due to 0x7fd2c5e0e1a0
0x00007fd2c6015130  b9400fe8		ldr w8, [sp, #12]
0x00007fd2c6015134  12800009		mov w9, #0xffffffff
0x00007fd2c6015138  0b090108		add w8, w8, w9
0x00007fd2c601513c  b9000fe8		str w8, [sp, #12]
[33m[WRN] [0mRobEntry 0x7fd2c5e14020 not ready due to 0x7fd2c5e0ee00
0x00007fd2c6015140  17fffff4		b #-0x30 (addr 0x7fd2c6015110)
0x00007fd2c6015110  b9400fe8		ldr w8, [sp, #12]
0x00007fd2c6015114  7100051f		cmp w8, #0x1 (1)
0x00007fd2c6015118  54000041		b.ne #+0x8 (addr 0x7fd2c6015120)
0x00007fd2c6015120  b9400fe8		ldr w8, [sp, #12]
0x00007fd2c6015124  b9400be9		ldr w9, [sp, #8]
0x00007fd2c6015128  1b087d28		mul w8, w9, w8
0x00007fd2c601512c  b9000be8		str w8, [sp, #8]
[33m[WRN] [0mRobEntry 0x7fd2c5e1f630 not ready due to 0x7fd2c5e1d600
0x00007fd2c6015130  b9400fe8		ldr w8, [sp, #12]
0x00007fd2c6015134  12800009		mov w9, #0xffffffff
0x00007fd2c6015138  0b090108		add w8, w8, w9
0x00007fd2c601513c  b9000fe8		str w8, [sp, #12]
[33m[WRN] [0mRobEntry 0x7fd2c5e21690 not ready due to 0x7fd2c5e220c0
0x00007fd2c6015140  17fffff4		b #-0x30 (addr 0x7fd2c6015110)
0x00007fd2c6015110  b9400fe8		ldr w8, [sp, #12]
0x00007fd2c6015114  7100051f		cmp w8, #0x1 (1)
0x00007fd2c6015118  54000041		b.ne #+0x8 (addr 0x7fd2c6015120)
0x00007fd2c6015120  b9400fe8		ldr w8, [sp, #12]
0x00007fd2c6015124  b9400be9		ldr w9, [sp, #8]
[33m[WRN] [0m[R31] RobCusor 0x7fd2c5e27ce0 read can go ahead (init)
[33m[WRN] [0m[R9] RobCusor 0x7fd2c5e27ce0 write can go ahead with ticket 0x7fd2c5e267c0
[33m[WRN] [0m----------------------Experimental Execute--------------
[33m[WRN] [0mRobEntry 0x7fd2c5e06d20 ready with 0x7fd2c5e0a988
[33m[WRN] [0mRobEntry 0x7fd2c5e06fc0 not ready due to 0x7fd2c5e0b440
[33m[WRN] [0mRobEntry 0x7fd2c5e07140 not ready due to 0x7fd2c5e0b8f0
[33m[WRN] [0mRobEntry 0x7fd2c5e071a0 not ready due to 0x7fd2c5e0bbe8
[33m[WRN] [0mRobEntry 0x7fd2c5e072c0 not ready due to 0x7fd2c5e0bf70
[33m[WRN] [0mRobEntry 0x7fd2c5e062a0 not ready due to 0x7fd2c5e0c6a0
[33m[WRN] [0mRobEntry 0x7fd2c5e073e0 not ready due to 0x7fd2c5e0cb50
[33m[WRN] [0mRobEntry 0x7fd2c5e07440 not ready due to 0x7fd2c5e0ce48
[33m[WRN] [0mRobEntry 0x7fd2c5e07560 not ready due to 0x7fd2c5e0d3d0
[33m[WRN] [0mRobEntry 0x7fd2c5e076e0 not ready due to 0x7fd2c5e0db00
[33m[WRN] [0mRobEntry 0x7fd2c5e07860 not ready due to 0x7fd2c5e0dfb0
[33m[WRN] [0mRobEntry 0x7fd2c5e078c0 not ready due to 0x7fd2c5e0e2a8
[33m[WRN] [0mRobEntry 0x7fd2c5e079e0 not ready due to 0x7fd2c5e0e630
[33m[WRN] [0mRobEntry 0x7fd2c5e12260 not ready due to 0x7fd2c5e0ede0
[33m[WRN] [0mRobEntry 0x7fd2c5e16300 not ready due to 0x7fd2c5e12df0
[33m[WRN] [0mRobEntry 0x7fd2c5e182d0 not ready due to 0x7fd2c5e188f8
[33m[WRN] [0mRobEntry 0x7fd2c5e1cc10 not ready due to 0x7fd2c5e18d30
[33m[WRN] [0mRobEntry 0x7fd2c5e1f750 not ready due to 0x7fd2c5e20460
[33m[WRN] [0mRobEntry 0x7fd2c5e23a60 not ready due to 0x7fd2c5e22530
[33m[WRN] [0mRobEntry 0x7fd2c5e25b60 not ready due to 0x7fd2c5e26378
0x00007fd2c6015118  54000041		b.ne #+0x8 (addr 0x7fd2c6015120)
#    pc: 0x7fd2c6015120 (by 0x7fd2c5e06d20)
[33m[WRN] [0m[0x7fd2c5e06d20] filled ticket 0x7fd2c5e0ab30
[34m[DBG] [0m   Logic[0]: newPc <- 0x7fd2c6015120
0x00007fd2c6015130  b9400fe8		ldr w8, [sp, #12]
[33m[WRN] [0m[R31] RobEntry 0x7fd2c5e06f00 reads init val 0x0
[34m[DBG] [0m[MEM] read addr=0x7fd2c601d2dc len=0x4 val=0x7
[33m[WRN] [0m[R8] Speculative write by 0x7fd2c5e06f00 val=0x7
[33m[WRN] [0m[0x7fd2c5e06f00] filled ticket 0x7fd2c5e0b390
#    x8: 0x0000000000000007 <- 0x00007fd2c601d2dc
[34m[DBG] [0m   Logic[1]: speculation no set pc
[34m[DBG] [0m   Scribe: retired 1 ROB entries (now: 0x7fd2c5e06d20:Done)
[34m[DBG] [0m======================================== Update[38/49] 
[34m[DBG] [0m   Fetcher: buffer.size = 938
[34m[DBG] [0m   Logic: Branch prediction 0x7fd2c6015118 was correct: 6
[34m[DBG] [0m   Logic: Correct branch: 0x7fd2c5e06d20 succ 0x7fd2c5e06d80
[34m[DBG] [0m   Logic: 0x7fd2c5e06d20 affirmed speculative RobEntry 0x7fd2c5e06d80
[34m[DBG] [0m   Logic: 0x7fd2c5e06d20 enacting RobEntry 0x7fd2c5e06d80
0x00007fd2c6015120  b9400fe8		ldr w8, [sp, #12]
[33m[WRN] [0m[R31] RobEntry 0x7fd2c5e06d80 reads init val 0x0
[34m[DBG] [0m[MEM] read addr=0x7fd2c601d2dc len=0x4 val=0x7
[33m[WRN] [0m[0x7fd2c5e06d80] filled ticket 0x7fd2c5e0abe0
#    x8: 0x0000000000000007 <- 0x00007fd2c601d2dc
[34m[DBG] [0m   Logic: 0x7fd2c5e06d20 affirmed speculative RobEntry 0x7fd2c5e06de0
[34m[DBG] [0m   Logic: 0x7fd2c5e06d20 enacting RobEntry 0x7fd2c5e06de0
0x00007fd2c6015124  b9400be9		ldr w9, [sp, #8]
[33m[WRN] [0m[R31] RobEntry 0x7fd2c5e06de0 reads init val 0x0
[34m[DBG] [0m[MEM] read addr=0x7fd2c601d2d8 len=0x4 val=0x2d0
[33m[WRN] [0m[0x7fd2c5e06de0] filled ticket 0x7fd2c5e0ad10
#    x9: 0x00000000000002d0 <- 0x00007fd2c601d2d8
[34m[DBG] [0m   Logic: 0x7fd2c5e06d20 affirmed speculative RobEntry 0x7fd2c5e06e40
[34m[DBG] [0m   Logic: 0x7fd2c5e06d20 enacting RobEntry 0x7fd2c5e06e40
0x00007fd2c6015128  1b087d28		mul w8, w9, w8
[33m[WRN] [0m[0x7fd2c5e06e40] filled ticket 0x7fd2c5e0a880
#    x8: 0x00000000000013b0
[34m[DBG] [0m   Logic: 0x7fd2c5e06d20 affirmed speculative RobEntry 0x7fd2c5e06ea0
[34m[DBG] [0m   Logic: 0x7fd2c5e06d20 affirmed speculative RobEntry 0x7fd2c5e06f00
[34m[DBG] [0m   Logic: 0x7fd2c5e06d20 enacting RobEntry 0x7fd2c5e06f00
0x00007fd2c6015130  b9400fe8		ldr w8, [sp, #12]
[33m[WRN] [0m[R31] RobEntry 0x7fd2c5e06f00 reads init val 0x0
[34m[DBG] [0m[MEM] read addr=0x7fd2c601d2dc len=0x4 val=0x7
[33m[WRN] [0m[0x7fd2c5e06f00] filled ticket 0x7fd2c5e0b390
#    x8: 0x0000000000000007 <- 0x00007fd2c601d2dc
[34m[DBG] [0m   Logic: 0x7fd2c5e06d20 affirmed speculative RobEntry 0x7fd2c5e06f60
[34m[DBG] [0m   Logic: 0x7fd2c5e06d20 affirmed speculative RobEntry 0x7fd2c5e06fc0
[34m[DBG] [0m   Logic: 0x7fd2c5e06d20 affirmed speculative RobEntry 0x7fd2c5e07020
[34m[DBG] [0m   Logic: 0x7fd2c5e06d20 affirmed speculative RobEntry 0x7fd2c5e07080
[34m[DBG] [0m   Logic: instr executed ? yes: 4
[34m[DBG] [0m   Logic: rStation size <- 60, rsVacancy <- 4
[34m[DBG] [0m======================================== Sync [38/49] 
[34m[DBG] [0m======================================== Cycle End

[34m[DBG] [0m======================================== Compute[39/49]
[34m[DBG] [0mPC Offsest: 0x140
[34m[DBG] [0m   Fetcher: at: 0x7fd2c6015140 (buffer 0:938)
[34m[DBG] [0m   Fetcher: front instr = 0x7fd2c6015140, fetched 64, tmpBuffer: 64
[34m[DBG] [0m   Decoder: front instr = 0x7fd2c6015138
[34m[DBG] [0m   Decoder: Logic reservation station is full
0x00007fd2c601512c  b9000be8		str w8, [sp, #8]
[33m[WRN] [0mRobEntry 0x7fd2c5e06ea0 ready with 0x7fd2c5e0a880
0x00007fd2c6015134  12800009		mov w9, #0xffffffff
0x00007fd2c6015138  0b090108		add w8, w8, w9
0x00007fd2c601513c  b9000fe8		str w8, [sp, #12]
[33m[WRN] [0mRobEntry 0x7fd2c5e07020 not ready due to 0x7fd2c5e0b600
0x00007fd2c6015140  17fffff4		b #-0x30 (addr 0x7fd2c6015110)
0x00007fd2c6015110  b9400fe8		ldr w8, [sp, #12]
0x00007fd2c6015114  7100051f		cmp w8, #0x1 (1)
0x00007fd2c6015118  54000041		b.ne #+0x8 (addr 0x7fd2c6015120)
0x00007fd2c6015120  b9400fe8		ldr w8, [sp, #12]
0x00007fd2c6015124  b9400be9		ldr w9, [sp, #8]
0x00007fd2c6015128  1b087d28		mul w8, w9, w8
0x00007fd2c601512c  b9000be8		str w8, [sp, #8]
[33m[WRN] [0mRobEntry 0x7fd2c5e07320 not ready due to 0x7fd2c5e0bae0
0x00007fd2c6015130  b9400fe8		ldr w8, [sp, #12]
0x00007fd2c6015134  12800009		mov w9, #0xffffffff
0x00007fd2c6015138  0b090108		add w8, w8, w9
0x00007fd2c601513c  b9000fe8		str w8, [sp, #12]
[33m[WRN] [0mRobEntry 0x7fd2c5e06300 not ready due to 0x7fd2c5e0c860
0x00007fd2c6015140  17fffff4		b #-0x30 (addr 0x7fd2c6015110)
0x00007fd2c6015110  b9400fe8		ldr w8, [sp, #12]
0x00007fd2c6015114  7100051f		cmp w8, #0x1 (1)
0x00007fd2c6015118  54000041		b.ne #+0x8 (addr 0x7fd2c6015120)
0x00007fd2c6015120  b9400fe8		ldr w8, [sp, #12]
0x00007fd2c6015124  b9400be9		ldr w9, [sp, #8]
0x00007fd2c6015128  1b087d28		mul w8, w9, w8
0x00007fd2c601512c  b9000be8		str w8, [sp, #8]
[33m[WRN] [0mRobEntry 0x7fd2c5e075c0 not ready due to 0x7fd2c5e0cd40
0x00007fd2c6015130  b9400fe8		ldr w8, [sp, #12]
0x00007fd2c6015134  12800009		mov w9, #0xffffffff
0x00007fd2c6015138  0b090108		add w8, w8, w9
0x00007fd2c601513c  b9000fe8		str w8, [sp, #12]
[33m[WRN] [0mRobEntry 0x7fd2c5e07740 not ready due to 0x7fd2c5e0dcc0
0x00007fd2c6015140  17fffff4		b #-0x30 (addr 0x7fd2c6015110)
0x00007fd2c6015110  b9400fe8		ldr w8, [sp, #12]
0x00007fd2c6015114  7100051f		cmp w8, #0x1 (1)
0x00007fd2c6015118  54000041		b.ne #+0x8 (addr 0x7fd2c6015120)
0x00007fd2c6015120  b9400fe8		ldr w8, [sp, #12]
0x00007fd2c6015124  b9400be9		ldr w9, [sp, #8]
0x00007fd2c6015128  1b087d28		mul w8, w9, w8
0x00007fd2c601512c  b9000be8		str w8, [sp, #8]
[33m[WRN] [0mRobEntry 0x7fd2c5e07a40 not ready due to 0x7fd2c5e0e1a0
0x00007fd2c6015130  b9400fe8		ldr w8, [sp, #12]
0x00007fd2c6015134  12800009		mov w9, #0xffffffff
0x00007fd2c6015138  0b090108		add w8, w8, w9
0x00007fd2c601513c  b9000fe8		str w8, [sp, #12]
[33m[WRN] [0mRobEntry 0x7fd2c5e14020 not ready due to 0x7fd2c5e0ee00
0x00007fd2c6015140  17fffff4		b #-0x30 (addr 0x7fd2c6015110)
0x00007fd2c6015110  b9400fe8		ldr w8, [sp, #12]
0x00007fd2c6015114  7100051f		cmp w8, #0x1 (1)
0x00007fd2c6015118  54000041		b.ne #+0x8 (addr 0x7fd2c6015120)
0x00007fd2c6015120  b9400fe8		ldr w8, [sp, #12]
0x00007fd2c6015124  b9400be9		ldr w9, [sp, #8]
0x00007fd2c6015128  1b087d28		mul w8, w9, w8
0x00007fd2c601512c  b9000be8		str w8, [sp, #8]
[33m[WRN] [0mRobEntry 0x7fd2c5e1f630 not ready due to 0x7fd2c5e1d600
0x00007fd2c6015130  b9400fe8		ldr w8, [sp, #12]
0x00007fd2c6015134  12800009		mov w9, #0xffffffff
0x00007fd2c6015138  0b090108		add w8, w8, w9
0x00007fd2c601513c  b9000fe8		str w8, [sp, #12]
[33m[WRN] [0mRobEntry 0x7fd2c5e21690 not ready due to 0x7fd2c5e220c0
0x00007fd2c6015140  17fffff4		b #-0x30 (addr 0x7fd2c6015110)
0x00007fd2c6015110  b9400fe8		ldr w8, [sp, #12]
0x00007fd2c6015114  7100051f		cmp w8, #0x1 (1)
0x00007fd2c6015118  54000041		b.ne #+0x8 (addr 0x7fd2c6015120)
0x00007fd2c6015120  b9400fe8		ldr w8, [sp, #12]
0x00007fd2c6015124  b9400be9		ldr w9, [sp, #8]
0x00007fd2c6015128  1b087d28		mul w8, w9, w8
[33m[WRN] [0m[R9] RobCusor 0x7fd2c5e2a4a0 read-depends on 0x7fd2c5e267c0
[33m[WRN] [0m[R8] RobCusor 0x7fd2c5e2a4a0 read-depends on 0x7fd2c5e267a0
[33m[WRN] [0m[R9] RobCusor 0x7fd2c5e2a4a0 read-depends on 0x7fd2c5e267c0
[33m[WRN] [0m[R8] RobCusor 0x7fd2c5e2a4a0 read-depends on 0x7fd2c5e267a0
[33m[WRN] [0m[R9] RobCusor 0x7fd2c5e2a4a0 read-depends on 0x7fd2c5e267c0
[33m[WRN] [0m[R8] RobCusor 0x7fd2c5e2a4a0 read-depends on 0x7fd2c5e267a0
[33m[WRN] [0m[R8] RobCusor 0x7fd2c5e2a4a0 write can go ahead with ticket 0x7fd2c5c2a8a0
[33m[WRN] [0m----------------------Experimental Execute--------------
[33m[WRN] [0mRobEntry 0x7fd2c5e06ea0 ready with 0x7fd2c5e0a880
[33m[WRN] [0mRobEntry 0x7fd2c5e06fc0 not ready due to 0x7fd2c5e0b440
[33m[WRN] [0mRobEntry 0x7fd2c5e07140 not ready due to 0x7fd2c5e0b8f0
[33m[WRN] [0mRobEntry 0x7fd2c5e071a0 not ready due to 0x7fd2c5e0bbe8
[33m[WRN] [0mRobEntry 0x7fd2c5e072c0 not ready due to 0x7fd2c5e0bf70
[33m[WRN] [0mRobEntry 0x7fd2c5e062a0 not ready due to 0x7fd2c5e0c6a0
[33m[WRN] [0mRobEntry 0x7fd2c5e073e0 not ready due to 0x7fd2c5e0cb50
[33m[WRN] [0mRobEntry 0x7fd2c5e07440 not ready due to 0x7fd2c5e0ce48
[33m[WRN] [0mRobEntry 0x7fd2c5e07560 not ready due to 0x7fd2c5e0d3d0
[33m[WRN] [0mRobEntry 0x7fd2c5e076e0 not ready due to 0x7fd2c5e0db00
[33m[WRN] [0mRobEntry 0x7fd2c5e07860 not ready due to 0x7fd2c5e0dfb0
[33m[WRN] [0mRobEntry 0x7fd2c5e078c0 not ready due to 0x7fd2c5e0e2a8
[33m[WRN] [0mRobEntry 0x7fd2c5e079e0 not ready due to 0x7fd2c5e0e630
[33m[WRN] [0mRobEntry 0x7fd2c5e12260 not ready due to 0x7fd2c5e0ede0
[33m[WRN] [0mRobEntry 0x7fd2c5e16300 not ready due to 0x7fd2c5e12df0
[33m[WRN] [0mRobEntry 0x7fd2c5e182d0 not ready due to 0x7fd2c5e188f8
[33m[WRN] [0mRobEntry 0x7fd2c5e1cc10 not ready due to 0x7fd2c5e18d30
[33m[WRN] [0mRobEntry 0x7fd2c5e1f750 not ready due to 0x7fd2c5e20460
[33m[WRN] [0mRobEntry 0x7fd2c5e23a60 not ready due to 0x7fd2c5e22530
[33m[WRN] [0mRobEntry 0x7fd2c5e25b60 not ready due to 0x7fd2c5e26378
[33m[WRN] [0mRobEntry 0x7fd2c5e2a4a0 not ready due to 0x7fd2c5e267c0
0x00007fd2c601512c  b9000be8		str w8, [sp, #8]
[33m[WRN] [0m[R31] RobEntry 0x7fd2c5e06ea0 reads init val 0x0
[33m[WRN] [0mReal write: 0x7fd2c601d2d8, 0x13b0
#    w8:         0x00000007 -> 0x00007fd2c601d2d8
[34m[DBG] [0m   Logic[0]: newPc <- 0x7fd2c6015130
0x00007fd2c6015134  12800009		mov w9, #0xffffffff
[33m[WRN] [0m[0x7fd2c5e06f60] filled ticket 0x7fd2c5e0b440
#    x9: 0x00000000ffffffff
[34m[DBG] [0m   Logic[1]: newPc <- 0x7fd2c6015138
[34m[DBG] [0m   Scribe: retired 4 ROB entries (now: 0x7fd2c5e06ea0:Done)
[34m[DBG] [0m======================================== Update[39/53] 
[34m[DBG] [0m   Fetcher: buffer.size = 1001
[34m[DBG] [0m   Logic: instr executed ? yes: 3
[34m[DBG] [0m   Logic: rStation size <- 61, rsVacancy <- 3
[34m[DBG] [0m======================================== Sync [39/53] 
[34m[DBG] [0m======================================== Cycle End

[34m[DBG] [0m======================================== Compute[40/53]
[34m[DBG] [0mPC Offsest: 0x120
[34m[DBG] [0m   Fetcher: at: 0x7fd2c6015120 (buffer 0:1001)
[34m[DBG] [0m   Fetcher: front instr = 0x7fd2c6015120, fetched 64, tmpBuffer: 64
[34m[DBG] [0m   Decoder: front instr = 0x7fd2c601513c
[34m[DBG] [0m   Decoder: Logic reservation station is full
0x00007fd2c6015138  0b090108		add w8, w8, w9
0x00007fd2c601513c  b9000fe8		str w8, [sp, #12]
[33m[WRN] [0mRobEntry 0x7fd2c5e07020 not ready due to 0x7fd2c5e0b600
0x00007fd2c6015140  17fffff4		b #-0x30 (addr 0x7fd2c6015110)
0x00007fd2c6015110  b9400fe8		ldr w8, [sp, #12]
0x00007fd2c6015114  7100051f		cmp w8, #0x1 (1)
0x00007fd2c6015118  54000041		b.ne #+0x8 (addr 0x7fd2c6015120)
0x00007fd2c6015120  b9400fe8		ldr w8, [sp, #12]
0x00007fd2c6015124  b9400be9		ldr w9, [sp, #8]
0x00007fd2c6015128  1b087d28		mul w8, w9, w8
0x00007fd2c601512c  b9000be8		str w8, [sp, #8]
[33m[WRN] [0mRobEntry 0x7fd2c5e07320 not ready due to 0x7fd2c5e0bae0
0x00007fd2c6015130  b9400fe8		ldr w8, [sp, #12]
0x00007fd2c6015134  12800009		mov w9, #0xffffffff
0x00007fd2c6015138  0b090108		add w8, w8, w9
0x00007fd2c601513c  b9000fe8		str w8, [sp, #12]
[33m[WRN] [0mRobEntry 0x7fd2c5e06300 not ready due to 0x7fd2c5e0c860
0x00007fd2c6015140  17fffff4		b #-0x30 (addr 0x7fd2c6015110)
0x00007fd2c6015110  b9400fe8		ldr w8, [sp, #12]
0x00007fd2c6015114  7100051f		cmp w8, #0x1 (1)
0x00007fd2c6015118  54000041		b.ne #+0x8 (addr 0x7fd2c6015120)
0x00007fd2c6015120  b9400fe8		ldr w8, [sp, #12]
0x00007fd2c6015124  b9400be9		ldr w9, [sp, #8]
0x00007fd2c6015128  1b087d28		mul w8, w9, w8
0x00007fd2c601512c  b9000be8		str w8, [sp, #8]
[33m[WRN] [0mRobEntry 0x7fd2c5e075c0 not ready due to 0x7fd2c5e0cd40
0x00007fd2c6015130  b9400fe8		ldr w8, [sp, #12]
0x00007fd2c6015134  12800009		mov w9, #0xffffffff
0x00007fd2c6015138  0b090108		add w8, w8, w9
0x00007fd2c601513c  b9000fe8		str w8, [sp, #12]
[33m[WRN] [0mRobEntry 0x7fd2c5e07740 not ready due to 0x7fd2c5e0dcc0
0x00007fd2c6015140  17fffff4		b #-0x30 (addr 0x7fd2c6015110)
0x00007fd2c6015110  b9400fe8		ldr w8, [sp, #12]
0x00007fd2c6015114  7100051f		cmp w8, #0x1 (1)
0x00007fd2c6015118  54000041		b.ne #+0x8 (addr 0x7fd2c6015120)
0x00007fd2c6015120  b9400fe8		ldr w8, [sp, #12]
0x00007fd2c6015124  b9400be9		ldr w9, [sp, #8]
0x00007fd2c6015128  1b087d28		mul w8, w9, w8
0x00007fd2c601512c  b9000be8		str w8, [sp, #8]
[33m[WRN] [0mRobEntry 0x7fd2c5e07a40 not ready due to 0x7fd2c5e0e1a0
0x00007fd2c6015130  b9400fe8		ldr w8, [sp, #12]
0x00007fd2c6015134  12800009		mov w9, #0xffffffff
0x00007fd2c6015138  0b090108		add w8, w8, w9
0x00007fd2c601513c  b9000fe8		str w8, [sp, #12]
[33m[WRN] [0mRobEntry 0x7fd2c5e14020 not ready due to 0x7fd2c5e0ee00
0x00007fd2c6015140  17fffff4		b #-0x30 (addr 0x7fd2c6015110)
0x00007fd2c6015110  b9400fe8		ldr w8, [sp, #12]
0x00007fd2c6015114  7100051f		cmp w8, #0x1 (1)
0x00007fd2c6015118  54000041		b.ne #+0x8 (addr 0x7fd2c6015120)
0x00007fd2c6015120  b9400fe8		ldr w8, [sp, #12]
0x00007fd2c6015124  b9400be9		ldr w9, [sp, #8]
0x00007fd2c6015128  1b087d28		mul w8, w9, w8
0x00007fd2c601512c  b9000be8		str w8, [sp, #8]
[33m[WRN] [0mRobEntry 0x7fd2c5e1f630 not ready due to 0x7fd2c5e1d600
0x00007fd2c6015130  b9400fe8		ldr w8, [sp, #12]
0x00007fd2c6015134  12800009		mov w9, #0xffffffff
0x00007fd2c6015138  0b090108		add w8, w8, w9
0x00007fd2c601513c  b9000fe8		str w8, [sp, #12]
[33m[WRN] [0mRobEntry 0x7fd2c5e21690 not ready due to 0x7fd2c5e220c0
0x00007fd2c6015140  17fffff4		b #-0x30 (addr 0x7fd2c6015110)
0x00007fd2c6015110  b9400fe8		ldr w8, [sp, #12]
0x00007fd2c6015114  7100051f		cmp w8, #0x1 (1)
0x00007fd2c6015118  54000041		b.ne #+0x8 (addr 0x7fd2c6015120)
0x00007fd2c6015120  b9400fe8		ldr w8, [sp, #12]
0x00007fd2c6015124  b9400be9		ldr w9, [sp, #8]
0x00007fd2c6015128  1b087d28		mul w8, w9, w8
0x00007fd2c601512c  b9000be8		str w8, [sp, #8]
[33m[WRN] [0m[R31] RobCusor 0x7fd2c5e2cec0 read can go ahead (init)
[33m[WRN] [0m[R8] RobCusor 0x7fd2c5e2cec0 read-depends on 0x7fd2c5c2a8a0
[33m[WRN] [0mRobEntry 0x7fd2c5e2cec0 not ready due to 0x7fd2c5c2a8a0
0x00007fd2c6015130  b9400fe8		ldr w8, [sp, #12]
[33m[WRN] [0m[R31] RobCusor 0x7fd2c5e2cf20 read can go ahead (init)
[33m[WRN] [0m[R8] RobCusor 0x7fd2c5e2cf20 write can go ahead with ticket 0x7fd2c5c2a940
0x00007fd2c6015134  12800009		mov w9, #0xffffffff
[33m[WRN] [0m[R9] RobCusor 0x7fd2c5e2cf80 write can go ahead with ticket 0x7fd2c5c2a960
0x00007fd2c6015138  0b090108		add w8, w8, w9
[33m[WRN] [0m[R9] RobCusor 0x7fd2c5e2cfe0 read-depends on 0x7fd2c5c2a960
[33m[WRN] [0m[R8] RobCusor 0x7fd2c5e2cfe0 read-depends on 0x7fd2c5c2a940
[33m[WRN] [0m[R8] RobCusor 0x7fd2c5e2cfe0 write can go ahead with ticket 0x7fd2c5c207a0
[33m[WRN] [0m----------------------Experimental Execute--------------
[33m[WRN] [0mRobEntry 0x7fd2c5e06fc0 ready with 0x7fd2c5e0b440
[33m[WRN] [0mRobEntry 0x7fd2c5e06fc0 ready with 0x7fd2c5e0b390
[33m[WRN] [0mRobEntry 0x7fd2c5e07140 not ready due to 0x7fd2c5e0b8f0
[33m[WRN] [0mRobEntry 0x7fd2c5e071a0 not ready due to 0x7fd2c5e0bbe8
[33m[WRN] [0mRobEntry 0x7fd2c5e072c0 not ready due to 0x7fd2c5e0bf70
[33m[WRN] [0mRobEntry 0x7fd2c5e062a0 not ready due to 0x7fd2c5e0c6a0
[33m[WRN] [0mRobEntry 0x7fd2c5e073e0 not ready due to 0x7fd2c5e0cb50
[33m[WRN] [0mRobEntry 0x7fd2c5e07440 not ready due to 0x7fd2c5e0ce48
[33m[WRN] [0mRobEntry 0x7fd2c5e07560 not ready due to 0x7fd2c5e0d3d0
[33m[WRN] [0mRobEntry 0x7fd2c5e076e0 not ready due to 0x7fd2c5e0db00
[33m[WRN] [0mRobEntry 0x7fd2c5e07860 not ready due to 0x7fd2c5e0dfb0
[33m[WRN] [0mRobEntry 0x7fd2c5e078c0 not ready due to 0x7fd2c5e0e2a8
[33m[WRN] [0mRobEntry 0x7fd2c5e079e0 not ready due to 0x7fd2c5e0e630
[33m[WRN] [0mRobEntry 0x7fd2c5e12260 not ready due to 0x7fd2c5e0ede0
[33m[WRN] [0mRobEntry 0x7fd2c5e16300 not ready due to 0x7fd2c5e12df0
[33m[WRN] [0mRobEntry 0x7fd2c5e182d0 not ready due to 0x7fd2c5e188f8
[33m[WRN] [0mRobEntry 0x7fd2c5e1cc10 not ready due to 0x7fd2c5e18d30
[33m[WRN] [0mRobEntry 0x7fd2c5e1f750 not ready due to 0x7fd2c5e20460
[33m[WRN] [0mRobEntry 0x7fd2c5e23a60 not ready due to 0x7fd2c5e22530
[33m[WRN] [0mRobEntry 0x7fd2c5e25b60 not ready due to 0x7fd2c5e26378
[33m[WRN] [0mRobEntry 0x7fd2c5e2a4a0 not ready due to 0x7fd2c5e267c0
[33m[WRN] [0mRobEntry 0x7fd2c5e2cfe0 not ready due to 0x7fd2c5c2a960
0x00007fd2c6015138  0b090108		add w8, w8, w9
[33m[WRN] [0m[0x7fd2c5e06fc0] filled ticket 0x7fd2c5e0b600
#    x8: 0x0000000000000006
[34m[DBG] [0m   Logic[0]: newPc <- 0x7fd2c601513c
0x00007fd2c6015140  17fffff4		b #-0x30 (addr 0x7fd2c6015110)
#    pc: 0x7fd2c6015110 (by 0x7fd2c5e07080)
[33m[WRN] [0m[0x7fd2c5e07080] filled ticket 0x7fd2c5e0b840
[34m[DBG] [0m   Logic[1]: newPc <- 0x7fd2c6015110
[34m[DBG] [0m   Scribe: retired 3 ROB entries (now: 0x7fd2c5e06fc0:Done)
[34m[DBG] [0m======================================== Update[40/56] 
[34m[DBG] [0m   Fetcher: buffer.size = 1061
[34m[DBG] [0m   Logic: Branch prediction 0x7fd2c6015140 was correct: 7
[34m[DBG] [0m   Logic: Correct branch: 0x7fd2c5e07080 succ 0x7fd2c5e070e0
[34m[DBG] [0m   Logic: 0x7fd2c5e07080 affirmed speculative RobEntry 0x7fd2c5e070e0
[34m[DBG] [0m   Logic: 0x7fd2c5e07080 affirmed speculative RobEntry 0x7fd2c5e07140
[34m[DBG] [0m   Logic: 0x7fd2c5e07080 affirmed speculative RobEntry 0x7fd2c5e071a0
[34m[DBG] [0m   Logic: instr executed ? yes: 1
[34m[DBG] [0m   Logic: rStation size <- 63, rsVacancy <- 1
[34m[DBG] [0m======================================== Sync [40/56] 
[34m[DBG] [0m======================================== Cycle End

[34m[DBG] [0m======================================== Compute[41/56]
[34m[DBG] [0mPC Offsest: 0x130
[34m[DBG] [0m   Fetcher: at: 0x7fd2c6015130 (buffer 0:1061)
[34m[DBG] [0m   Fetcher: front instr = 0x7fd2c6015130, fetched 64, tmpBuffer: 64
[34m[DBG] [0m   Decoder: front instr = 0x7fd2c6015118
[34m[DBG] [0m   Decoder: Logic reservation station is full
0x00007fd2c601513c  b9000fe8		str w8, [sp, #12]
[33m[WRN] [0mRobEntry 0x7fd2c5e07020 ready with 0x7fd2c5e0b600
0x00007fd2c6015110  b9400fe8		ldr w8, [sp, #12]
0x00007fd2c6015114  7100051f		cmp w8, #0x1 (1)
0x00007fd2c6015118  54000041		b.ne #+0x8 (addr 0x7fd2c6015120)
0x00007fd2c6015120  b9400fe8		ldr w8, [sp, #12]
0x00007fd2c6015124  b9400be9		ldr w9, [sp, #8]
0x00007fd2c6015128  1b087d28		mul w8, w9, w8
0x00007fd2c601512c  b9000be8		str w8, [sp, #8]
[33m[WRN] [0mRobEntry 0x7fd2c5e07320 not ready due to 0x7fd2c5e0bae0
0x00007fd2c6015130  b9400fe8		ldr w8, [sp, #12]
0x00007fd2c6015134  12800009		mov w9, #0xffffffff
0x00007fd2c6015138  0b090108		add w8, w8, w9
0x00007fd2c601513c  b9000fe8		str w8, [sp, #12]
[33m[WRN] [0mRobEntry 0x7fd2c5e06300 not ready due to 0x7fd2c5e0c860
0x00007fd2c6015140  17fffff4		b #-0x30 (addr 0x7fd2c6015110)
0x00007fd2c6015110  b9400fe8		ldr w8, [sp, #12]
0x00007fd2c6015114  7100051f		cmp w8, #0x1 (1)
0x00007fd2c6015118  54000041		b.ne #+0x8 (addr 0x7fd2c6015120)
0x00007fd2c6015120  b9400fe8		ldr w8, [sp, #12]
0x00007fd2c6015124  b9400be9		ldr w9, [sp, #8]
0x00007fd2c6015128  1b087d28		mul w8, w9, w8
0x00007fd2c601512c  b9000be8		str w8, [sp, #8]
[33m[WRN] [0mRobEntry 0x7fd2c5e075c0 not ready due to 0x7fd2c5e0cd40
0x00007fd2c6015130  b9400fe8		ldr w8, [sp, #12]
0x00007fd2c6015134  12800009		mov w9, #0xffffffff
0x00007fd2c6015138  0b090108		add w8, w8, w9
0x00007fd2c601513c  b9000fe8		str w8, [sp, #12]
[33m[WRN] [0mRobEntry 0x7fd2c5e07740 not ready due to 0x7fd2c5e0dcc0
0x00007fd2c6015140  17fffff4		b #-0x30 (addr 0x7fd2c6015110)
0x00007fd2c6015110  b9400fe8		ldr w8, [sp, #12]
0x00007fd2c6015114  7100051f		cmp w8, #0x1 (1)
0x00007fd2c6015118  54000041		b.ne #+0x8 (addr 0x7fd2c6015120)
0x00007fd2c6015120  b9400fe8		ldr w8, [sp, #12]
0x00007fd2c6015124  b9400be9		ldr w9, [sp, #8]
0x00007fd2c6015128  1b087d28		mul w8, w9, w8
0x00007fd2c601512c  b9000be8		str w8, [sp, #8]
[33m[WRN] [0mRobEntry 0x7fd2c5e07a40 not ready due to 0x7fd2c5e0e1a0
0x00007fd2c6015130  b9400fe8		ldr w8, [sp, #12]
0x00007fd2c6015134  12800009		mov w9, #0xffffffff
0x00007fd2c6015138  0b090108		add w8, w8, w9
0x00007fd2c601513c  b9000fe8		str w8, [sp, #12]
[33m[WRN] [0mRobEntry 0x7fd2c5e14020 not ready due to 0x7fd2c5e0ee00
0x00007fd2c6015140  17fffff4		b #-0x30 (addr 0x7fd2c6015110)
0x00007fd2c6015110  b9400fe8		ldr w8, [sp, #12]
0x00007fd2c6015114  7100051f		cmp w8, #0x1 (1)
0x00007fd2c6015118  54000041		b.ne #+0x8 (addr 0x7fd2c6015120)
0x00007fd2c6015120  b9400fe8		ldr w8, [sp, #12]
0x00007fd2c6015124  b9400be9		ldr w9, [sp, #8]
0x00007fd2c6015128  1b087d28		mul w8, w9, w8
0x00007fd2c601512c  b9000be8		str w8, [sp, #8]
[33m[WRN] [0mRobEntry 0x7fd2c5e1f630 not ready due to 0x7fd2c5e1d600
0x00007fd2c6015130  b9400fe8		ldr w8, [sp, #12]
0x00007fd2c6015134  12800009		mov w9, #0xffffffff
0x00007fd2c6015138  0b090108		add w8, w8, w9
0x00007fd2c601513c  b9000fe8		str w8, [sp, #12]
[33m[WRN] [0mRobEntry 0x7fd2c5e21690 not ready due to 0x7fd2c5e220c0
0x00007fd2c6015140  17fffff4		b #-0x30 (addr 0x7fd2c6015110)
0x00007fd2c6015110  b9400fe8		ldr w8, [sp, #12]
0x00007fd2c6015114  7100051f		cmp w8, #0x1 (1)
0x00007fd2c6015118  54000041		b.ne #+0x8 (addr 0x7fd2c6015120)
0x00007fd2c6015120  b9400fe8		ldr w8, [sp, #12]
0x00007fd2c6015124  b9400be9		ldr w9, [sp, #8]
0x00007fd2c6015128  1b087d28		mul w8, w9, w8
0x00007fd2c601512c  b9000be8		str w8, [sp, #8]
[33m[WRN] [0mRobEntry 0x7fd2c5e2cec0 not ready due to 0x7fd2c5c2a8a0
0x00007fd2c6015130  b9400fe8		ldr w8, [sp, #12]
0x00007fd2c6015134  12800009		mov w9, #0xffffffff
0x00007fd2c6015138  0b090108		add w8, w8, w9
0x00007fd2c601513c  b9000fe8		str w8, [sp, #12]
[33m[WRN] [0m[R31] RobCusor 0x7fd2c5c230d0 read can go ahead (init)
[33m[WRN] [0m[R8] RobCusor 0x7fd2c5c230d0 read-depends on 0x7fd2c5c207a0
[33m[WRN] [0mRobEntry 0x7fd2c5c230d0 not ready due to 0x7fd2c5c207a0
0x00007fd2c6015140  17fffff4		b #-0x30 (addr 0x7fd2c6015110)
0x00007fd2c6015110  b9400fe8		ldr w8, [sp, #12]
[33m[WRN] [0m[R31] RobCusor 0x7fd2c5c2b360 read can go ahead (init)
[33m[WRN] [0m[R8] RobCusor 0x7fd2c5c2b360 write can go ahead with ticket 0x7fd2c5c2c110
[33m[WRN] [0m----------------------Experimental Execute--------------
[33m[WRN] [0mRobEntry 0x7fd2c5e07020 ready with 0x7fd2c5e0b600
[33m[WRN] [0mRobEntry 0x7fd2c5e07140 not ready due to 0x7fd2c5e0b8f0
[33m[WRN] [0mRobEntry 0x7fd2c5e071a0 not ready due to 0x7fd2c5e0bbe8
[33m[WRN] [0mRobEntry 0x7fd2c5e072c0 not ready due to 0x7fd2c5e0bf70
[33m[WRN] [0mRobEntry 0x7fd2c5e062a0 not ready due to 0x7fd2c5e0c6a0
[33m[WRN] [0mRobEntry 0x7fd2c5e073e0 not ready due to 0x7fd2c5e0cb50
[33m[WRN] [0mRobEntry 0x7fd2c5e07440 not ready due to 0x7fd2c5e0ce48
[33m[WRN] [0mRobEntry 0x7fd2c5e07560 not ready due to 0x7fd2c5e0d3d0
[33m[WRN] [0mRobEntry 0x7fd2c5e076e0 not ready due to 0x7fd2c5e0db00
[33m[WRN] [0mRobEntry 0x7fd2c5e07860 not ready due to 0x7fd2c5e0dfb0
[33m[WRN] [0mRobEntry 0x7fd2c5e078c0 not ready due to 0x7fd2c5e0e2a8
[33m[WRN] [0mRobEntry 0x7fd2c5e079e0 not ready due to 0x7fd2c5e0e630
[33m[WRN] [0mRobEntry 0x7fd2c5e12260 not ready due to 0x7fd2c5e0ede0
[33m[WRN] [0mRobEntry 0x7fd2c5e16300 not ready due to 0x7fd2c5e12df0
[33m[WRN] [0mRobEntry 0x7fd2c5e182d0 not ready due to 0x7fd2c5e188f8
[33m[WRN] [0mRobEntry 0x7fd2c5e1cc10 not ready due to 0x7fd2c5e18d30
[33m[WRN] [0mRobEntry 0x7fd2c5e1f750 not ready due to 0x7fd2c5e20460
[33m[WRN] [0mRobEntry 0x7fd2c5e23a60 not ready due to 0x7fd2c5e22530
[33m[WRN] [0mRobEntry 0x7fd2c5e25b60 not ready due to 0x7fd2c5e26378
[33m[WRN] [0mRobEntry 0x7fd2c5e2a4a0 not ready due to 0x7fd2c5e267c0
[33m[WRN] [0mRobEntry 0x7fd2c5e2cfe0 not ready due to 0x7fd2c5c2a960
0x00007fd2c601513c  b9000fe8		str w8, [sp, #12]
[33m[WRN] [0m[R31] RobEntry 0x7fd2c5e07020 reads init val 0x0
[33m[WRN] [0mReal write: 0x7fd2c601d2dc, 0x6
#    w8:         0x00000006 -> 0x00007fd2c601d2dc
[34m[DBG] [0m   Logic[0]: newPc <- 0x7fd2c6015140
0x00007fd2c6015124  b9400be9		ldr w9, [sp, #8]
[33m[WRN] [0m[R31] RobEntry 0x7fd2c5e07260 reads init val 0x0
[34m[DBG] [0m[MEM] read addr=0x7fd2c601d2d8 len=0x4 val=0x13b0
[33m[WRN] [0m[R9] Speculative write by 0x7fd2c5e07260 val=0x13b0
[33m[WRN] [0m[0x7fd2c5e07260] filled ticket 0x7fd2c5e0bf70
#    x9: 0x00000000ffffffff <- 0x00007fd2c601d2d8
[34m[DBG] [0m   Logic[1]: speculation no set pc
[34m[DBG] [0m   Scribe: retired 1 ROB entries (now: 0x7fd2c5e07020:Done)
[34m[DBG] [0m======================================== Update[41/57] 
[34m[DBG] [0m   Fetcher: buffer.size = 1122
[34m[DBG] [0m   Logic: instr executed ? yes: 2
[34m[DBG] [0m   Logic: rStation size <- 62, rsVacancy <- 2
[34m[DBG] [0m======================================== Sync [41/57] 
[34m[DBG] [0m======================================== Cycle End

[34m[DBG] [0m======================================== Compute[42/57]
[34m[DBG] [0mPC Offsest: 0x140
[34m[DBG] [0m   Fetcher: at: 0x7fd2c6015140 (buffer 0:1122)
[34m[DBG] [0m   Fetcher: front instr = 0x7fd2c6015140, fetched 64, tmpBuffer: 64
[34m[DBG] [0m   Decoder: front instr = 0x7fd2c6015128
[34m[DBG] [0m   Decoder: Logic reservation station is full
0x00007fd2c6015110  b9400fe8		ldr w8, [sp, #12]
0x00007fd2c6015114  7100051f		cmp w8, #0x1 (1)
0x00007fd2c6015118  54000041		b.ne #+0x8 (addr 0x7fd2c6015120)
0x00007fd2c6015120  b9400fe8		ldr w8, [sp, #12]
0x00007fd2c6015128  1b087d28		mul w8, w9, w8
0x00007fd2c601512c  b9000be8		str w8, [sp, #8]
[33m[WRN] [0mRobEntry 0x7fd2c5e07320 not ready due to 0x7fd2c5e0bae0
0x00007fd2c6015130  b9400fe8		ldr w8, [sp, #12]
0x00007fd2c6015134  12800009		mov w9, #0xffffffff
0x00007fd2c6015138  0b090108		add w8, w8, w9
0x00007fd2c601513c  b9000fe8		str w8, [sp, #12]
[33m[WRN] [0mRobEntry 0x7fd2c5e06300 not ready due to 0x7fd2c5e0c860
0x00007fd2c6015140  17fffff4		b #-0x30 (addr 0x7fd2c6015110)
0x00007fd2c6015110  b9400fe8		ldr w8, [sp, #12]
0x00007fd2c6015114  7100051f		cmp w8, #0x1 (1)
0x00007fd2c6015118  54000041		b.ne #+0x8 (addr 0x7fd2c6015120)
0x00007fd2c6015120  b9400fe8		ldr w8, [sp, #12]
0x00007fd2c6015124  b9400be9		ldr w9, [sp, #8]
0x00007fd2c6015128  1b087d28		mul w8, w9, w8
0x00007fd2c601512c  b9000be8		str w8, [sp, #8]
[33m[WRN] [0mRobEntry 0x7fd2c5e075c0 not ready due to 0x7fd2c5e0cd40
0x00007fd2c6015130  b9400fe8		ldr w8, [sp, #12]
0x00007fd2c6015134  12800009		mov w9, #0xffffffff
0x00007fd2c6015138  0b090108		add w8, w8, w9
0x00007fd2c601513c  b9000fe8		str w8, [sp, #12]
[33m[WRN] [0mRobEntry 0x7fd2c5e07740 not ready due to 0x7fd2c5e0dcc0
0x00007fd2c6015140  17fffff4		b #-0x30 (addr 0x7fd2c6015110)
0x00007fd2c6015110  b9400fe8		ldr w8, [sp, #12]
0x00007fd2c6015114  7100051f		cmp w8, #0x1 (1)
0x00007fd2c6015118  54000041		b.ne #+0x8 (addr 0x7fd2c6015120)
0x00007fd2c6015120  b9400fe8		ldr w8, [sp, #12]
0x00007fd2c6015124  b9400be9		ldr w9, [sp, #8]
0x00007fd2c6015128  1b087d28		mul w8, w9, w8
0x00007fd2c601512c  b9000be8		str w8, [sp, #8]
[33m[WRN] [0mRobEntry 0x7fd2c5e07a40 not ready due to 0x7fd2c5e0e1a0
0x00007fd2c6015130  b9400fe8		ldr w8, [sp, #12]
0x00007fd2c6015134  12800009		mov w9, #0xffffffff
0x00007fd2c6015138  0b090108		add w8, w8, w9
0x00007fd2c601513c  b9000fe8		str w8, [sp, #12]
[33m[WRN] [0mRobEntry 0x7fd2c5e14020 not ready due to 0x7fd2c5e0ee00
0x00007fd2c6015140  17fffff4		b #-0x30 (addr 0x7fd2c6015110)
0x00007fd2c6015110  b9400fe8		ldr w8, [sp, #12]
0x00007fd2c6015114  7100051f		cmp w8, #0x1 (1)
0x00007fd2c6015118  54000041		b.ne #+0x8 (addr 0x7fd2c6015120)
0x00007fd2c6015120  b9400fe8		ldr w8, [sp, #12]
0x00007fd2c6015124  b9400be9		ldr w9, [sp, #8]
0x00007fd2c6015128  1b087d28		mul w8, w9, w8
0x00007fd2c601512c  b9000be8		str w8, [sp, #8]
[33m[WRN] [0mRobEntry 0x7fd2c5e1f630 not ready due to 0x7fd2c5e1d600
0x00007fd2c6015130  b9400fe8		ldr w8, [sp, #12]
0x00007fd2c6015134  12800009		mov w9, #0xffffffff
0x00007fd2c6015138  0b090108		add w8, w8, w9
0x00007fd2c601513c  b9000fe8		str w8, [sp, #12]
[33m[WRN] [0mRobEntry 0x7fd2c5e21690 not ready due to 0x7fd2c5e220c0
0x00007fd2c6015140  17fffff4		b #-0x30 (addr 0x7fd2c6015110)
0x00007fd2c6015110  b9400fe8		ldr w8, [sp, #12]
0x00007fd2c6015114  7100051f		cmp w8, #0x1 (1)
0x00007fd2c6015118  54000041		b.ne #+0x8 (addr 0x7fd2c6015120)
0x00007fd2c6015120  b9400fe8		ldr w8, [sp, #12]
0x00007fd2c6015124  b9400be9		ldr w9, [sp, #8]
0x00007fd2c6015128  1b087d28		mul w8, w9, w8
0x00007fd2c601512c  b9000be8		str w8, [sp, #8]
[33m[WRN] [0mRobEntry 0x7fd2c5e2cec0 not ready due to 0x7fd2c5c2a8a0
0x00007fd2c6015130  b9400fe8		ldr w8, [sp, #12]
0x00007fd2c6015134  12800009		mov w9, #0xffffffff
0x00007fd2c6015138  0b090108		add w8, w8, w9
0x00007fd2c601513c  b9000fe8		str w8, [sp, #12]
[33m[WRN] [0mRobEntry 0x7fd2c5c230d0 not ready due to 0x7fd2c5c207a0
0x00007fd2c6015140  17fffff4		b #-0x30 (addr 0x7fd2c6015110)
0x00007fd2c6015110  b9400fe8		ldr w8, [sp, #12]
0x00007fd2c6015114  7100051f		cmp w8, #0x1 (1)
[33m[WRN] [0m[R8] RobCusor 0x7fd2c5c2d640 read-depends on 0x7fd2c5c2c110
[33m[WRN] [0m[NZCV] RobCusor 0x7fd2c5c2d640 write can go ahead with ticket 0x7fd2c5c2e130
[33m[WRN] [0m[NZCV] RobCusor 0x7fd2c5c2d640 write can go ahead with ticket 0x7fd2c5c2e378
[33m[WRN] [0m[NZCV] RobCusor 0x7fd2c5c2d640 write can go ahead with ticket 0x7fd2c5c2fe10
[33m[WRN] [0m[NZCV] RobCusor 0x7fd2c5c2d640 write can go ahead with ticket 0x7fd2c5c2fe28
[33m[WRN] [0m----------------------Experimental Execute--------------
[33m[WRN] [0mRobEntry 0x7fd2c5e07140 not ready due to 0x7fd2c5e0b8f0
[33m[WRN] [0mRobEntry 0x7fd2c5e071a0 not ready due to 0x7fd2c5e0bbe8
[33m[WRN] [0mRobEntry 0x7fd2c5e072c0 ready with 0x7fd2c5e0bf70
[33m[WRN] [0mRobEntry 0x7fd2c5e072c0 not ready due to 0x7fd2c5e0be40
[33m[WRN] [0mRobEntry 0x7fd2c5e062a0 not ready due to 0x7fd2c5e0c6a0
[33m[WRN] [0mRobEntry 0x7fd2c5e073e0 not ready due to 0x7fd2c5e0cb50
[33m[WRN] [0mRobEntry 0x7fd2c5e07440 not ready due to 0x7fd2c5e0ce48
[33m[WRN] [0mRobEntry 0x7fd2c5e07560 not ready due to 0x7fd2c5e0d3d0
[33m[WRN] [0mRobEntry 0x7fd2c5e076e0 not ready due to 0x7fd2c5e0db00
[33m[WRN] [0mRobEntry 0x7fd2c5e07860 not ready due to 0x7fd2c5e0dfb0
[33m[WRN] [0mRobEntry 0x7fd2c5e078c0 not ready due to 0x7fd2c5e0e2a8
[33m[WRN] [0mRobEntry 0x7fd2c5e079e0 not ready due to 0x7fd2c5e0e630
[33m[WRN] [0mRobEntry 0x7fd2c5e12260 not ready due to 0x7fd2c5e0ede0
[33m[WRN] [0mRobEntry 0x7fd2c5e16300 not ready due to 0x7fd2c5e12df0
[33m[WRN] [0mRobEntry 0x7fd2c5e182d0 not ready due to 0x7fd2c5e188f8
[33m[WRN] [0mRobEntry 0x7fd2c5e1cc10 not ready due to 0x7fd2c5e18d30
[33m[WRN] [0mRobEntry 0x7fd2c5e1f750 not ready due to 0x7fd2c5e20460
[33m[WRN] [0mRobEntry 0x7fd2c5e23a60 not ready due to 0x7fd2c5e22530
[33m[WRN] [0mRobEntry 0x7fd2c5e25b60 not ready due to 0x7fd2c5e26378
[33m[WRN] [0mRobEntry 0x7fd2c5e2a4a0 not ready due to 0x7fd2c5e267c0
[33m[WRN] [0mRobEntry 0x7fd2c5e2cfe0 not ready due to 0x7fd2c5c2a960
[33m[WRN] [0mRobEntry 0x7fd2c5c2d640 not ready due to 0x7fd2c5c2c110
0x00007fd2c6015110  b9400fe8		ldr w8, [sp, #12]
[33m[WRN] [0m[R31] RobEntry 0x7fd2c5e070e0 reads init val 0x0
[34m[DBG] [0m[MEM] read addr=0x7fd2c601d2dc len=0x4 val=0x6
[33m[WRN] [0m[0x7fd2c5e070e0] filled ticket 0x7fd2c5e0b8f0
#    x8: 0x0000000000000006 <- 0x00007fd2c601d2dc
[34m[DBG] [0m   Logic[0]: newPc <- 0x7fd2c6015114
0x00007fd2c6015120  b9400fe8		ldr w8, [sp, #12]
[33m[WRN] [0m[R31] RobEntry 0x7fd2c5e07200 reads init val 0x0
[34m[DBG] [0m[MEM] read addr=0x7fd2c601d2dc len=0x4 val=0x6
[33m[WRN] [0m[R8] Speculative write by 0x7fd2c5e07200 val=0x6
[33m[WRN] [0m[0x7fd2c5e07200] filled ticket 0x7fd2c5e0be40
#    x8: 0x0000000000000006 <- 0x00007fd2c601d2dc
[34m[DBG] [0m   Logic[1]: speculation no set pc
[34m[DBG] [0m   Scribe: retired 2 ROB entries (now: 0x7fd2c5e070e0:Done)
[34m[DBG] [0m======================================== Update[42/59] 
[34m[DBG] [0m   Fetcher: buffer.size = 1185
[34m[DBG] [0m   Logic: instr executed ? yes: 1
[34m[DBG] [0m   Logic: rStation size <- 63, rsVacancy <- 1
[34m[DBG] [0m======================================== Sync [42/59] 
[34m[DBG] [0m======================================== Cycle End

[34m[DBG] [0m======================================== Compute[43/59]
[34m[DBG] [0mPC Offsest: 0x120
[34m[DBG] [0m   Fetcher: at: 0x7fd2c6015120 (buffer 0:1185)
[34m[DBG] [0m   Fetcher: front instr = 0x7fd2c6015120, fetched 64, tmpBuffer: 64
[34m[DBG] [0m   Decoder: front instr = 0x7fd2c601512c
[34m[DBG] [0m   Decoder: Logic reservation station is full
0x00007fd2c6015114  7100051f		cmp w8, #0x1 (1)
0x00007fd2c6015118  54000041		b.ne #+0x8 (addr 0x7fd2c6015120)
0x00007fd2c6015128  1b087d28		mul w8, w9, w8
0x00007fd2c601512c  b9000be8		str w8, [sp, #8]
[33m[WRN] [0mRobEntry 0x7fd2c5e07320 not ready due to 0x7fd2c5e0bae0
0x00007fd2c6015130  b9400fe8		ldr w8, [sp, #12]
0x00007fd2c6015134  12800009		mov w9, #0xffffffff
0x00007fd2c6015138  0b090108		add w8, w8, w9
0x00007fd2c601513c  b9000fe8		str w8, [sp, #12]
[33m[WRN] [0mRobEntry 0x7fd2c5e06300 not ready due to 0x7fd2c5e0c860
0x00007fd2c6015140  17fffff4		b #-0x30 (addr 0x7fd2c6015110)
0x00007fd2c6015110  b9400fe8		ldr w8, [sp, #12]
0x00007fd2c6015114  7100051f		cmp w8, #0x1 (1)
0x00007fd2c6015118  54000041		b.ne #+0x8 (addr 0x7fd2c6015120)
0x00007fd2c6015120  b9400fe8		ldr w8, [sp, #12]
0x00007fd2c6015124  b9400be9		ldr w9, [sp, #8]
0x00007fd2c6015128  1b087d28		mul w8, w9, w8
0x00007fd2c601512c  b9000be8		str w8, [sp, #8]
[33m[WRN] [0mRobEntry 0x7fd2c5e075c0 not ready due to 0x7fd2c5e0cd40
0x00007fd2c6015130  b9400fe8		ldr w8, [sp, #12]
0x00007fd2c6015134  12800009		mov w9, #0xffffffff
0x00007fd2c6015138  0b090108		add w8, w8, w9
0x00007fd2c601513c  b9000fe8		str w8, [sp, #12]
[33m[WRN] [0mRobEntry 0x7fd2c5e07740 not ready due to 0x7fd2c5e0dcc0
0x00007fd2c6015140  17fffff4		b #-0x30 (addr 0x7fd2c6015110)
0x00007fd2c6015110  b9400fe8		ldr w8, [sp, #12]
0x00007fd2c6015114  7100051f		cmp w8, #0x1 (1)
0x00007fd2c6015118  54000041		b.ne #+0x8 (addr 0x7fd2c6015120)
0x00007fd2c6015120  b9400fe8		ldr w8, [sp, #12]
0x00007fd2c6015124  b9400be9		ldr w9, [sp, #8]
0x00007fd2c6015128  1b087d28		mul w8, w9, w8
0x00007fd2c601512c  b9000be8		str w8, [sp, #8]
[33m[WRN] [0mRobEntry 0x7fd2c5e07a40 not ready due to 0x7fd2c5e0e1a0
0x00007fd2c6015130  b9400fe8		ldr w8, [sp, #12]
0x00007fd2c6015134  12800009		mov w9, #0xffffffff
0x00007fd2c6015138  0b090108		add w8, w8, w9
0x00007fd2c601513c  b9000fe8		str w8, [sp, #12]
[33m[WRN] [0mRobEntry 0x7fd2c5e14020 not ready due to 0x7fd2c5e0ee00
0x00007fd2c6015140  17fffff4		b #-0x30 (addr 0x7fd2c6015110)
0x00007fd2c6015110  b9400fe8		ldr w8, [sp, #12]
0x00007fd2c6015114  7100051f		cmp w8, #0x1 (1)
0x00007fd2c6015118  54000041		b.ne #+0x8 (addr 0x7fd2c6015120)
0x00007fd2c6015120  b9400fe8		ldr w8, [sp, #12]
0x00007fd2c6015124  b9400be9		ldr w9, [sp, #8]
0x00007fd2c6015128  1b087d28		mul w8, w9, w8
0x00007fd2c601512c  b9000be8		str w8, [sp, #8]
[33m[WRN] [0mRobEntry 0x7fd2c5e1f630 not ready due to 0x7fd2c5e1d600
0x00007fd2c6015130  b9400fe8		ldr w8, [sp, #12]
0x00007fd2c6015134  12800009		mov w9, #0xffffffff
0x00007fd2c6015138  0b090108		add w8, w8, w9
0x00007fd2c601513c  b9000fe8		str w8, [sp, #12]
[33m[WRN] [0mRobEntry 0x7fd2c5e21690 not ready due to 0x7fd2c5e220c0
0x00007fd2c6015140  17fffff4		b #-0x30 (addr 0x7fd2c6015110)
0x00007fd2c6015110  b9400fe8		ldr w8, [sp, #12]
0x00007fd2c6015114  7100051f		cmp w8, #0x1 (1)
0x00007fd2c6015118  54000041		b.ne #+0x8 (addr 0x7fd2c6015120)
0x00007fd2c6015120  b9400fe8		ldr w8, [sp, #12]
0x00007fd2c6015124  b9400be9		ldr w9, [sp, #8]
0x00007fd2c6015128  1b087d28		mul w8, w9, w8
0x00007fd2c601512c  b9000be8		str w8, [sp, #8]
[33m[WRN] [0mRobEntry 0x7fd2c5e2cec0 not ready due to 0x7fd2c5c2a8a0
0x00007fd2c6015130  b9400fe8		ldr w8, [sp, #12]
0x00007fd2c6015134  12800009		mov w9, #0xffffffff
0x00007fd2c6015138  0b090108		add w8, w8, w9
0x00007fd2c601513c  b9000fe8		str w8, [sp, #12]
[33m[WRN] [0mRobEntry 0x7fd2c5c230d0 not ready due to 0x7fd2c5c207a0
0x00007fd2c6015140  17fffff4		b #-0x30 (addr 0x7fd2c6015110)
0x00007fd2c6015110  b9400fe8		ldr w8, [sp, #12]
0x00007fd2c6015114  7100051f		cmp w8, #0x1 (1)
0x00007fd2c6015118  54000041		b.ne #+0x8 (addr 0x7fd2c6015120)
[33m[WRN] [0m[NZCV] RobCusor 0x7fd2c5c2f610 read-depends on 0x7fd2c5c2fe28
0x00007fd2c6015120  b9400fe8		ldr w8, [sp, #12]
[33m[WRN] [0m[R31] RobCusor 0x7fd2c5c2f670 read can go ahead (init)
[33m[WRN] [0m[R8] RobCusor 0x7fd2c5c2f670 write can go ahead with ticket 0x7fd2c5c30250
[33m[WRN] [0m----------------------Experimental Execute--------------
[33m[WRN] [0mRobEntry 0x7fd2c5e07140 ready with 0x7fd2c5e0b8f0
[33m[WRN] [0mRobEntry 0x7fd2c5e071a0 not ready due to 0x7fd2c5e0bbe8
[33m[WRN] [0mRobEntry 0x7fd2c5e072c0 ready with 0x7fd2c5e0bf70
[33m[WRN] [0mRobEntry 0x7fd2c5e072c0 ready with 0x7fd2c5e0be40
[33m[WRN] [0mRobEntry 0x7fd2c5e072c0 ready with 0x7fd2c5e0bf70
[33m[WRN] [0mRobEntry 0x7fd2c5e072c0 ready with 0x7fd2c5e0be40
[33m[WRN] [0mRobEntry 0x7fd2c5e072c0 ready with 0x7fd2c5e0bf70
[33m[WRN] [0mRobEntry 0x7fd2c5e072c0 ready with 0x7fd2c5e0be40
[33m[WRN] [0mRobEntry 0x7fd2c5e062a0 not ready due to 0x7fd2c5e0c6a0
[33m[WRN] [0mRobEntry 0x7fd2c5e073e0 not ready due to 0x7fd2c5e0cb50
[33m[WRN] [0mRobEntry 0x7fd2c5e07440 not ready due to 0x7fd2c5e0ce48
[33m[WRN] [0mRobEntry 0x7fd2c5e07560 not ready due to 0x7fd2c5e0d3d0
[33m[WRN] [0mRobEntry 0x7fd2c5e076e0 not ready due to 0x7fd2c5e0db00
[33m[WRN] [0mRobEntry 0x7fd2c5e07860 not ready due to 0x7fd2c5e0dfb0
[33m[WRN] [0mRobEntry 0x7fd2c5e078c0 not ready due to 0x7fd2c5e0e2a8
[33m[WRN] [0mRobEntry 0x7fd2c5e079e0 not ready due to 0x7fd2c5e0e630
[33m[WRN] [0mRobEntry 0x7fd2c5e12260 not ready due to 0x7fd2c5e0ede0
[33m[WRN] [0mRobEntry 0x7fd2c5e16300 not ready due to 0x7fd2c5e12df0
[33m[WRN] [0mRobEntry 0x7fd2c5e182d0 not ready due to 0x7fd2c5e188f8
[33m[WRN] [0mRobEntry 0x7fd2c5e1cc10 not ready due to 0x7fd2c5e18d30
[33m[WRN] [0mRobEntry 0x7fd2c5e1f750 not ready due to 0x7fd2c5e20460
[33m[WRN] [0mRobEntry 0x7fd2c5e23a60 not ready due to 0x7fd2c5e22530
[33m[WRN] [0mRobEntry 0x7fd2c5e25b60 not ready due to 0x7fd2c5e26378
[33m[WRN] [0mRobEntry 0x7fd2c5e2a4a0 not ready due to 0x7fd2c5e267c0
[33m[WRN] [0mRobEntry 0x7fd2c5e2cfe0 not ready due to 0x7fd2c5c2a960
[33m[WRN] [0mRobEntry 0x7fd2c5c2d640 not ready due to 0x7fd2c5c2c110
[33m[WRN] [0mRobEntry 0x7fd2c5c2f610 not ready due to 0x7fd2c5c2fe28
0x00007fd2c6015114  7100051f		cmp w8, #0x1 (1)
[33m[WRN] [0m[0x7fd2c5e07140] filled ticket 0x7fd2c5e0bba0
[33m[WRN] [0m[0x7fd2c5e07140] filled ticket 0x7fd2c5e0bbb8
[33m[WRN] [0m[0x7fd2c5e07140] filled ticket 0x7fd2c5e0bbd0
[33m[WRN] [0m[0x7fd2c5e07140] filled ticket 0x7fd2c5e0bbe8
[33m[WRN] [0m[0x7fd2c5e07140] filled ticket 0x7fd2c5e0bba0
[33m[WRN] [0m[0x7fd2c5e07140] filled ticket 0x7fd2c5e0bbb8
[33m[WRN] [0m[0x7fd2c5e07140] filled ticket 0x7fd2c5e0bbd0
[33m[WRN] [0m[0x7fd2c5e07140] filled ticket 0x7fd2c5e0bbe8
[33m[WRN] [0m[0x7fd2c5e07140] filled ticket 0x7fd2c5e0bba0
[33m[WRN] [0m[0x7fd2c5e07140] filled ticket 0x7fd2c5e0bbb8
[33m[WRN] [0m[0x7fd2c5e07140] filled ticket 0x7fd2c5e0bbd0
[33m[WRN] [0m[0x7fd2c5e07140] filled ticket 0x7fd2c5e0bbe8
[33m[WRN] [0m[0x7fd2c5e07140] filled ticket 0x7fd2c5e0bba0
[33m[WRN] [0m[0x7fd2c5e07140] filled ticket 0x7fd2c5e0bbb8
[33m[WRN] [0m[0x7fd2c5e07140] filled ticket 0x7fd2c5e0bbd0
[33m[WRN] [0m[0x7fd2c5e07140] filled ticket 0x7fd2c5e0bbe8
# NZCV: N:0 Z:0 C:1 V:0
[34m[DBG] [0m   Logic[0]: newPc <- 0x7fd2c6015118
0x00007fd2c6015128  1b087d28		mul w8, w9, w8
[33m[WRN] [0m[R8] Speculative write by 0x7fd2c5e072c0 val=0x5fffffffa
[33m[WRN] [0m[0x7fd2c5e072c0] filled ticket 0x7fd2c5e0bae0
#    x8: 0x0000000000000006
[34m[DBG] [0m   Logic[1]: speculation no set pc
[34m[DBG] [0m   Scribe: retired 1 ROB entries (now: 0x7fd2c5e07140:Done)
[34m[DBG] [0m======================================== Update[43/60] 
[34m[DBG] [0m   Fetcher: buffer.size = 1247
[34m[DBG] [0m   Logic: instr executed ? yes: 1
[34m[DBG] [0m   Logic: rStation size <- 63, rsVacancy <- 1
[34m[DBG] [0m======================================== Sync [43/60] 
[34m[DBG] [0m======================================== Cycle End

[34m[DBG] [0m======================================== Compute[44/60]
[34m[DBG] [0mPC Offsest: 0x130
[34m[DBG] [0m   Fetcher: at: 0x7fd2c6015130 (buffer 0:1247)
[34m[DBG] [0m   Fetcher: front instr = 0x7fd2c6015130, fetched 64, tmpBuffer: 64
[34m[DBG] [0m   Decoder: front instr = 0x7fd2c6015134
[34m[DBG] [0m   Decoder: Logic reservation station is full
0x00007fd2c6015118  54000041		b.ne #+0x8 (addr 0x7fd2c6015120)
0x00007fd2c601512c  b9000be8		str w8, [sp, #8]
[33m[WRN] [0mRobEntry 0x7fd2c5e07320 ready with 0x7fd2c5e0bae0
0x00007fd2c6015130  b9400fe8		ldr w8, [sp, #12]
0x00007fd2c6015134  12800009		mov w9, #0xffffffff
0x00007fd2c6015138  0b090108		add w8, w8, w9
0x00007fd2c601513c  b9000fe8		str w8, [sp, #12]
[33m[WRN] [0mRobEntry 0x7fd2c5e06300 not ready due to 0x7fd2c5e0c860
0x00007fd2c6015140  17fffff4		b #-0x30 (addr 0x7fd2c6015110)
0x00007fd2c6015110  b9400fe8		ldr w8, [sp, #12]
0x00007fd2c6015114  7100051f		cmp w8, #0x1 (1)
0x00007fd2c6015118  54000041		b.ne #+0x8 (addr 0x7fd2c6015120)
0x00007fd2c6015120  b9400fe8		ldr w8, [sp, #12]
0x00007fd2c6015124  b9400be9		ldr w9, [sp, #8]
0x00007fd2c6015128  1b087d28		mul w8, w9, w8
0x00007fd2c601512c  b9000be8		str w8, [sp, #8]
[33m[WRN] [0mRobEntry 0x7fd2c5e075c0 not ready due to 0x7fd2c5e0cd40
0x00007fd2c6015130  b9400fe8		ldr w8, [sp, #12]
0x00007fd2c6015134  12800009		mov w9, #0xffffffff
0x00007fd2c6015138  0b090108		add w8, w8, w9
0x00007fd2c601513c  b9000fe8		str w8, [sp, #12]
[33m[WRN] [0mRobEntry 0x7fd2c5e07740 not ready due to 0x7fd2c5e0dcc0
0x00007fd2c6015140  17fffff4		b #-0x30 (addr 0x7fd2c6015110)
0x00007fd2c6015110  b9400fe8		ldr w8, [sp, #12]
0x00007fd2c6015114  7100051f		cmp w8, #0x1 (1)
0x00007fd2c6015118  54000041		b.ne #+0x8 (addr 0x7fd2c6015120)
0x00007fd2c6015120  b9400fe8		ldr w8, [sp, #12]
0x00007fd2c6015124  b9400be9		ldr w9, [sp, #8]
0x00007fd2c6015128  1b087d28		mul w8, w9, w8
0x00007fd2c601512c  b9000be8		str w8, [sp, #8]
[33m[WRN] [0mRobEntry 0x7fd2c5e07a40 not ready due to 0x7fd2c5e0e1a0
0x00007fd2c6015130  b9400fe8		ldr w8, [sp, #12]
0x00007fd2c6015134  12800009		mov w9, #0xffffffff
0x00007fd2c6015138  0b090108		add w8, w8, w9
0x00007fd2c601513c  b9000fe8		str w8, [sp, #12]
[33m[WRN] [0mRobEntry 0x7fd2c5e14020 not ready due to 0x7fd2c5e0ee00
0x00007fd2c6015140  17fffff4		b #-0x30 (addr 0x7fd2c6015110)
0x00007fd2c6015110  b9400fe8		ldr w8, [sp, #12]
0x00007fd2c6015114  7100051f		cmp w8, #0x1 (1)
0x00007fd2c6015118  54000041		b.ne #+0x8 (addr 0x7fd2c6015120)
0x00007fd2c6015120  b9400fe8		ldr w8, [sp, #12]
0x00007fd2c6015124  b9400be9		ldr w9, [sp, #8]
0x00007fd2c6015128  1b087d28		mul w8, w9, w8
0x00007fd2c601512c  b9000be8		str w8, [sp, #8]
[33m[WRN] [0mRobEntry 0x7fd2c5e1f630 not ready due to 0x7fd2c5e1d600
0x00007fd2c6015130  b9400fe8		ldr w8, [sp, #12]
0x00007fd2c6015134  12800009		mov w9, #0xffffffff
0x00007fd2c6015138  0b090108		add w8, w8, w9
0x00007fd2c601513c  b9000fe8		str w8, [sp, #12]
[33m[WRN] [0mRobEntry 0x7fd2c5e21690 not ready due to 0x7fd2c5e220c0
0x00007fd2c6015140  17fffff4		b #-0x30 (addr 0x7fd2c6015110)
0x00007fd2c6015110  b9400fe8		ldr w8, [sp, #12]
0x00007fd2c6015114  7100051f		cmp w8, #0x1 (1)
0x00007fd2c6015118  54000041		b.ne #+0x8 (addr 0x7fd2c6015120)
0x00007fd2c6015120  b9400fe8		ldr w8, [sp, #12]
0x00007fd2c6015124  b9400be9		ldr w9, [sp, #8]
0x00007fd2c6015128  1b087d28		mul w8, w9, w8
0x00007fd2c601512c  b9000be8		str w8, [sp, #8]
[33m[WRN] [0mRobEntry 0x7fd2c5e2cec0 not ready due to 0x7fd2c5c2a8a0
0x00007fd2c6015130  b9400fe8		ldr w8, [sp, #12]
0x00007fd2c6015134  12800009		mov w9, #0xffffffff
0x00007fd2c6015138  0b090108		add w8, w8, w9
0x00007fd2c601513c  b9000fe8		str w8, [sp, #12]
[33m[WRN] [0mRobEntry 0x7fd2c5c230d0 not ready due to 0x7fd2c5c207a0
0x00007fd2c6015140  17fffff4		b #-0x30 (addr 0x7fd2c6015110)
0x00007fd2c6015110  b9400fe8		ldr w8, [sp, #12]
0x00007fd2c6015114  7100051f		cmp w8, #0x1 (1)
0x00007fd2c6015118  54000041		b.ne #+0x8 (addr 0x7fd2c6015120)
0x00007fd2c6015120  b9400fe8		ldr w8, [sp, #12]
0x00007fd2c6015124  b9400be9		ldr w9, [sp, #8]
[33m[WRN] [0m[R31] RobCusor 0x7fd2c5c31790 read can go ahead (init)
[33m[WRN] [0m[R9] RobCusor 0x7fd2c5c31790 write can go ahead with ticket 0x7fd2c5c30270
[33m[WRN] [0m----------------------Experimental Execute--------------
[33m[WRN] [0mRobEntry 0x7fd2c5e071a0 ready with 0x7fd2c5e0bbe8
[33m[WRN] [0mRobEntry 0x7fd2c5e062a0 not ready due to 0x7fd2c5e0c6a0
[33m[WRN] [0mRobEntry 0x7fd2c5e073e0 not ready due to 0x7fd2c5e0cb50
[33m[WRN] [0mRobEntry 0x7fd2c5e07440 not ready due to 0x7fd2c5e0ce48
[33m[WRN] [0mRobEntry 0x7fd2c5e07560 not ready due to 0x7fd2c5e0d3d0
[33m[WRN] [0mRobEntry 0x7fd2c5e076e0 not ready due to 0x7fd2c5e0db00
[33m[WRN] [0mRobEntry 0x7fd2c5e07860 not ready due to 0x7fd2c5e0dfb0
[33m[WRN] [0mRobEntry 0x7fd2c5e078c0 not ready due to 0x7fd2c5e0e2a8
[33m[WRN] [0mRobEntry 0x7fd2c5e079e0 not ready due to 0x7fd2c5e0e630
[33m[WRN] [0mRobEntry 0x7fd2c5e12260 not ready due to 0x7fd2c5e0ede0
[33m[WRN] [0mRobEntry 0x7fd2c5e16300 not ready due to 0x7fd2c5e12df0
[33m[WRN] [0mRobEntry 0x7fd2c5e182d0 not ready due to 0x7fd2c5e188f8
[33m[WRN] [0mRobEntry 0x7fd2c5e1cc10 not ready due to 0x7fd2c5e18d30
[33m[WRN] [0mRobEntry 0x7fd2c5e1f750 not ready due to 0x7fd2c5e20460
[33m[WRN] [0mRobEntry 0x7fd2c5e23a60 not ready due to 0x7fd2c5e22530
[33m[WRN] [0mRobEntry 0x7fd2c5e25b60 not ready due to 0x7fd2c5e26378
[33m[WRN] [0mRobEntry 0x7fd2c5e2a4a0 not ready due to 0x7fd2c5e267c0
[33m[WRN] [0mRobEntry 0x7fd2c5e2cfe0 not ready due to 0x7fd2c5c2a960
[33m[WRN] [0mRobEntry 0x7fd2c5c2d640 not ready due to 0x7fd2c5c2c110
[33m[WRN] [0mRobEntry 0x7fd2c5c2f610 not ready due to 0x7fd2c5c2fe28
0x00007fd2c6015118  54000041		b.ne #+0x8 (addr 0x7fd2c6015120)
#    pc: 0x7fd2c6015120 (by 0x7fd2c5e071a0)
[33m[WRN] [0m[0x7fd2c5e071a0] filled ticket 0x7fd2c5e0bd90
[34m[DBG] [0m   Logic[0]: newPc <- 0x7fd2c6015120
0x00007fd2c6015130  b9400fe8		ldr w8, [sp, #12]
[33m[WRN] [0m[R31] RobEntry 0x7fd2c5e061e0 reads init val 0x0
[34m[DBG] [0m[MEM] read addr=0x7fd2c601d2dc len=0x4 val=0x6
[33m[WRN] [0m[R8] Speculative write by 0x7fd2c5e061e0 val=0x6
[33m[WRN] [0m[0x7fd2c5e061e0] filled ticket 0x7fd2c5e0c5f0
#    x8: 0x0000000000000006 <- 0x00007fd2c601d2dc
[34m[DBG] [0m   Logic[1]: speculation no set pc
[34m[DBG] [0m   Scribe: retired 1 ROB entries (now: 0x7fd2c5e071a0:Done)
[34m[DBG] [0m======================================== Update[44/61] 
[34m[DBG] [0m   Fetcher: buffer.size = 1310
[34m[DBG] [0m   Logic: Branch prediction 0x7fd2c6015118 was correct: 8
[34m[DBG] [0m   Logic: Correct branch: 0x7fd2c5e071a0 succ 0x7fd2c5e07200
[34m[DBG] [0m   Logic: 0x7fd2c5e071a0 affirmed speculative RobEntry 0x7fd2c5e07200
[34m[DBG] [0m   Logic: 0x7fd2c5e071a0 enacting RobEntry 0x7fd2c5e07200
0x00007fd2c6015120  b9400fe8		ldr w8, [sp, #12]
[33m[WRN] [0m[R31] RobEntry 0x7fd2c5e07200 reads init val 0x0
[34m[DBG] [0m[MEM] read addr=0x7fd2c601d2dc len=0x4 val=0x6
[33m[WRN] [0m[0x7fd2c5e07200] filled ticket 0x7fd2c5e0be40
#    x8: 0x0000000000000006 <- 0x00007fd2c601d2dc
[34m[DBG] [0m   Logic: 0x7fd2c5e071a0 affirmed speculative RobEntry 0x7fd2c5e07260
[34m[DBG] [0m   Logic: 0x7fd2c5e071a0 enacting RobEntry 0x7fd2c5e07260
0x00007fd2c6015124  b9400be9		ldr w9, [sp, #8]
[33m[WRN] [0m[R31] RobEntry 0x7fd2c5e07260 reads init val 0x0
[34m[DBG] [0m[MEM] read addr=0x7fd2c601d2d8 len=0x4 val=0x13b0
[33m[WRN] [0m[0x7fd2c5e07260] filled ticket 0x7fd2c5e0bf70
#    x9: 0x00000000000013b0 <- 0x00007fd2c601d2d8
[34m[DBG] [0m   Logic: 0x7fd2c5e071a0 affirmed speculative RobEntry 0x7fd2c5e072c0
[34m[DBG] [0m   Logic: 0x7fd2c5e071a0 enacting RobEntry 0x7fd2c5e072c0
0x00007fd2c6015128  1b087d28		mul w8, w9, w8
[33m[WRN] [0m[0x7fd2c5e072c0] filled ticket 0x7fd2c5e0bae0
#    x8: 0x0000000000007620
[34m[DBG] [0m   Logic: 0x7fd2c5e071a0 affirmed speculative RobEntry 0x7fd2c5e07320
[34m[DBG] [0m   Logic: 0x7fd2c5e071a0 affirmed speculative RobEntry 0x7fd2c5e061e0
[34m[DBG] [0m   Logic: 0x7fd2c5e071a0 enacting RobEntry 0x7fd2c5e061e0
0x00007fd2c6015130  b9400fe8		ldr w8, [sp, #12]
[33m[WRN] [0m[R31] RobEntry 0x7fd2c5e061e0 reads init val 0x0
[34m[DBG] [0m[MEM] read addr=0x7fd2c601d2dc len=0x4 val=0x6
[33m[WRN] [0m[0x7fd2c5e061e0] filled ticket 0x7fd2c5e0c5f0
#    x8: 0x0000000000000006 <- 0x00007fd2c601d2dc
[34m[DBG] [0m   Logic: 0x7fd2c5e071a0 affirmed speculative RobEntry 0x7fd2c5e06240
[34m[DBG] [0m   Logic: 0x7fd2c5e071a0 affirmed speculative RobEntry 0x7fd2c5e062a0
[34m[DBG] [0m   Logic: 0x7fd2c5e071a0 affirmed speculative RobEntry 0x7fd2c5e06300
[34m[DBG] [0m   Logic: 0x7fd2c5e071a0 affirmed speculative RobEntry 0x7fd2c5e06360
[34m[DBG] [0m   Logic: instr executed ? yes: 4
[34m[DBG] [0m   Logic: rStation size <- 60, rsVacancy <- 4
[34m[DBG] [0m======================================== Sync [44/61] 
[34m[DBG] [0m======================================== Cycle End

[34m[DBG] [0m======================================== Compute[45/61]
[34m[DBG] [0mPC Offsest: 0x140
[34m[DBG] [0m   Fetcher: at: 0x7fd2c6015140 (buffer 0:1310)
[34m[DBG] [0m   Fetcher: front instr = 0x7fd2c6015140, fetched 64, tmpBuffer: 64
[34m[DBG] [0m   Decoder: front instr = 0x7fd2c6015138
[34m[DBG] [0m   Decoder: Logic reservation station is full
0x00007fd2c601512c  b9000be8		str w8, [sp, #8]
[33m[WRN] [0mRobEntry 0x7fd2c5e07320 ready with 0x7fd2c5e0bae0
0x00007fd2c6015134  12800009		mov w9, #0xffffffff
0x00007fd2c6015138  0b090108		add w8, w8, w9
0x00007fd2c601513c  b9000fe8		str w8, [sp, #12]
[33m[WRN] [0mRobEntry 0x7fd2c5e06300 not ready due to 0x7fd2c5e0c860
0x00007fd2c6015140  17fffff4		b #-0x30 (addr 0x7fd2c6015110)
0x00007fd2c6015110  b9400fe8		ldr w8, [sp, #12]
0x00007fd2c6015114  7100051f		cmp w8, #0x1 (1)
0x00007fd2c6015118  54000041		b.ne #+0x8 (addr 0x7fd2c6015120)
0x00007fd2c6015120  b9400fe8		ldr w8, [sp, #12]
0x00007fd2c6015124  b9400be9		ldr w9, [sp, #8]
0x00007fd2c6015128  1b087d28		mul w8, w9, w8
0x00007fd2c601512c  b9000be8		str w8, [sp, #8]
[33m[WRN] [0mRobEntry 0x7fd2c5e075c0 not ready due to 0x7fd2c5e0cd40
0x00007fd2c6015130  b9400fe8		ldr w8, [sp, #12]
0x00007fd2c6015134  12800009		mov w9, #0xffffffff
0x00007fd2c6015138  0b090108		add w8, w8, w9
0x00007fd2c601513c  b9000fe8		str w8, [sp, #12]
[33m[WRN] [0mRobEntry 0x7fd2c5e07740 not ready due to 0x7fd2c5e0dcc0
0x00007fd2c6015140  17fffff4		b #-0x30 (addr 0x7fd2c6015110)
0x00007fd2c6015110  b9400fe8		ldr w8, [sp, #12]
0x00007fd2c6015114  7100051f		cmp w8, #0x1 (1)
0x00007fd2c6015118  54000041		b.ne #+0x8 (addr 0x7fd2c6015120)
0x00007fd2c6015120  b9400fe8		ldr w8, [sp, #12]
0x00007fd2c6015124  b9400be9		ldr w9, [sp, #8]
0x00007fd2c6015128  1b087d28		mul w8, w9, w8
0x00007fd2c601512c  b9000be8		str w8, [sp, #8]
[33m[WRN] [0mRobEntry 0x7fd2c5e07a40 not ready due to 0x7fd2c5e0e1a0
0x00007fd2c6015130  b9400fe8		ldr w8, [sp, #12]
0x00007fd2c6015134  12800009		mov w9, #0xffffffff
0x00007fd2c6015138  0b090108		add w8, w8, w9
0x00007fd2c601513c  b9000fe8		str w8, [sp, #12]
[33m[WRN] [0mRobEntry 0x7fd2c5e14020 not ready due to 0x7fd2c5e0ee00
0x00007fd2c6015140  17fffff4		b #-0x30 (addr 0x7fd2c6015110)
0x00007fd2c6015110  b9400fe8		ldr w8, [sp, #12]
0x00007fd2c6015114  7100051f		cmp w8, #0x1 (1)
0x00007fd2c6015118  54000041		b.ne #+0x8 (addr 0x7fd2c6015120)
0x00007fd2c6015120  b9400fe8		ldr w8, [sp, #12]
0x00007fd2c6015124  b9400be9		ldr w9, [sp, #8]
0x00007fd2c6015128  1b087d28		mul w8, w9, w8
0x00007fd2c601512c  b9000be8		str w8, [sp, #8]
[33m[WRN] [0mRobEntry 0x7fd2c5e1f630 not ready due to 0x7fd2c5e1d600
0x00007fd2c6015130  b9400fe8		ldr w8, [sp, #12]
0x00007fd2c6015134  12800009		mov w9, #0xffffffff
0x00007fd2c6015138  0b090108		add w8, w8, w9
0x00007fd2c601513c  b9000fe8		str w8, [sp, #12]
[33m[WRN] [0mRobEntry 0x7fd2c5e21690 not ready due to 0x7fd2c5e220c0
0x00007fd2c6015140  17fffff4		b #-0x30 (addr 0x7fd2c6015110)
0x00007fd2c6015110  b9400fe8		ldr w8, [sp, #12]
0x00007fd2c6015114  7100051f		cmp w8, #0x1 (1)
0x00007fd2c6015118  54000041		b.ne #+0x8 (addr 0x7fd2c6015120)
0x00007fd2c6015120  b9400fe8		ldr w8, [sp, #12]
0x00007fd2c6015124  b9400be9		ldr w9, [sp, #8]
0x00007fd2c6015128  1b087d28		mul w8, w9, w8
0x00007fd2c601512c  b9000be8		str w8, [sp, #8]
[33m[WRN] [0mRobEntry 0x7fd2c5e2cec0 not ready due to 0x7fd2c5c2a8a0
0x00007fd2c6015130  b9400fe8		ldr w8, [sp, #12]
0x00007fd2c6015134  12800009		mov w9, #0xffffffff
0x00007fd2c6015138  0b090108		add w8, w8, w9
0x00007fd2c601513c  b9000fe8		str w8, [sp, #12]
[33m[WRN] [0mRobEntry 0x7fd2c5c230d0 not ready due to 0x7fd2c5c207a0
0x00007fd2c6015140  17fffff4		b #-0x30 (addr 0x7fd2c6015110)
0x00007fd2c6015110  b9400fe8		ldr w8, [sp, #12]
0x00007fd2c6015114  7100051f		cmp w8, #0x1 (1)
0x00007fd2c6015118  54000041		b.ne #+0x8 (addr 0x7fd2c6015120)
0x00007fd2c6015120  b9400fe8		ldr w8, [sp, #12]
0x00007fd2c6015124  b9400be9		ldr w9, [sp, #8]
0x00007fd2c6015128  1b087d28		mul w8, w9, w8
[33m[WRN] [0m[R9] RobCusor 0x7fd2c5c33f50 read-depends on 0x7fd2c5c30270
[33m[WRN] [0m[R8] RobCusor 0x7fd2c5c33f50 read-depends on 0x7fd2c5c30250
[33m[WRN] [0m[R9] RobCusor 0x7fd2c5c33f50 read-depends on 0x7fd2c5c30270
[33m[WRN] [0m[R8] RobCusor 0x7fd2c5c33f50 read-depends on 0x7fd2c5c30250
[33m[WRN] [0m[R9] RobCusor 0x7fd2c5c33f50 read-depends on 0x7fd2c5c30270
[33m[WRN] [0m[R8] RobCusor 0x7fd2c5c33f50 read-depends on 0x7fd2c5c30250
[33m[WRN] [0m[R8] RobCusor 0x7fd2c5c33f50 write can go ahead with ticket 0x7fd2c5c34940
[33m[WRN] [0m----------------------Experimental Execute--------------
[33m[WRN] [0mRobEntry 0x7fd2c5e07320 ready with 0x7fd2c5e0bae0
[33m[WRN] [0mRobEntry 0x7fd2c5e062a0 not ready due to 0x7fd2c5e0c6a0
[33m[WRN] [0mRobEntry 0x7fd2c5e073e0 not ready due to 0x7fd2c5e0cb50
[33m[WRN] [0mRobEntry 0x7fd2c5e07440 not ready due to 0x7fd2c5e0ce48
[33m[WRN] [0mRobEntry 0x7fd2c5e07560 not ready due to 0x7fd2c5e0d3d0
[33m[WRN] [0mRobEntry 0x7fd2c5e076e0 not ready due to 0x7fd2c5e0db00
[33m[WRN] [0mRobEntry 0x7fd2c5e07860 not ready due to 0x7fd2c5e0dfb0
[33m[WRN] [0mRobEntry 0x7fd2c5e078c0 not ready due to 0x7fd2c5e0e2a8
[33m[WRN] [0mRobEntry 0x7fd2c5e079e0 not ready due to 0x7fd2c5e0e630
[33m[WRN] [0mRobEntry 0x7fd2c5e12260 not ready due to 0x7fd2c5e0ede0
[33m[WRN] [0mRobEntry 0x7fd2c5e16300 not ready due to 0x7fd2c5e12df0
[33m[WRN] [0mRobEntry 0x7fd2c5e182d0 not ready due to 0x7fd2c5e188f8
[33m[WRN] [0mRobEntry 0x7fd2c5e1cc10 not ready due to 0x7fd2c5e18d30
[33m[WRN] [0mRobEntry 0x7fd2c5e1f750 not ready due to 0x7fd2c5e20460
[33m[WRN] [0mRobEntry 0x7fd2c5e23a60 not ready due to 0x7fd2c5e22530
[33m[WRN] [0mRobEntry 0x7fd2c5e25b60 not ready due to 0x7fd2c5e26378
[33m[WRN] [0mRobEntry 0x7fd2c5e2a4a0 not ready due to 0x7fd2c5e267c0
[33m[WRN] [0mRobEntry 0x7fd2c5e2cfe0 not ready due to 0x7fd2c5c2a960
[33m[WRN] [0mRobEntry 0x7fd2c5c2d640 not ready due to 0x7fd2c5c2c110
[33m[WRN] [0mRobEntry 0x7fd2c5c2f610 not ready due to 0x7fd2c5c2fe28
[33m[WRN] [0mRobEntry 0x7fd2c5c33f50 not ready due to 0x7fd2c5c30270
0x00007fd2c601512c  b9000be8		str w8, [sp, #8]
[33m[WRN] [0m[R31] RobEntry 0x7fd2c5e07320 reads init val 0x0
[33m[WRN] [0mReal write: 0x7fd2c601d2d8, 0x7620
#    w8:         0x00000006 -> 0x00007fd2c601d2d8
[34m[DBG] [0m   Logic[0]: newPc <- 0x7fd2c6015130
0x00007fd2c6015134  12800009		mov w9, #0xffffffff
[33m[WRN] [0m[0x7fd2c5e06240] filled ticket 0x7fd2c5e0c6a0
#    x9: 0x00000000ffffffff
[34m[DBG] [0m   Logic[1]: newPc <- 0x7fd2c6015138
[34m[DBG] [0m   Scribe: retired 4 ROB entries (now: 0x7fd2c5e07320:Done)
[34m[DBG] [0m======================================== Update[45/65] 
[34m[DBG] [0m   Fetcher: buffer.size = 1373
[34m[DBG] [0m   Logic: instr executed ? yes: 3
[34m[DBG] [0m   Logic: rStation size <- 61, rsVacancy <- 3
[34m[DBG] [0m======================================== Sync [45/65] 
[34m[DBG] [0m======================================== Cycle End

[34m[DBG] [0m======================================== Compute[46/65]
[34m[DBG] [0mPC Offsest: 0x120
[34m[DBG] [0m   Fetcher: at: 0x7fd2c6015120 (buffer 0:1373)
[34m[DBG] [0m   Fetcher: front instr = 0x7fd2c6015120, fetched 64, tmpBuffer: 64
[34m[DBG] [0m   Decoder: front instr = 0x7fd2c601513c
[34m[DBG] [0m   Decoder: Logic reservation station is full
0x00007fd2c6015138  0b090108		add w8, w8, w9
0x00007fd2c601513c  b9000fe8		str w8, [sp, #12]
[33m[WRN] [0mRobEntry 0x7fd2c5e06300 not ready due to 0x7fd2c5e0c860
0x00007fd2c6015140  17fffff4		b #-0x30 (addr 0x7fd2c6015110)
0x00007fd2c6015110  b9400fe8		ldr w8, [sp, #12]
0x00007fd2c6015114  7100051f		cmp w8, #0x1 (1)
0x00007fd2c6015118  54000041		b.ne #+0x8 (addr 0x7fd2c6015120)
0x00007fd2c6015120  b9400fe8		ldr w8, [sp, #12]
0x00007fd2c6015124  b9400be9		ldr w9, [sp, #8]
0x00007fd2c6015128  1b087d28		mul w8, w9, w8
0x00007fd2c601512c  b9000be8		str w8, [sp, #8]
[33m[WRN] [0mRobEntry 0x7fd2c5e075c0 not ready due to 0x7fd2c5e0cd40
0x00007fd2c6015130  b9400fe8		ldr w8, [sp, #12]
0x00007fd2c6015134  12800009		mov w9, #0xffffffff
0x00007fd2c6015138  0b090108		add w8, w8, w9
0x00007fd2c601513c  b9000fe8		str w8, [sp, #12]
[33m[WRN] [0mRobEntry 0x7fd2c5e07740 not ready due to 0x7fd2c5e0dcc0
0x00007fd2c6015140  17fffff4		b #-0x30 (addr 0x7fd2c6015110)
0x00007fd2c6015110  b9400fe8		ldr w8, [sp, #12]
0x00007fd2c6015114  7100051f		cmp w8, #0x1 (1)
0x00007fd2c6015118  54000041		b.ne #+0x8 (addr 0x7fd2c6015120)
0x00007fd2c6015120  b9400fe8		ldr w8, [sp, #12]
0x00007fd2c6015124  b9400be9		ldr w9, [sp, #8]
0x00007fd2c6015128  1b087d28		mul w8, w9, w8
0x00007fd2c601512c  b9000be8		str w8, [sp, #8]
[33m[WRN] [0mRobEntry 0x7fd2c5e07a40 not ready due to 0x7fd2c5e0e1a0
0x00007fd2c6015130  b9400fe8		ldr w8, [sp, #12]
0x00007fd2c6015134  12800009		mov w9, #0xffffffff
0x00007fd2c6015138  0b090108		add w8, w8, w9
0x00007fd2c601513c  b9000fe8		str w8, [sp, #12]
[33m[WRN] [0mRobEntry 0x7fd2c5e14020 not ready due to 0x7fd2c5e0ee00
0x00007fd2c6015140  17fffff4		b #-0x30 (addr 0x7fd2c6015110)
0x00007fd2c6015110  b9400fe8		ldr w8, [sp, #12]
0x00007fd2c6015114  7100051f		cmp w8, #0x1 (1)
0x00007fd2c6015118  54000041		b.ne #+0x8 (addr 0x7fd2c6015120)
0x00007fd2c6015120  b9400fe8		ldr w8, [sp, #12]
0x00007fd2c6015124  b9400be9		ldr w9, [sp, #8]
0x00007fd2c6015128  1b087d28		mul w8, w9, w8
0x00007fd2c601512c  b9000be8		str w8, [sp, #8]
[33m[WRN] [0mRobEntry 0x7fd2c5e1f630 not ready due to 0x7fd2c5e1d600
0x00007fd2c6015130  b9400fe8		ldr w8, [sp, #12]
0x00007fd2c6015134  12800009		mov w9, #0xffffffff
0x00007fd2c6015138  0b090108		add w8, w8, w9
0x00007fd2c601513c  b9000fe8		str w8, [sp, #12]
[33m[WRN] [0mRobEntry 0x7fd2c5e21690 not ready due to 0x7fd2c5e220c0
0x00007fd2c6015140  17fffff4		b #-0x30 (addr 0x7fd2c6015110)
0x00007fd2c6015110  b9400fe8		ldr w8, [sp, #12]
0x00007fd2c6015114  7100051f		cmp w8, #0x1 (1)
0x00007fd2c6015118  54000041		b.ne #+0x8 (addr 0x7fd2c6015120)
0x00007fd2c6015120  b9400fe8		ldr w8, [sp, #12]
0x00007fd2c6015124  b9400be9		ldr w9, [sp, #8]
0x00007fd2c6015128  1b087d28		mul w8, w9, w8
0x00007fd2c601512c  b9000be8		str w8, [sp, #8]
[33m[WRN] [0mRobEntry 0x7fd2c5e2cec0 not ready due to 0x7fd2c5c2a8a0
0x00007fd2c6015130  b9400fe8		ldr w8, [sp, #12]
0x00007fd2c6015134  12800009		mov w9, #0xffffffff
0x00007fd2c6015138  0b090108		add w8, w8, w9
0x00007fd2c601513c  b9000fe8		str w8, [sp, #12]
[33m[WRN] [0mRobEntry 0x7fd2c5c230d0 not ready due to 0x7fd2c5c207a0
0x00007fd2c6015140  17fffff4		b #-0x30 (addr 0x7fd2c6015110)
0x00007fd2c6015110  b9400fe8		ldr w8, [sp, #12]
0x00007fd2c6015114  7100051f		cmp w8, #0x1 (1)
0x00007fd2c6015118  54000041		b.ne #+0x8 (addr 0x7fd2c6015120)
0x00007fd2c6015120  b9400fe8		ldr w8, [sp, #12]
0x00007fd2c6015124  b9400be9		ldr w9, [sp, #8]
0x00007fd2c6015128  1b087d28		mul w8, w9, w8
0x00007fd2c601512c  b9000be8		str w8, [sp, #8]
[33m[WRN] [0m[R31] RobCusor 0x7fd2c5c36970 read can go ahead (init)
[33m[WRN] [0m[R8] RobCusor 0x7fd2c5c36970 read-depends on 0x7fd2c5c34940
[33m[WRN] [0mRobEntry 0x7fd2c5c36970 not ready due to 0x7fd2c5c34940
0x00007fd2c6015130  b9400fe8		ldr w8, [sp, #12]
[33m[WRN] [0m[R31] RobCusor 0x7fd2c5c369d0 read can go ahead (init)
[33m[WRN] [0m[R8] RobCusor 0x7fd2c5c369d0 write can go ahead with ticket 0x7fd2c5c37570
0x00007fd2c6015134  12800009		mov w9, #0xffffffff
[33m[WRN] [0m[R9] RobCusor 0x7fd2c5c36a30 write can go ahead with ticket 0x7fd2c5c377a0
0x00007fd2c6015138  0b090108		add w8, w8, w9
[33m[WRN] [0m[R9] RobCusor 0x7fd2c5c36a90 read-depends on 0x7fd2c5c377a0
[33m[WRN] [0m[R8] RobCusor 0x7fd2c5c36a90 read-depends on 0x7fd2c5c37570
[33m[WRN] [0m[R8] RobCusor 0x7fd2c5c36a90 write can go ahead with ticket 0x7fd2c5c39600
[33m[WRN] [0m----------------------Experimental Execute--------------
[33m[WRN] [0mRobEntry 0x7fd2c5e062a0 ready with 0x7fd2c5e0c6a0
[33m[WRN] [0mRobEntry 0x7fd2c5e062a0 ready with 0x7fd2c5e0c5f0
[33m[WRN] [0mRobEntry 0x7fd2c5e073e0 not ready due to 0x7fd2c5e0cb50
[33m[WRN] [0mRobEntry 0x7fd2c5e07440 not ready due to 0x7fd2c5e0ce48
[33m[WRN] [0mRobEntry 0x7fd2c5e07560 not ready due to 0x7fd2c5e0d3d0
[33m[WRN] [0mRobEntry 0x7fd2c5e076e0 not ready due to 0x7fd2c5e0db00
[33m[WRN] [0mRobEntry 0x7fd2c5e07860 not ready due to 0x7fd2c5e0dfb0
[33m[WRN] [0mRobEntry 0x7fd2c5e078c0 not ready due to 0x7fd2c5e0e2a8
[33m[WRN] [0mRobEntry 0x7fd2c5e079e0 not ready due to 0x7fd2c5e0e630
[33m[WRN] [0mRobEntry 0x7fd2c5e12260 not ready due to 0x7fd2c5e0ede0
[33m[WRN] [0mRobEntry 0x7fd2c5e16300 not ready due to 0x7fd2c5e12df0
[33m[WRN] [0mRobEntry 0x7fd2c5e182d0 not ready due to 0x7fd2c5e188f8
[33m[WRN] [0mRobEntry 0x7fd2c5e1cc10 not ready due to 0x7fd2c5e18d30
[33m[WRN] [0mRobEntry 0x7fd2c5e1f750 not ready due to 0x7fd2c5e20460
[33m[WRN] [0mRobEntry 0x7fd2c5e23a60 not ready due to 0x7fd2c5e22530
[33m[WRN] [0mRobEntry 0x7fd2c5e25b60 not ready due to 0x7fd2c5e26378
[33m[WRN] [0mRobEntry 0x7fd2c5e2a4a0 not ready due to 0x7fd2c5e267c0
[33m[WRN] [0mRobEntry 0x7fd2c5e2cfe0 not ready due to 0x7fd2c5c2a960
[33m[WRN] [0mRobEntry 0x7fd2c5c2d640 not ready due to 0x7fd2c5c2c110
[33m[WRN] [0mRobEntry 0x7fd2c5c2f610 not ready due to 0x7fd2c5c2fe28
[33m[WRN] [0mRobEntry 0x7fd2c5c33f50 not ready due to 0x7fd2c5c30270
[33m[WRN] [0mRobEntry 0x7fd2c5c36a90 not ready due to 0x7fd2c5c377a0
0x00007fd2c6015138  0b090108		add w8, w8, w9
[33m[WRN] [0m[0x7fd2c5e062a0] filled ticket 0x7fd2c5e0c860
#    x8: 0x0000000000000005
[34m[DBG] [0m   Logic[0]: newPc <- 0x7fd2c601513c
0x00007fd2c6015140  17fffff4		b #-0x30 (addr 0x7fd2c6015110)
#    pc: 0x7fd2c6015110 (by 0x7fd2c5e06360)
[33m[WRN] [0m[0x7fd2c5e06360] filled ticket 0x7fd2c5e0caa0
[34m[DBG] [0m   Logic[1]: newPc <- 0x7fd2c6015110
[34m[DBG] [0m   Scribe: retired 3 ROB entries (now: 0x7fd2c5e062a0:Done)
[34m[DBG] [0m======================================== Update[46/68] 
[34m[DBG] [0m   Fetcher: buffer.size = 1433
[34m[DBG] [0m   Logic: Branch prediction 0x7fd2c6015140 was correct: 9
[34m[DBG] [0m   Logic: Correct branch: 0x7fd2c5e06360 succ 0x7fd2c5e07380
[34m[DBG] [0m   Logic: 0x7fd2c5e06360 affirmed speculative RobEntry 0x7fd2c5e07380
[34m[DBG] [0m   Logic: 0x7fd2c5e06360 affirmed speculative RobEntry 0x7fd2c5e073e0
[34m[DBG] [0m   Logic: 0x7fd2c5e06360 affirmed speculative RobEntry 0x7fd2c5e07440
[34m[DBG] [0m   Logic: instr executed ? yes: 1
[34m[DBG] [0m   Logic: rStation size <- 63, rsVacancy <- 1
[34m[DBG] [0m======================================== Sync [46/68] 
[34m[DBG] [0m======================================== Cycle End

[34m[DBG] [0m======================================== Compute[47/68]
[34m[DBG] [0mPC Offsest: 0x130
[34m[DBG] [0m   Fetcher: at: 0x7fd2c6015130 (buffer 0:1433)
[34m[DBG] [0m   Fetcher: front instr = 0x7fd2c6015130, fetched 64, tmpBuffer: 64
[34m[DBG] [0m   Decoder: front instr = 0x7fd2c6015118
[34m[DBG] [0m   Decoder: Logic reservation station is full
0x00007fd2c601513c  b9000fe8		str w8, [sp, #12]
[33m[WRN] [0mRobEntry 0x7fd2c5e06300 ready with 0x7fd2c5e0c860
0x00007fd2c6015110  b9400fe8		ldr w8, [sp, #12]
0x00007fd2c6015114  7100051f		cmp w8, #0x1 (1)
0x00007fd2c6015118  54000041		b.ne #+0x8 (addr 0x7fd2c6015120)
0x00007fd2c6015120  b9400fe8		ldr w8, [sp, #12]
0x00007fd2c6015124  b9400be9		ldr w9, [sp, #8]
0x00007fd2c6015128  1b087d28		mul w8, w9, w8
0x00007fd2c601512c  b9000be8		str w8, [sp, #8]
[33m[WRN] [0mRobEntry 0x7fd2c5e075c0 not ready due to 0x7fd2c5e0cd40
0x00007fd2c6015130  b9400fe8		ldr w8, [sp, #12]
0x00007fd2c6015134  12800009		mov w9, #0xffffffff
0x00007fd2c6015138  0b090108		add w8, w8, w9
0x00007fd2c601513c  b9000fe8		str w8, [sp, #12]
[33m[WRN] [0mRobEntry 0x7fd2c5e07740 not ready due to 0x7fd2c5e0dcc0
0x00007fd2c6015140  17fffff4		b #-0x30 (addr 0x7fd2c6015110)
0x00007fd2c6015110  b9400fe8		ldr w8, [sp, #12]
0x00007fd2c6015114  7100051f		cmp w8, #0x1 (1)
0x00007fd2c6015118  54000041		b.ne #+0x8 (addr 0x7fd2c6015120)
0x00007fd2c6015120  b9400fe8		ldr w8, [sp, #12]
0x00007fd2c6015124  b9400be9		ldr w9, [sp, #8]
0x00007fd2c6015128  1b087d28		mul w8, w9, w8
0x00007fd2c601512c  b9000be8		str w8, [sp, #8]
[33m[WRN] [0mRobEntry 0x7fd2c5e07a40 not ready due to 0x7fd2c5e0e1a0
0x00007fd2c6015130  b9400fe8		ldr w8, [sp, #12]
0x00007fd2c6015134  12800009		mov w9, #0xffffffff
0x00007fd2c6015138  0b090108		add w8, w8, w9
0x00007fd2c601513c  b9000fe8		str w8, [sp, #12]
[33m[WRN] [0mRobEntry 0x7fd2c5e14020 not ready due to 0x7fd2c5e0ee00
0x00007fd2c6015140  17fffff4		b #-0x30 (addr 0x7fd2c6015110)
0x00007fd2c6015110  b9400fe8		ldr w8, [sp, #12]
0x00007fd2c6015114  7100051f		cmp w8, #0x1 (1)
0x00007fd2c6015118  54000041		b.ne #+0x8 (addr 0x7fd2c6015120)
0x00007fd2c6015120  b9400fe8		ldr w8, [sp, #12]
0x00007fd2c6015124  b9400be9		ldr w9, [sp, #8]
0x00007fd2c6015128  1b087d28		mul w8, w9, w8
0x00007fd2c601512c  b9000be8		str w8, [sp, #8]
[33m[WRN] [0mRobEntry 0x7fd2c5e1f630 not ready due to 0x7fd2c5e1d600
0x00007fd2c6015130  b9400fe8		ldr w8, [sp, #12]
0x00007fd2c6015134  12800009		mov w9, #0xffffffff
0x00007fd2c6015138  0b090108		add w8, w8, w9
0x00007fd2c601513c  b9000fe8		str w8, [sp, #12]
[33m[WRN] [0mRobEntry 0x7fd2c5e21690 not ready due to 0x7fd2c5e220c0
0x00007fd2c6015140  17fffff4		b #-0x30 (addr 0x7fd2c6015110)
0x00007fd2c6015110  b9400fe8		ldr w8, [sp, #12]
0x00007fd2c6015114  7100051f		cmp w8, #0x1 (1)
0x00007fd2c6015118  54000041		b.ne #+0x8 (addr 0x7fd2c6015120)
0x00007fd2c6015120  b9400fe8		ldr w8, [sp, #12]
0x00007fd2c6015124  b9400be9		ldr w9, [sp, #8]
0x00007fd2c6015128  1b087d28		mul w8, w9, w8
0x00007fd2c601512c  b9000be8		str w8, [sp, #8]
[33m[WRN] [0mRobEntry 0x7fd2c5e2cec0 not ready due to 0x7fd2c5c2a8a0
0x00007fd2c6015130  b9400fe8		ldr w8, [sp, #12]
0x00007fd2c6015134  12800009		mov w9, #0xffffffff
0x00007fd2c6015138  0b090108		add w8, w8, w9
0x00007fd2c601513c  b9000fe8		str w8, [sp, #12]
[33m[WRN] [0mRobEntry 0x7fd2c5c230d0 not ready due to 0x7fd2c5c207a0
0x00007fd2c6015140  17fffff4		b #-0x30 (addr 0x7fd2c6015110)
0x00007fd2c6015110  b9400fe8		ldr w8, [sp, #12]
0x00007fd2c6015114  7100051f		cmp w8, #0x1 (1)
0x00007fd2c6015118  54000041		b.ne #+0x8 (addr 0x7fd2c6015120)
0x00007fd2c6015120  b9400fe8		ldr w8, [sp, #12]
0x00007fd2c6015124  b9400be9		ldr w9, [sp, #8]
0x00007fd2c6015128  1b087d28		mul w8, w9, w8
0x00007fd2c601512c  b9000be8		str w8, [sp, #8]
[33m[WRN] [0mRobEntry 0x7fd2c5c36970 not ready due to 0x7fd2c5c34940
0x00007fd2c6015130  b9400fe8		ldr w8, [sp, #12]
0x00007fd2c6015134  12800009		mov w9, #0xffffffff
0x00007fd2c6015138  0b090108		add w8, w8, w9
0x00007fd2c601513c  b9000fe8		str w8, [sp, #12]
[33m[WRN] [0m[R31] RobCusor 0x7fd2c5c38bd0 read can go ahead (init)
[33m[WRN] [0m[R8] RobCusor 0x7fd2c5c38bd0 read-depends on 0x7fd2c5c39600
[33m[WRN] [0mRobEntry 0x7fd2c5c38bd0 not ready due to 0x7fd2c5c39600
0x00007fd2c6015140  17fffff4		b #-0x30 (addr 0x7fd2c6015110)
0x00007fd2c6015110  b9400fe8		ldr w8, [sp, #12]
[33m[WRN] [0m[R31] RobCusor 0x7fd2c5c38c90 read can go ahead (init)
[33m[WRN] [0m[R8] RobCusor 0x7fd2c5c38c90 write can go ahead with ticket 0x7fd2c5c39a60
[33m[WRN] [0m----------------------Experimental Execute--------------
[33m[WRN] [0mRobEntry 0x7fd2c5e06300 ready with 0x7fd2c5e0c860
[33m[WRN] [0mRobEntry 0x7fd2c5e073e0 not ready due to 0x7fd2c5e0cb50
[33m[WRN] [0mRobEntry 0x7fd2c5e07440 not ready due to 0x7fd2c5e0ce48
[33m[WRN] [0mRobEntry 0x7fd2c5e07560 not ready due to 0x7fd2c5e0d3d0
[33m[WRN] [0mRobEntry 0x7fd2c5e076e0 not ready due to 0x7fd2c5e0db00
[33m[WRN] [0mRobEntry 0x7fd2c5e07860 not ready due to 0x7fd2c5e0dfb0
[33m[WRN] [0mRobEntry 0x7fd2c5e078c0 not ready due to 0x7fd2c5e0e2a8
[33m[WRN] [0mRobEntry 0x7fd2c5e079e0 not ready due to 0x7fd2c5e0e630
[33m[WRN] [0mRobEntry 0x7fd2c5e12260 not ready due to 0x7fd2c5e0ede0
[33m[WRN] [0mRobEntry 0x7fd2c5e16300 not ready due to 0x7fd2c5e12df0
[33m[WRN] [0mRobEntry 0x7fd2c5e182d0 not ready due to 0x7fd2c5e188f8
[33m[WRN] [0mRobEntry 0x7fd2c5e1cc10 not ready due to 0x7fd2c5e18d30
[33m[WRN] [0mRobEntry 0x7fd2c5e1f750 not ready due to 0x7fd2c5e20460
[33m[WRN] [0mRobEntry 0x7fd2c5e23a60 not ready due to 0x7fd2c5e22530
[33m[WRN] [0mRobEntry 0x7fd2c5e25b60 not ready due to 0x7fd2c5e26378
[33m[WRN] [0mRobEntry 0x7fd2c5e2a4a0 not ready due to 0x7fd2c5e267c0
[33m[WRN] [0mRobEntry 0x7fd2c5e2cfe0 not ready due to 0x7fd2c5c2a960
[33m[WRN] [0mRobEntry 0x7fd2c5c2d640 not ready due to 0x7fd2c5c2c110
[33m[WRN] [0mRobEntry 0x7fd2c5c2f610 not ready due to 0x7fd2c5c2fe28
[33m[WRN] [0mRobEntry 0x7fd2c5c33f50 not ready due to 0x7fd2c5c30270
[33m[WRN] [0mRobEntry 0x7fd2c5c36a90 not ready due to 0x7fd2c5c377a0
0x00007fd2c601513c  b9000fe8		str w8, [sp, #12]
[33m[WRN] [0m[R31] RobEntry 0x7fd2c5e06300 reads init val 0x0
[33m[WRN] [0mReal write: 0x7fd2c601d2dc, 0x5
#    w8:         0x00000005 -> 0x00007fd2c601d2dc
[34m[DBG] [0m   Logic[0]: newPc <- 0x7fd2c6015140
0x00007fd2c6015124  b9400be9		ldr w9, [sp, #8]
[33m[WRN] [0m[R31] RobEntry 0x7fd2c5e07500 reads init val 0x0
[34m[DBG] [0m[MEM] read addr=0x7fd2c601d2d8 len=0x4 val=0x7620
[33m[WRN] [0m[R9] Speculative write by 0x7fd2c5e07500 val=0x7620
[33m[WRN] [0m[0x7fd2c5e07500] filled ticket 0x7fd2c5e0d3d0
#    x9: 0x00000000ffffffff <- 0x00007fd2c601d2d8
[34m[DBG] [0m   Logic[1]: speculation no set pc
[34m[DBG] [0m   Scribe: retired 1 ROB entries (now: 0x7fd2c5e06300:Done)
[34m[DBG] [0m======================================== Update[47/69] 
[34m[DBG] [0m   Fetcher: buffer.size = 1494
[34m[DBG] [0m   Logic: instr executed ? yes: 2
[34m[DBG] [0m   Logic: rStation size <- 62, rsVacancy <- 2
[34m[DBG] [0m======================================== Sync [47/69] 
[34m[DBG] [0m======================================== Cycle End

[34m[DBG] [0m======================================== Compute[48/69]
[34m[DBG] [0mPC Offsest: 0x140
[34m[DBG] [0m   Fetcher: at: 0x7fd2c6015140 (buffer 0:1494)
[34m[DBG] [0m   Fetcher: front instr = 0x7fd2c6015140, fetched 64, tmpBuffer: 64
[34m[DBG] [0m   Decoder: front instr = 0x7fd2c6015128
[34m[DBG] [0m   Decoder: Logic reservation station is full
0x00007fd2c6015110  b9400fe8		ldr w8, [sp, #12]
0x00007fd2c6015114  7100051f		cmp w8, #0x1 (1)
0x00007fd2c6015118  54000041		b.ne #+0x8 (addr 0x7fd2c6015120)
0x00007fd2c6015120  b9400fe8		ldr w8, [sp, #12]
0x00007fd2c6015128  1b087d28		mul w8, w9, w8
0x00007fd2c601512c  b9000be8		str w8, [sp, #8]
[33m[WRN] [0mRobEntry 0x7fd2c5e075c0 not ready due to 0x7fd2c5e0cd40
0x00007fd2c6015130  b9400fe8		ldr w8, [sp, #12]
0x00007fd2c6015134  12800009		mov w9, #0xffffffff
0x00007fd2c6015138  0b090108		add w8, w8, w9
0x00007fd2c601513c  b9000fe8		str w8, [sp, #12]
[33m[WRN] [0mRobEntry 0x7fd2c5e07740 not ready due to 0x7fd2c5e0dcc0
0x00007fd2c6015140  17fffff4		b #-0x30 (addr 0x7fd2c6015110)
0x00007fd2c6015110  b9400fe8		ldr w8, [sp, #12]
0x00007fd2c6015114  7100051f		cmp w8, #0x1 (1)
0x00007fd2c6015118  54000041		b.ne #+0x8 (addr 0x7fd2c6015120)
0x00007fd2c6015120  b9400fe8		ldr w8, [sp, #12]
0x00007fd2c6015124  b9400be9		ldr w9, [sp, #8]
0x00007fd2c6015128  1b087d28		mul w8, w9, w8
0x00007fd2c601512c  b9000be8		str w8, [sp, #8]
[33m[WRN] [0mRobEntry 0x7fd2c5e07a40 not ready due to 0x7fd2c5e0e1a0
0x00007fd2c6015130  b9400fe8		ldr w8, [sp, #12]
0x00007fd2c6015134  12800009		mov w9, #0xffffffff
0x00007fd2c6015138  0b090108		add w8, w8, w9
0x00007fd2c601513c  b9000fe8		str w8, [sp, #12]
[33m[WRN] [0mRobEntry 0x7fd2c5e14020 not ready due to 0x7fd2c5e0ee00
0x00007fd2c6015140  17fffff4		b #-0x30 (addr 0x7fd2c6015110)
0x00007fd2c6015110  b9400fe8		ldr w8, [sp, #12]
0x00007fd2c6015114  7100051f		cmp w8, #0x1 (1)
0x00007fd2c6015118  54000041		b.ne #+0x8 (addr 0x7fd2c6015120)
0x00007fd2c6015120  b9400fe8		ldr w8, [sp, #12]
0x00007fd2c6015124  b9400be9		ldr w9, [sp, #8]
0x00007fd2c6015128  1b087d28		mul w8, w9, w8
0x00007fd2c601512c  b9000be8		str w8, [sp, #8]
[33m[WRN] [0mRobEntry 0x7fd2c5e1f630 not ready due to 0x7fd2c5e1d600
0x00007fd2c6015130  b9400fe8		ldr w8, [sp, #12]
0x00007fd2c6015134  12800009		mov w9, #0xffffffff
0x00007fd2c6015138  0b090108		add w8, w8, w9
0x00007fd2c601513c  b9000fe8		str w8, [sp, #12]
[33m[WRN] [0mRobEntry 0x7fd2c5e21690 not ready due to 0x7fd2c5e220c0
0x00007fd2c6015140  17fffff4		b #-0x30 (addr 0x7fd2c6015110)
0x00007fd2c6015110  b9400fe8		ldr w8, [sp, #12]
0x00007fd2c6015114  7100051f		cmp w8, #0x1 (1)
0x00007fd2c6015118  54000041		b.ne #+0x8 (addr 0x7fd2c6015120)
0x00007fd2c6015120  b9400fe8		ldr w8, [sp, #12]
0x00007fd2c6015124  b9400be9		ldr w9, [sp, #8]
0x00007fd2c6015128  1b087d28		mul w8, w9, w8
0x00007fd2c601512c  b9000be8		str w8, [sp, #8]
[33m[WRN] [0mRobEntry 0x7fd2c5e2cec0 not ready due to 0x7fd2c5c2a8a0
0x00007fd2c6015130  b9400fe8		ldr w8, [sp, #12]
0x00007fd2c6015134  12800009		mov w9, #0xffffffff
0x00007fd2c6015138  0b090108		add w8, w8, w9
0x00007fd2c601513c  b9000fe8		str w8, [sp, #12]
[33m[WRN] [0mRobEntry 0x7fd2c5c230d0 not ready due to 0x7fd2c5c207a0
0x00007fd2c6015140  17fffff4		b #-0x30 (addr 0x7fd2c6015110)
0x00007fd2c6015110  b9400fe8		ldr w8, [sp, #12]
0x00007fd2c6015114  7100051f		cmp w8, #0x1 (1)
0x00007fd2c6015118  54000041		b.ne #+0x8 (addr 0x7fd2c6015120)
0x00007fd2c6015120  b9400fe8		ldr w8, [sp, #12]
0x00007fd2c6015124  b9400be9		ldr w9, [sp, #8]
0x00007fd2c6015128  1b087d28		mul w8, w9, w8
0x00007fd2c601512c  b9000be8		str w8, [sp, #8]
[33m[WRN] [0mRobEntry 0x7fd2c5c36970 not ready due to 0x7fd2c5c34940
0x00007fd2c6015130  b9400fe8		ldr w8, [sp, #12]
0x00007fd2c6015134  12800009		mov w9, #0xffffffff
0x00007fd2c6015138  0b090108		add w8, w8, w9
0x00007fd2c601513c  b9000fe8		str w8, [sp, #12]
[33m[WRN] [0mRobEntry 0x7fd2c5c38bd0 not ready due to 0x7fd2c5c39600
0x00007fd2c6015140  17fffff4		b #-0x30 (addr 0x7fd2c6015110)
0x00007fd2c6015110  b9400fe8		ldr w8, [sp, #12]
0x00007fd2c6015114  7100051f		cmp w8, #0x1 (1)
[33m[WRN] [0m[R8] RobCusor 0x7fd2c5c030c0 read-depends on 0x7fd2c5c39a60
[33m[WRN] [0m[NZCV] RobCusor 0x7fd2c5c030c0 write can go ahead with ticket 0x7fd2c5c39a80
[33m[WRN] [0m[NZCV] RobCusor 0x7fd2c5c030c0 write can go ahead with ticket 0x7fd2c5c3bad8
[33m[WRN] [0m[NZCV] RobCusor 0x7fd2c5c030c0 write can go ahead with ticket 0x7fd2c5c3d770
[33m[WRN] [0m[NZCV] RobCusor 0x7fd2c5c030c0 write can go ahead with ticket 0x7fd2c5c3d788
[33m[WRN] [0m----------------------Experimental Execute--------------
[33m[WRN] [0mRobEntry 0x7fd2c5e073e0 not ready due to 0x7fd2c5e0cb50
[33m[WRN] [0mRobEntry 0x7fd2c5e07440 not ready due to 0x7fd2c5e0ce48
[33m[WRN] [0mRobEntry 0x7fd2c5e07560 ready with 0x7fd2c5e0d3d0
[33m[WRN] [0mRobEntry 0x7fd2c5e07560 not ready due to 0x7fd2c5e0d2a0
[33m[WRN] [0mRobEntry 0x7fd2c5e076e0 not ready due to 0x7fd2c5e0db00
[33m[WRN] [0mRobEntry 0x7fd2c5e07860 not ready due to 0x7fd2c5e0dfb0
[33m[WRN] [0mRobEntry 0x7fd2c5e078c0 not ready due to 0x7fd2c5e0e2a8
[33m[WRN] [0mRobEntry 0x7fd2c5e079e0 not ready due to 0x7fd2c5e0e630
[33m[WRN] [0mRobEntry 0x7fd2c5e12260 not ready due to 0x7fd2c5e0ede0
[33m[WRN] [0mRobEntry 0x7fd2c5e16300 not ready due to 0x7fd2c5e12df0
[33m[WRN] [0mRobEntry 0x7fd2c5e182d0 not ready due to 0x7fd2c5e188f8
[33m[WRN] [0mRobEntry 0x7fd2c5e1cc10 not ready due to 0x7fd2c5e18d30
[33m[WRN] [0mRobEntry 0x7fd2c5e1f750 not ready due to 0x7fd2c5e20460
[33m[WRN] [0mRobEntry 0x7fd2c5e23a60 not ready due to 0x7fd2c5e22530
[33m[WRN] [0mRobEntry 0x7fd2c5e25b60 not ready due to 0x7fd2c5e26378
[33m[WRN] [0mRobEntry 0x7fd2c5e2a4a0 not ready due to 0x7fd2c5e267c0
[33m[WRN] [0mRobEntry 0x7fd2c5e2cfe0 not ready due to 0x7fd2c5c2a960
[33m[WRN] [0mRobEntry 0x7fd2c5c2d640 not ready due to 0x7fd2c5c2c110
[33m[WRN] [0mRobEntry 0x7fd2c5c2f610 not ready due to 0x7fd2c5c2fe28
[33m[WRN] [0mRobEntry 0x7fd2c5c33f50 not ready due to 0x7fd2c5c30270
[33m[WRN] [0mRobEntry 0x7fd2c5c36a90 not ready due to 0x7fd2c5c377a0
[33m[WRN] [0mRobEntry 0x7fd2c5c030c0 not ready due to 0x7fd2c5c39a60
0x00007fd2c6015110  b9400fe8		ldr w8, [sp, #12]
[33m[WRN] [0m[R31] RobEntry 0x7fd2c5e07380 reads init val 0x0
[34m[DBG] [0m[MEM] read addr=0x7fd2c601d2dc len=0x4 val=0x5
[33m[WRN] [0m[0x7fd2c5e07380] filled ticket 0x7fd2c5e0cb50
#    x8: 0x0000000000000005 <- 0x00007fd2c601d2dc
[34m[DBG] [0m   Logic[0]: newPc <- 0x7fd2c6015114
0x00007fd2c6015120  b9400fe8		ldr w8, [sp, #12]
[33m[WRN] [0m[R31] RobEntry 0x7fd2c5e074a0 reads init val 0x0
[34m[DBG] [0m[MEM] read addr=0x7fd2c601d2dc len=0x4 val=0x5
[33m[WRN] [0m[R8] Speculative write by 0x7fd2c5e074a0 val=0x5
[33m[WRN] [0m[0x7fd2c5e074a0] filled ticket 0x7fd2c5e0d2a0
#    x8: 0x0000000000000005 <- 0x00007fd2c601d2dc
[34m[DBG] [0m   Logic[1]: speculation no set pc
[34m[DBG] [0m   Scribe: retired 2 ROB entries (now: 0x7fd2c5e07380:Done)
[34m[DBG] [0m======================================== Update[48/71] 
[34m[DBG] [0m   Fetcher: buffer.size = 1557
[34m[DBG] [0m   Logic: instr executed ? yes: 1
[34m[DBG] [0m   Logic: rStation size <- 63, rsVacancy <- 1
[34m[DBG] [0m======================================== Sync [48/71] 
[34m[DBG] [0m======================================== Cycle End

[34m[DBG] [0m======================================== Compute[49/71]
[34m[DBG] [0mPC Offsest: 0x120
[34m[DBG] [0m   Fetcher: at: 0x7fd2c6015120 (buffer 0:1557)
[34m[DBG] [0m   Fetcher: front instr = 0x7fd2c6015120, fetched 64, tmpBuffer: 64
[34m[DBG] [0m   Decoder: front instr = 0x7fd2c601512c
[34m[DBG] [0m   Decoder: Logic reservation station is full
0x00007fd2c6015114  7100051f		cmp w8, #0x1 (1)
0x00007fd2c6015118  54000041		b.ne #+0x8 (addr 0x7fd2c6015120)
0x00007fd2c6015128  1b087d28		mul w8, w9, w8
0x00007fd2c601512c  b9000be8		str w8, [sp, #8]
[33m[WRN] [0mRobEntry 0x7fd2c5e075c0 not ready due to 0x7fd2c5e0cd40
0x00007fd2c6015130  b9400fe8		ldr w8, [sp, #12]
0x00007fd2c6015134  12800009		mov w9, #0xffffffff
0x00007fd2c6015138  0b090108		add w8, w8, w9
0x00007fd2c601513c  b9000fe8		str w8, [sp, #12]
[33m[WRN] [0mRobEntry 0x7fd2c5e07740 not ready due to 0x7fd2c5e0dcc0
0x00007fd2c6015140  17fffff4		b #-0x30 (addr 0x7fd2c6015110)
0x00007fd2c6015110  b9400fe8		ldr w8, [sp, #12]
0x00007fd2c6015114  7100051f		cmp w8, #0x1 (1)
0x00007fd2c6015118  54000041		b.ne #+0x8 (addr 0x7fd2c6015120)
0x00007fd2c6015120  b9400fe8		ldr w8, [sp, #12]
0x00007fd2c6015124  b9400be9		ldr w9, [sp, #8]
0x00007fd2c6015128  1b087d28		mul w8, w9, w8
0x00007fd2c601512c  b9000be8		str w8, [sp, #8]
[33m[WRN] [0mRobEntry 0x7fd2c5e07a40 not ready due to 0x7fd2c5e0e1a0
0x00007fd2c6015130  b9400fe8		ldr w8, [sp, #12]
0x00007fd2c6015134  12800009		mov w9, #0xffffffff
0x00007fd2c6015138  0b090108		add w8, w8, w9
0x00007fd2c601513c  b9000fe8		str w8, [sp, #12]
[33m[WRN] [0mRobEntry 0x7fd2c5e14020 not ready due to 0x7fd2c5e0ee00
0x00007fd2c6015140  17fffff4		b #-0x30 (addr 0x7fd2c6015110)
0x00007fd2c6015110  b9400fe8		ldr w8, [sp, #12]
0x00007fd2c6015114  7100051f		cmp w8, #0x1 (1)
0x00007fd2c6015118  54000041		b.ne #+0x8 (addr 0x7fd2c6015120)
0x00007fd2c6015120  b9400fe8		ldr w8, [sp, #12]
0x00007fd2c6015124  b9400be9		ldr w9, [sp, #8]
0x00007fd2c6015128  1b087d28		mul w8, w9, w8
0x00007fd2c601512c  b9000be8		str w8, [sp, #8]
[33m[WRN] [0mRobEntry 0x7fd2c5e1f630 not ready due to 0x7fd2c5e1d600
0x00007fd2c6015130  b9400fe8		ldr w8, [sp, #12]
0x00007fd2c6015134  12800009		mov w9, #0xffffffff
0x00007fd2c6015138  0b090108		add w8, w8, w9
0x00007fd2c601513c  b9000fe8		str w8, [sp, #12]
[33m[WRN] [0mRobEntry 0x7fd2c5e21690 not ready due to 0x7fd2c5e220c0
0x00007fd2c6015140  17fffff4		b #-0x30 (addr 0x7fd2c6015110)
0x00007fd2c6015110  b9400fe8		ldr w8, [sp, #12]
0x00007fd2c6015114  7100051f		cmp w8, #0x1 (1)
0x00007fd2c6015118  54000041		b.ne #+0x8 (addr 0x7fd2c6015120)
0x00007fd2c6015120  b9400fe8		ldr w8, [sp, #12]
0x00007fd2c6015124  b9400be9		ldr w9, [sp, #8]
0x00007fd2c6015128  1b087d28		mul w8, w9, w8
0x00007fd2c601512c  b9000be8		str w8, [sp, #8]
[33m[WRN] [0mRobEntry 0x7fd2c5e2cec0 not ready due to 0x7fd2c5c2a8a0
0x00007fd2c6015130  b9400fe8		ldr w8, [sp, #12]
0x00007fd2c6015134  12800009		mov w9, #0xffffffff
0x00007fd2c6015138  0b090108		add w8, w8, w9
0x00007fd2c601513c  b9000fe8		str w8, [sp, #12]
[33m[WRN] [0mRobEntry 0x7fd2c5c230d0 not ready due to 0x7fd2c5c207a0
0x00007fd2c6015140  17fffff4		b #-0x30 (addr 0x7fd2c6015110)
0x00007fd2c6015110  b9400fe8		ldr w8, [sp, #12]
0x00007fd2c6015114  7100051f		cmp w8, #0x1 (1)
0x00007fd2c6015118  54000041		b.ne #+0x8 (addr 0x7fd2c6015120)
0x00007fd2c6015120  b9400fe8		ldr w8, [sp, #12]
0x00007fd2c6015124  b9400be9		ldr w9, [sp, #8]
0x00007fd2c6015128  1b087d28		mul w8, w9, w8
0x00007fd2c601512c  b9000be8		str w8, [sp, #8]
[33m[WRN] [0mRobEntry 0x7fd2c5c36970 not ready due to 0x7fd2c5c34940
0x00007fd2c6015130  b9400fe8		ldr w8, [sp, #12]
0x00007fd2c6015134  12800009		mov w9, #0xffffffff
0x00007fd2c6015138  0b090108		add w8, w8, w9
0x00007fd2c601513c  b9000fe8		str w8, [sp, #12]
[33m[WRN] [0mRobEntry 0x7fd2c5c38bd0 not ready due to 0x7fd2c5c39600
0x00007fd2c6015140  17fffff4		b #-0x30 (addr 0x7fd2c6015110)
0x00007fd2c6015110  b9400fe8		ldr w8, [sp, #12]
0x00007fd2c6015114  7100051f		cmp w8, #0x1 (1)
0x00007fd2c6015118  54000041		b.ne #+0x8 (addr 0x7fd2c6015120)
[33m[WRN] [0m[NZCV] RobCusor 0x7fd2c5c3cf80 read-depends on 0x7fd2c5c3d788
0x00007fd2c6015120  b9400fe8		ldr w8, [sp, #12]
[33m[WRN] [0m[R31] RobCusor 0x7fd2c5c3cfe0 read can go ahead (init)
[33m[WRN] [0m[R8] RobCusor 0x7fd2c5c3cfe0 write can go ahead with ticket 0x7fd2c5c3dbb0
[33m[WRN] [0m----------------------Experimental Execute--------------
[33m[WRN] [0mRobEntry 0x7fd2c5e073e0 ready with 0x7fd2c5e0cb50
[33m[WRN] [0mRobEntry 0x7fd2c5e07440 not ready due to 0x7fd2c5e0ce48
[33m[WRN] [0mRobEntry 0x7fd2c5e07560 ready with 0x7fd2c5e0d3d0
[33m[WRN] [0mRobEntry 0x7fd2c5e07560 ready with 0x7fd2c5e0d2a0
[33m[WRN] [0mRobEntry 0x7fd2c5e07560 ready with 0x7fd2c5e0d3d0
[33m[WRN] [0mRobEntry 0x7fd2c5e07560 ready with 0x7fd2c5e0d2a0
[33m[WRN] [0mRobEntry 0x7fd2c5e07560 ready with 0x7fd2c5e0d3d0
[33m[WRN] [0mRobEntry 0x7fd2c5e07560 ready with 0x7fd2c5e0d2a0
[33m[WRN] [0mRobEntry 0x7fd2c5e076e0 not ready due to 0x7fd2c5e0db00
[33m[WRN] [0mRobEntry 0x7fd2c5e07860 not ready due to 0x7fd2c5e0dfb0
[33m[WRN] [0mRobEntry 0x7fd2c5e078c0 not ready due to 0x7fd2c5e0e2a8
[33m[WRN] [0mRobEntry 0x7fd2c5e079e0 not ready due to 0x7fd2c5e0e630
[33m[WRN] [0mRobEntry 0x7fd2c5e12260 not ready due to 0x7fd2c5e0ede0
[33m[WRN] [0mRobEntry 0x7fd2c5e16300 not ready due to 0x7fd2c5e12df0
[33m[WRN] [0mRobEntry 0x7fd2c5e182d0 not ready due to 0x7fd2c5e188f8
[33m[WRN] [0mRobEntry 0x7fd2c5e1cc10 not ready due to 0x7fd2c5e18d30
[33m[WRN] [0mRobEntry 0x7fd2c5e1f750 not ready due to 0x7fd2c5e20460
[33m[WRN] [0mRobEntry 0x7fd2c5e23a60 not ready due to 0x7fd2c5e22530
[33m[WRN] [0mRobEntry 0x7fd2c5e25b60 not ready due to 0x7fd2c5e26378
[33m[WRN] [0mRobEntry 0x7fd2c5e2a4a0 not ready due to 0x7fd2c5e267c0
[33m[WRN] [0mRobEntry 0x7fd2c5e2cfe0 not ready due to 0x7fd2c5c2a960
[33m[WRN] [0mRobEntry 0x7fd2c5c2d640 not ready due to 0x7fd2c5c2c110
[33m[WRN] [0mRobEntry 0x7fd2c5c2f610 not ready due to 0x7fd2c5c2fe28
[33m[WRN] [0mRobEntry 0x7fd2c5c33f50 not ready due to 0x7fd2c5c30270
[33m[WRN] [0mRobEntry 0x7fd2c5c36a90 not ready due to 0x7fd2c5c377a0
[33m[WRN] [0mRobEntry 0x7fd2c5c030c0 not ready due to 0x7fd2c5c39a60
[33m[WRN] [0mRobEntry 0x7fd2c5c3cf80 not ready due to 0x7fd2c5c3d788
0x00007fd2c6015114  7100051f		cmp w8, #0x1 (1)
[33m[WRN] [0m[0x7fd2c5e073e0] filled ticket 0x7fd2c5e0ce00
[33m[WRN] [0m[0x7fd2c5e073e0] filled ticket 0x7fd2c5e0ce18
[33m[WRN] [0m[0x7fd2c5e073e0] filled ticket 0x7fd2c5e0ce30
[33m[WRN] [0m[0x7fd2c5e073e0] filled ticket 0x7fd2c5e0ce48
[33m[WRN] [0m[0x7fd2c5e073e0] filled ticket 0x7fd2c5e0ce00
[33m[WRN] [0m[0x7fd2c5e073e0] filled ticket 0x7fd2c5e0ce18
[33m[WRN] [0m[0x7fd2c5e073e0] filled ticket 0x7fd2c5e0ce30
[33m[WRN] [0m[0x7fd2c5e073e0] filled ticket 0x7fd2c5e0ce48
[33m[WRN] [0m[0x7fd2c5e073e0] filled ticket 0x7fd2c5e0ce00
[33m[WRN] [0m[0x7fd2c5e073e0] filled ticket 0x7fd2c5e0ce18
[33m[WRN] [0m[0x7fd2c5e073e0] filled ticket 0x7fd2c5e0ce30
[33m[WRN] [0m[0x7fd2c5e073e0] filled ticket 0x7fd2c5e0ce48
[33m[WRN] [0m[0x7fd2c5e073e0] filled ticket 0x7fd2c5e0ce00
[33m[WRN] [0m[0x7fd2c5e073e0] filled ticket 0x7fd2c5e0ce18
[33m[WRN] [0m[0x7fd2c5e073e0] filled ticket 0x7fd2c5e0ce30
[33m[WRN] [0m[0x7fd2c5e073e0] filled ticket 0x7fd2c5e0ce48
# NZCV: N:0 Z:0 C:1 V:0
[34m[DBG] [0m   Logic[0]: newPc <- 0x7fd2c6015118
0x00007fd2c6015128  1b087d28		mul w8, w9, w8
[33m[WRN] [0m[R8] Speculative write by 0x7fd2c5e07560 val=0x4fffffffb
[33m[WRN] [0m[0x7fd2c5e07560] filled ticket 0x7fd2c5e0cd40
#    x8: 0x0000000000000005
[34m[DBG] [0m   Logic[1]: speculation no set pc
[34m[DBG] [0m   Scribe: retired 1 ROB entries (now: 0x7fd2c5e073e0:Done)
[34m[DBG] [0m======================================== Update[49/72] 
[34m[DBG] [0m   Fetcher: buffer.size = 1619
[34m[DBG] [0m   Logic: instr executed ? yes: 1
[34m[DBG] [0m   Logic: rStation size <- 63, rsVacancy <- 1
[34m[DBG] [0m======================================== Sync [49/72] 
[34m[DBG] [0m======================================== Cycle End

[34m[DBG] [0m======================================== Compute[50/72]
[34m[DBG] [0mPC Offsest: 0x130
[34m[DBG] [0m   Fetcher: at: 0x7fd2c6015130 (buffer 0:1619)
[34m[DBG] [0m   Fetcher: front instr = 0x7fd2c6015130, fetched 64, tmpBuffer: 64
[34m[DBG] [0m   Decoder: front instr = 0x7fd2c6015134
[34m[DBG] [0m   Decoder: Logic reservation station is full
0x00007fd2c6015118  54000041		b.ne #+0x8 (addr 0x7fd2c6015120)
0x00007fd2c601512c  b9000be8		str w8, [sp, #8]
[33m[WRN] [0mRobEntry 0x7fd2c5e075c0 ready with 0x7fd2c5e0cd40
0x00007fd2c6015130  b9400fe8		ldr w8, [sp, #12]
0x00007fd2c6015134  12800009		mov w9, #0xffffffff
0x00007fd2c6015138  0b090108		add w8, w8, w9
0x00007fd2c601513c  b9000fe8		str w8, [sp, #12]
[33m[WRN] [0mRobEntry 0x7fd2c5e07740 not ready due to 0x7fd2c5e0dcc0
0x00007fd2c6015140  17fffff4		b #-0x30 (addr 0x7fd2c6015110)
0x00007fd2c6015110  b9400fe8		ldr w8, [sp, #12]
0x00007fd2c6015114  7100051f		cmp w8, #0x1 (1)
0x00007fd2c6015118  54000041		b.ne #+0x8 (addr 0x7fd2c6015120)
0x00007fd2c6015120  b9400fe8		ldr w8, [sp, #12]
0x00007fd2c6015124  b9400be9		ldr w9, [sp, #8]
0x00007fd2c6015128  1b087d28		mul w8, w9, w8
0x00007fd2c601512c  b9000be8		str w8, [sp, #8]
[33m[WRN] [0mRobEntry 0x7fd2c5e07a40 not ready due to 0x7fd2c5e0e1a0
0x00007fd2c6015130  b9400fe8		ldr w8, [sp, #12]
0x00007fd2c6015134  12800009		mov w9, #0xffffffff
0x00007fd2c6015138  0b090108		add w8, w8, w9
0x00007fd2c601513c  b9000fe8		str w8, [sp, #12]
[33m[WRN] [0mRobEntry 0x7fd2c5e14020 not ready due to 0x7fd2c5e0ee00
0x00007fd2c6015140  17fffff4		b #-0x30 (addr 0x7fd2c6015110)
0x00007fd2c6015110  b9400fe8		ldr w8, [sp, #12]
0x00007fd2c6015114  7100051f		cmp w8, #0x1 (1)
0x00007fd2c6015118  54000041		b.ne #+0x8 (addr 0x7fd2c6015120)
0x00007fd2c6015120  b9400fe8		ldr w8, [sp, #12]
0x00007fd2c6015124  b9400be9		ldr w9, [sp, #8]
0x00007fd2c6015128  1b087d28		mul w8, w9, w8
0x00007fd2c601512c  b9000be8		str w8, [sp, #8]
[33m[WRN] [0mRobEntry 0x7fd2c5e1f630 not ready due to 0x7fd2c5e1d600
0x00007fd2c6015130  b9400fe8		ldr w8, [sp, #12]
0x00007fd2c6015134  12800009		mov w9, #0xffffffff
0x00007fd2c6015138  0b090108		add w8, w8, w9
0x00007fd2c601513c  b9000fe8		str w8, [sp, #12]
[33m[WRN] [0mRobEntry 0x7fd2c5e21690 not ready due to 0x7fd2c5e220c0
0x00007fd2c6015140  17fffff4		b #-0x30 (addr 0x7fd2c6015110)
0x00007fd2c6015110  b9400fe8		ldr w8, [sp, #12]
0x00007fd2c6015114  7100051f		cmp w8, #0x1 (1)
0x00007fd2c6015118  54000041		b.ne #+0x8 (addr 0x7fd2c6015120)
0x00007fd2c6015120  b9400fe8		ldr w8, [sp, #12]
0x00007fd2c6015124  b9400be9		ldr w9, [sp, #8]
0x00007fd2c6015128  1b087d28		mul w8, w9, w8
0x00007fd2c601512c  b9000be8		str w8, [sp, #8]
[33m[WRN] [0mRobEntry 0x7fd2c5e2cec0 not ready due to 0x7fd2c5c2a8a0
0x00007fd2c6015130  b9400fe8		ldr w8, [sp, #12]
0x00007fd2c6015134  12800009		mov w9, #0xffffffff
0x00007fd2c6015138  0b090108		add w8, w8, w9
0x00007fd2c601513c  b9000fe8		str w8, [sp, #12]
[33m[WRN] [0mRobEntry 0x7fd2c5c230d0 not ready due to 0x7fd2c5c207a0
0x00007fd2c6015140  17fffff4		b #-0x30 (addr 0x7fd2c6015110)
0x00007fd2c6015110  b9400fe8		ldr w8, [sp, #12]
0x00007fd2c6015114  7100051f		cmp w8, #0x1 (1)
0x00007fd2c6015118  54000041		b.ne #+0x8 (addr 0x7fd2c6015120)
0x00007fd2c6015120  b9400fe8		ldr w8, [sp, #12]
0x00007fd2c6015124  b9400be9		ldr w9, [sp, #8]
0x00007fd2c6015128  1b087d28		mul w8, w9, w8
0x00007fd2c601512c  b9000be8		str w8, [sp, #8]
[33m[WRN] [0mRobEntry 0x7fd2c5c36970 not ready due to 0x7fd2c5c34940
0x00007fd2c6015130  b9400fe8		ldr w8, [sp, #12]
0x00007fd2c6015134  12800009		mov w9, #0xffffffff
0x00007fd2c6015138  0b090108		add w8, w8, w9
0x00007fd2c601513c  b9000fe8		str w8, [sp, #12]
[33m[WRN] [0mRobEntry 0x7fd2c5c38bd0 not ready due to 0x7fd2c5c39600
0x00007fd2c6015140  17fffff4		b #-0x30 (addr 0x7fd2c6015110)
0x00007fd2c6015110  b9400fe8		ldr w8, [sp, #12]
0x00007fd2c6015114  7100051f		cmp w8, #0x1 (1)
0x00007fd2c6015118  54000041		b.ne #+0x8 (addr 0x7fd2c6015120)
0x00007fd2c6015120  b9400fe8		ldr w8, [sp, #12]
0x00007fd2c6015124  b9400be9		ldr w9, [sp, #8]
[33m[WRN] [0m[R31] RobCusor 0x7fd2c5c3f0f0 read can go ahead (init)
[33m[WRN] [0m[R9] RobCusor 0x7fd2c5c3f0f0 write can go ahead with ticket 0x7fd2c5c3dbd0
[33m[WRN] [0m----------------------Experimental Execute--------------
[33m[WRN] [0mRobEntry 0x7fd2c5e07440 ready with 0x7fd2c5e0ce48
[33m[WRN] [0mRobEntry 0x7fd2c5e076e0 not ready due to 0x7fd2c5e0db00
[33m[WRN] [0mRobEntry 0x7fd2c5e07860 not ready due to 0x7fd2c5e0dfb0
[33m[WRN] [0mRobEntry 0x7fd2c5e078c0 not ready due to 0x7fd2c5e0e2a8
[33m[WRN] [0mRobEntry 0x7fd2c5e079e0 not ready due to 0x7fd2c5e0e630
[33m[WRN] [0mRobEntry 0x7fd2c5e12260 not ready due to 0x7fd2c5e0ede0
[33m[WRN] [0mRobEntry 0x7fd2c5e16300 not ready due to 0x7fd2c5e12df0
[33m[WRN] [0mRobEntry 0x7fd2c5e182d0 not ready due to 0x7fd2c5e188f8
[33m[WRN] [0mRobEntry 0x7fd2c5e1cc10 not ready due to 0x7fd2c5e18d30
[33m[WRN] [0mRobEntry 0x7fd2c5e1f750 not ready due to 0x7fd2c5e20460
[33m[WRN] [0mRobEntry 0x7fd2c5e23a60 not ready due to 0x7fd2c5e22530
[33m[WRN] [0mRobEntry 0x7fd2c5e25b60 not ready due to 0x7fd2c5e26378
[33m[WRN] [0mRobEntry 0x7fd2c5e2a4a0 not ready due to 0x7fd2c5e267c0
[33m[WRN] [0mRobEntry 0x7fd2c5e2cfe0 not ready due to 0x7fd2c5c2a960
[33m[WRN] [0mRobEntry 0x7fd2c5c2d640 not ready due to 0x7fd2c5c2c110
[33m[WRN] [0mRobEntry 0x7fd2c5c2f610 not ready due to 0x7fd2c5c2fe28
[33m[WRN] [0mRobEntry 0x7fd2c5c33f50 not ready due to 0x7fd2c5c30270
[33m[WRN] [0mRobEntry 0x7fd2c5c36a90 not ready due to 0x7fd2c5c377a0
[33m[WRN] [0mRobEntry 0x7fd2c5c030c0 not ready due to 0x7fd2c5c39a60
[33m[WRN] [0mRobEntry 0x7fd2c5c3cf80 not ready due to 0x7fd2c5c3d788
0x00007fd2c6015118  54000041		b.ne #+0x8 (addr 0x7fd2c6015120)
#    pc: 0x7fd2c6015120 (by 0x7fd2c5e07440)
[33m[WRN] [0m[0x7fd2c5e07440] filled ticket 0x7fd2c5e0cff0
[34m[DBG] [0m   Logic[0]: newPc <- 0x7fd2c6015120
0x00007fd2c6015130  b9400fe8		ldr w8, [sp, #12]
[33m[WRN] [0m[R31] RobEntry 0x7fd2c5e07620 reads init val 0x0
[34m[DBG] [0m[MEM] read addr=0x7fd2c601d2dc len=0x4 val=0x5
[33m[WRN] [0m[R8] Speculative write by 0x7fd2c5e07620 val=0x5
[33m[WRN] [0m[0x7fd2c5e07620] filled ticket 0x7fd2c5e0da50
#    x8: 0x0000000000000005 <- 0x00007fd2c601d2dc
[34m[DBG] [0m   Logic[1]: speculation no set pc
[34m[DBG] [0m   Scribe: retired 1 ROB entries (now: 0x7fd2c5e07440:Done)
[34m[DBG] [0m======================================== Update[50/73] 
[34m[DBG] [0m   Fetcher: buffer.size = 1682
[34m[DBG] [0m   Logic: Branch prediction 0x7fd2c6015118 was correct: 10
[34m[DBG] [0m   Logic: Correct branch: 0x7fd2c5e07440 succ 0x7fd2c5e074a0
[34m[DBG] [0m   Logic: 0x7fd2c5e07440 affirmed speculative RobEntry 0x7fd2c5e074a0
[34m[DBG] [0m   Logic: 0x7fd2c5e07440 enacting RobEntry 0x7fd2c5e074a0
0x00007fd2c6015120  b9400fe8		ldr w8, [sp, #12]
[33m[WRN] [0m[R31] RobEntry 0x7fd2c5e074a0 reads init val 0x0
[34m[DBG] [0m[MEM] read addr=0x7fd2c601d2dc len=0x4 val=0x5
[33m[WRN] [0m[0x7fd2c5e074a0] filled ticket 0x7fd2c5e0d2a0
#    x8: 0x0000000000000005 <- 0x00007fd2c601d2dc
[34m[DBG] [0m   Logic: 0x7fd2c5e07440 affirmed speculative RobEntry 0x7fd2c5e07500
[34m[DBG] [0m   Logic: 0x7fd2c5e07440 enacting RobEntry 0x7fd2c5e07500
0x00007fd2c6015124  b9400be9		ldr w9, [sp, #8]
[33m[WRN] [0m[R31] RobEntry 0x7fd2c5e07500 reads init val 0x0
[34m[DBG] [0m[MEM] read addr=0x7fd2c601d2d8 len=0x4 val=0x7620
[33m[WRN] [0m[0x7fd2c5e07500] filled ticket 0x7fd2c5e0d3d0
#    x9: 0x0000000000007620 <- 0x00007fd2c601d2d8
[34m[DBG] [0m   Logic: 0x7fd2c5e07440 affirmed speculative RobEntry 0x7fd2c5e07560
[34m[DBG] [0m   Logic: 0x7fd2c5e07440 enacting RobEntry 0x7fd2c5e07560
0x00007fd2c6015128  1b087d28		mul w8, w9, w8
[33m[WRN] [0m[0x7fd2c5e07560] filled ticket 0x7fd2c5e0cd40
#    x8: 0x0000000000024ea0
[34m[DBG] [0m   Logic: 0x7fd2c5e07440 affirmed speculative RobEntry 0x7fd2c5e075c0
[34m[DBG] [0m   Logic: 0x7fd2c5e07440 affirmed speculative RobEntry 0x7fd2c5e07620
[34m[DBG] [0m   Logic: 0x7fd2c5e07440 enacting RobEntry 0x7fd2c5e07620
0x00007fd2c6015130  b9400fe8		ldr w8, [sp, #12]
[33m[WRN] [0m[R31] RobEntry 0x7fd2c5e07620 reads init val 0x0
[34m[DBG] [0m[MEM] read addr=0x7fd2c601d2dc len=0x4 val=0x5
[33m[WRN] [0m[0x7fd2c5e07620] filled ticket 0x7fd2c5e0da50
#    x8: 0x0000000000000005 <- 0x00007fd2c601d2dc
[34m[DBG] [0m   Logic: 0x7fd2c5e07440 affirmed speculative RobEntry 0x7fd2c5e07680
[34m[DBG] [0m   Logic: 0x7fd2c5e07440 affirmed speculative RobEntry 0x7fd2c5e076e0
[34m[DBG] [0m   Logic: 0x7fd2c5e07440 affirmed speculative RobEntry 0x7fd2c5e07740
[34m[DBG] [0m   Logic: 0x7fd2c5e07440 affirmed speculative RobEntry 0x7fd2c5e077a0
[34m[DBG] [0m   Logic: instr executed ? yes: 4
[34m[DBG] [0m   Logic: rStation size <- 60, rsVacancy <- 4
[34m[DBG] [0m======================================== Sync [50/73] 
[34m[DBG] [0m======================================== Cycle End

[34m[DBG] [0m======================================== Compute[51/73]
[34m[DBG] [0mPC Offsest: 0x140
[34m[DBG] [0m   Fetcher: at: 0x7fd2c6015140 (buffer 0:1682)
[34m[DBG] [0m   Fetcher: front instr = 0x7fd2c6015140, fetched 64, tmpBuffer: 64
[34m[DBG] [0m   Decoder: front instr = 0x7fd2c6015138
[34m[DBG] [0m   Decoder: Logic reservation station is full
0x00007fd2c601512c  b9000be8		str w8, [sp, #8]
[33m[WRN] [0mRobEntry 0x7fd2c5e075c0 ready with 0x7fd2c5e0cd40
0x00007fd2c6015134  12800009		mov w9, #0xffffffff
0x00007fd2c6015138  0b090108		add w8, w8, w9
0x00007fd2c601513c  b9000fe8		str w8, [sp, #12]
[33m[WRN] [0mRobEntry 0x7fd2c5e07740 not ready due to 0x7fd2c5e0dcc0
0x00007fd2c6015140  17fffff4		b #-0x30 (addr 0x7fd2c6015110)
0x00007fd2c6015110  b9400fe8		ldr w8, [sp, #12]
0x00007fd2c6015114  7100051f		cmp w8, #0x1 (1)
0x00007fd2c6015118  54000041		b.ne #+0x8 (addr 0x7fd2c6015120)
0x00007fd2c6015120  b9400fe8		ldr w8, [sp, #12]
0x00007fd2c6015124  b9400be9		ldr w9, [sp, #8]
0x00007fd2c6015128  1b087d28		mul w8, w9, w8
0x00007fd2c601512c  b9000be8		str w8, [sp, #8]
[33m[WRN] [0mRobEntry 0x7fd2c5e07a40 not ready due to 0x7fd2c5e0e1a0
0x00007fd2c6015130  b9400fe8		ldr w8, [sp, #12]
0x00007fd2c6015134  12800009		mov w9, #0xffffffff
0x00007fd2c6015138  0b090108		add w8, w8, w9
0x00007fd2c601513c  b9000fe8		str w8, [sp, #12]
[33m[WRN] [0mRobEntry 0x7fd2c5e14020 not ready due to 0x7fd2c5e0ee00
0x00007fd2c6015140  17fffff4		b #-0x30 (addr 0x7fd2c6015110)
0x00007fd2c6015110  b9400fe8		ldr w8, [sp, #12]
0x00007fd2c6015114  7100051f		cmp w8, #0x1 (1)
0x00007fd2c6015118  54000041		b.ne #+0x8 (addr 0x7fd2c6015120)
0x00007fd2c6015120  b9400fe8		ldr w8, [sp, #12]
0x00007fd2c6015124  b9400be9		ldr w9, [sp, #8]
0x00007fd2c6015128  1b087d28		mul w8, w9, w8
0x00007fd2c601512c  b9000be8		str w8, [sp, #8]
[33m[WRN] [0mRobEntry 0x7fd2c5e1f630 not ready due to 0x7fd2c5e1d600
0x00007fd2c6015130  b9400fe8		ldr w8, [sp, #12]
0x00007fd2c6015134  12800009		mov w9, #0xffffffff
0x00007fd2c6015138  0b090108		add w8, w8, w9
0x00007fd2c601513c  b9000fe8		str w8, [sp, #12]
[33m[WRN] [0mRobEntry 0x7fd2c5e21690 not ready due to 0x7fd2c5e220c0
0x00007fd2c6015140  17fffff4		b #-0x30 (addr 0x7fd2c6015110)
0x00007fd2c6015110  b9400fe8		ldr w8, [sp, #12]
0x00007fd2c6015114  7100051f		cmp w8, #0x1 (1)
0x00007fd2c6015118  54000041		b.ne #+0x8 (addr 0x7fd2c6015120)
0x00007fd2c6015120  b9400fe8		ldr w8, [sp, #12]
0x00007fd2c6015124  b9400be9		ldr w9, [sp, #8]
0x00007fd2c6015128  1b087d28		mul w8, w9, w8
0x00007fd2c601512c  b9000be8		str w8, [sp, #8]
[33m[WRN] [0mRobEntry 0x7fd2c5e2cec0 not ready due to 0x7fd2c5c2a8a0
0x00007fd2c6015130  b9400fe8		ldr w8, [sp, #12]
0x00007fd2c6015134  12800009		mov w9, #0xffffffff
0x00007fd2c6015138  0b090108		add w8, w8, w9
0x00007fd2c601513c  b9000fe8		str w8, [sp, #12]
[33m[WRN] [0mRobEntry 0x7fd2c5c230d0 not ready due to 0x7fd2c5c207a0
0x00007fd2c6015140  17fffff4		b #-0x30 (addr 0x7fd2c6015110)
0x00007fd2c6015110  b9400fe8		ldr w8, [sp, #12]
0x00007fd2c6015114  7100051f		cmp w8, #0x1 (1)
0x00007fd2c6015118  54000041		b.ne #+0x8 (addr 0x7fd2c6015120)
0x00007fd2c6015120  b9400fe8		ldr w8, [sp, #12]
0x00007fd2c6015124  b9400be9		ldr w9, [sp, #8]
0x00007fd2c6015128  1b087d28		mul w8, w9, w8
0x00007fd2c601512c  b9000be8		str w8, [sp, #8]
[33m[WRN] [0mRobEntry 0x7fd2c5c36970 not ready due to 0x7fd2c5c34940
0x00007fd2c6015130  b9400fe8		ldr w8, [sp, #12]
0x00007fd2c6015134  12800009		mov w9, #0xffffffff
0x00007fd2c6015138  0b090108		add w8, w8, w9
0x00007fd2c601513c  b9000fe8		str w8, [sp, #12]
[33m[WRN] [0mRobEntry 0x7fd2c5c38bd0 not ready due to 0x7fd2c5c39600
0x00007fd2c6015140  17fffff4		b #-0x30 (addr 0x7fd2c6015110)
0x00007fd2c6015110  b9400fe8		ldr w8, [sp, #12]
0x00007fd2c6015114  7100051f		cmp w8, #0x1 (1)
0x00007fd2c6015118  54000041		b.ne #+0x8 (addr 0x7fd2c6015120)
0x00007fd2c6015120  b9400fe8		ldr w8, [sp, #12]
0x00007fd2c6015124  b9400be9		ldr w9, [sp, #8]
0x00007fd2c6015128  1b087d28		mul w8, w9, w8
[33m[WRN] [0m[R9] RobCusor 0x7fd2c5c41b20 read-depends on 0x7fd2c5c3dbd0
[33m[WRN] [0m[R8] RobCusor 0x7fd2c5c41b20 read-depends on 0x7fd2c5c3dbb0
[33m[WRN] [0m[R9] RobCusor 0x7fd2c5c41b20 read-depends on 0x7fd2c5c3dbd0
[33m[WRN] [0m[R8] RobCusor 0x7fd2c5c41b20 read-depends on 0x7fd2c5c3dbb0
[33m[WRN] [0m[R9] RobCusor 0x7fd2c5c41b20 read-depends on 0x7fd2c5c3dbd0
[33m[WRN] [0m[R8] RobCusor 0x7fd2c5c41b20 read-depends on 0x7fd2c5c3dbb0
[33m[WRN] [0m[R8] RobCusor 0x7fd2c5c41b20 write can go ahead with ticket 0x7fd2c5c42510
[33m[WRN] [0m----------------------Experimental Execute--------------
[33m[WRN] [0mRobEntry 0x7fd2c5e075c0 ready with 0x7fd2c5e0cd40
[33m[WRN] [0mRobEntry 0x7fd2c5e076e0 not ready due to 0x7fd2c5e0db00
[33m[WRN] [0mRobEntry 0x7fd2c5e07860 not ready due to 0x7fd2c5e0dfb0
[33m[WRN] [0mRobEntry 0x7fd2c5e078c0 not ready due to 0x7fd2c5e0e2a8
[33m[WRN] [0mRobEntry 0x7fd2c5e079e0 not ready due to 0x7fd2c5e0e630
[33m[WRN] [0mRobEntry 0x7fd2c5e12260 not ready due to 0x7fd2c5e0ede0
[33m[WRN] [0mRobEntry 0x7fd2c5e16300 not ready due to 0x7fd2c5e12df0
[33m[WRN] [0mRobEntry 0x7fd2c5e182d0 not ready due to 0x7fd2c5e188f8
[33m[WRN] [0mRobEntry 0x7fd2c5e1cc10 not ready due to 0x7fd2c5e18d30
[33m[WRN] [0mRobEntry 0x7fd2c5e1f750 not ready due to 0x7fd2c5e20460
[33m[WRN] [0mRobEntry 0x7fd2c5e23a60 not ready due to 0x7fd2c5e22530
[33m[WRN] [0mRobEntry 0x7fd2c5e25b60 not ready due to 0x7fd2c5e26378
[33m[WRN] [0mRobEntry 0x7fd2c5e2a4a0 not ready due to 0x7fd2c5e267c0
[33m[WRN] [0mRobEntry 0x7fd2c5e2cfe0 not ready due to 0x7fd2c5c2a960
[33m[WRN] [0mRobEntry 0x7fd2c5c2d640 not ready due to 0x7fd2c5c2c110
[33m[WRN] [0mRobEntry 0x7fd2c5c2f610 not ready due to 0x7fd2c5c2fe28
[33m[WRN] [0mRobEntry 0x7fd2c5c33f50 not ready due to 0x7fd2c5c30270
[33m[WRN] [0mRobEntry 0x7fd2c5c36a90 not ready due to 0x7fd2c5c377a0
[33m[WRN] [0mRobEntry 0x7fd2c5c030c0 not ready due to 0x7fd2c5c39a60
[33m[WRN] [0mRobEntry 0x7fd2c5c3cf80 not ready due to 0x7fd2c5c3d788
[33m[WRN] [0mRobEntry 0x7fd2c5c41b20 not ready due to 0x7fd2c5c3dbd0
0x00007fd2c601512c  b9000be8		str w8, [sp, #8]
[33m[WRN] [0m[R31] RobEntry 0x7fd2c5e075c0 reads init val 0x0
[33m[WRN] [0mReal write: 0x7fd2c601d2d8, 0x24ea0
#    w8:         0x00000005 -> 0x00007fd2c601d2d8
[34m[DBG] [0m   Logic[0]: newPc <- 0x7fd2c6015130
0x00007fd2c6015134  12800009		mov w9, #0xffffffff
[33m[WRN] [0m[0x7fd2c5e07680] filled ticket 0x7fd2c5e0db00
#    x9: 0x00000000ffffffff
[34m[DBG] [0m   Logic[1]: newPc <- 0x7fd2c6015138
[34m[DBG] [0m   Scribe: retired 4 ROB entries (now: 0x7fd2c5e075c0:Done)
[34m[DBG] [0m======================================== Update[51/77] 
[34m[DBG] [0m   Fetcher: buffer.size = 1745
[34m[DBG] [0m   Logic: instr executed ? yes: 3
[34m[DBG] [0m   Logic: rStation size <- 61, rsVacancy <- 3
[34m[DBG] [0m======================================== Sync [51/77] 
[34m[DBG] [0m======================================== Cycle End

[34m[DBG] [0m======================================== Compute[52/77]
[34m[DBG] [0mPC Offsest: 0x120
[34m[DBG] [0m   Fetcher: at: 0x7fd2c6015120 (buffer 0:1745)
[34m[DBG] [0m   Fetcher: front instr = 0x7fd2c6015120, fetched 64, tmpBuffer: 64
[34m[DBG] [0m   Decoder: front instr = 0x7fd2c601513c
[34m[DBG] [0m   Decoder: Logic reservation station is full
0x00007fd2c6015138  0b090108		add w8, w8, w9
0x00007fd2c601513c  b9000fe8		str w8, [sp, #12]
[33m[WRN] [0mRobEntry 0x7fd2c5e07740 not ready due to 0x7fd2c5e0dcc0
0x00007fd2c6015140  17fffff4		b #-0x30 (addr 0x7fd2c6015110)
0x00007fd2c6015110  b9400fe8		ldr w8, [sp, #12]
0x00007fd2c6015114  7100051f		cmp w8, #0x1 (1)
0x00007fd2c6015118  54000041		b.ne #+0x8 (addr 0x7fd2c6015120)
0x00007fd2c6015120  b9400fe8		ldr w8, [sp, #12]
0x00007fd2c6015124  b9400be9		ldr w9, [sp, #8]
0x00007fd2c6015128  1b087d28		mul w8, w9, w8
0x00007fd2c601512c  b9000be8		str w8, [sp, #8]
[33m[WRN] [0mRobEntry 0x7fd2c5e07a40 not ready due to 0x7fd2c5e0e1a0
0x00007fd2c6015130  b9400fe8		ldr w8, [sp, #12]
0x00007fd2c6015134  12800009		mov w9, #0xffffffff
0x00007fd2c6015138  0b090108		add w8, w8, w9
0x00007fd2c601513c  b9000fe8		str w8, [sp, #12]
[33m[WRN] [0mRobEntry 0x7fd2c5e14020 not ready due to 0x7fd2c5e0ee00
0x00007fd2c6015140  17fffff4		b #-0x30 (addr 0x7fd2c6015110)
0x00007fd2c6015110  b9400fe8		ldr w8, [sp, #12]
0x00007fd2c6015114  7100051f		cmp w8, #0x1 (1)
0x00007fd2c6015118  54000041		b.ne #+0x8 (addr 0x7fd2c6015120)
0x00007fd2c6015120  b9400fe8		ldr w8, [sp, #12]
0x00007fd2c6015124  b9400be9		ldr w9, [sp, #8]
0x00007fd2c6015128  1b087d28		mul w8, w9, w8
0x00007fd2c601512c  b9000be8		str w8, [sp, #8]
[33m[WRN] [0mRobEntry 0x7fd2c5e1f630 not ready due to 0x7fd2c5e1d600
0x00007fd2c6015130  b9400fe8		ldr w8, [sp, #12]
0x00007fd2c6015134  12800009		mov w9, #0xffffffff
0x00007fd2c6015138  0b090108		add w8, w8, w9
0x00007fd2c601513c  b9000fe8		str w8, [sp, #12]
[33m[WRN] [0mRobEntry 0x7fd2c5e21690 not ready due to 0x7fd2c5e220c0
0x00007fd2c6015140  17fffff4		b #-0x30 (addr 0x7fd2c6015110)
0x00007fd2c6015110  b9400fe8		ldr w8, [sp, #12]
0x00007fd2c6015114  7100051f		cmp w8, #0x1 (1)
0x00007fd2c6015118  54000041		b.ne #+0x8 (addr 0x7fd2c6015120)
0x00007fd2c6015120  b9400fe8		ldr w8, [sp, #12]
0x00007fd2c6015124  b9400be9		ldr w9, [sp, #8]
0x00007fd2c6015128  1b087d28		mul w8, w9, w8
0x00007fd2c601512c  b9000be8		str w8, [sp, #8]
[33m[WRN] [0mRobEntry 0x7fd2c5e2cec0 not ready due to 0x7fd2c5c2a8a0
0x00007fd2c6015130  b9400fe8		ldr w8, [sp, #12]
0x00007fd2c6015134  12800009		mov w9, #0xffffffff
0x00007fd2c6015138  0b090108		add w8, w8, w9
0x00007fd2c601513c  b9000fe8		str w8, [sp, #12]
[33m[WRN] [0mRobEntry 0x7fd2c5c230d0 not ready due to 0x7fd2c5c207a0
0x00007fd2c6015140  17fffff4		b #-0x30 (addr 0x7fd2c6015110)
0x00007fd2c6015110  b9400fe8		ldr w8, [sp, #12]
0x00007fd2c6015114  7100051f		cmp w8, #0x1 (1)
0x00007fd2c6015118  54000041		b.ne #+0x8 (addr 0x7fd2c6015120)
0x00007fd2c6015120  b9400fe8		ldr w8, [sp, #12]
0x00007fd2c6015124  b9400be9		ldr w9, [sp, #8]
0x00007fd2c6015128  1b087d28		mul w8, w9, w8
0x00007fd2c601512c  b9000be8		str w8, [sp, #8]
[33m[WRN] [0mRobEntry 0x7fd2c5c36970 not ready due to 0x7fd2c5c34940
0x00007fd2c6015130  b9400fe8		ldr w8, [sp, #12]
0x00007fd2c6015134  12800009		mov w9, #0xffffffff
0x00007fd2c6015138  0b090108		add w8, w8, w9
0x00007fd2c601513c  b9000fe8		str w8, [sp, #12]
[33m[WRN] [0mRobEntry 0x7fd2c5c38bd0 not ready due to 0x7fd2c5c39600
0x00007fd2c6015140  17fffff4		b #-0x30 (addr 0x7fd2c6015110)
0x00007fd2c6015110  b9400fe8		ldr w8, [sp, #12]
0x00007fd2c6015114  7100051f		cmp w8, #0x1 (1)
0x00007fd2c6015118  54000041		b.ne #+0x8 (addr 0x7fd2c6015120)
0x00007fd2c6015120  b9400fe8		ldr w8, [sp, #12]
0x00007fd2c6015124  b9400be9		ldr w9, [sp, #8]
0x00007fd2c6015128  1b087d28		mul w8, w9, w8
0x00007fd2c601512c  b9000be8		str w8, [sp, #8]
[33m[WRN] [0m[R31] RobCusor 0x7fd2c5c44540 read can go ahead (init)
[33m[WRN] [0m[R8] RobCusor 0x7fd2c5c44540 read-depends on 0x7fd2c5c42510
[33m[WRN] [0mRobEntry 0x7fd2c5c44540 not ready due to 0x7fd2c5c42510
0x00007fd2c6015130  b9400fe8		ldr w8, [sp, #12]
[33m[WRN] [0m[R31] RobCusor 0x7fd2c5c445a0 read can go ahead (init)
[33m[WRN] [0m[R8] RobCusor 0x7fd2c5c445a0 write can go ahead with ticket 0x7fd2c5c45140
0x00007fd2c6015134  12800009		mov w9, #0xffffffff
[33m[WRN] [0m[R9] RobCusor 0x7fd2c5c44600 write can go ahead with ticket 0x7fd2c5c45370
0x00007fd2c6015138  0b090108		add w8, w8, w9
[33m[WRN] [0m[R9] RobCusor 0x7fd2c5c44660 read-depends on 0x7fd2c5c45370
[33m[WRN] [0m[R8] RobCusor 0x7fd2c5c44660 read-depends on 0x7fd2c5c45140
[33m[WRN] [0m[R8] RobCusor 0x7fd2c5c44660 write can go ahead with ticket 0x7fd2c5c46fd0
[33m[WRN] [0m----------------------Experimental Execute--------------
[33m[WRN] [0mRobEntry 0x7fd2c5e076e0 ready with 0x7fd2c5e0db00
[33m[WRN] [0mRobEntry 0x7fd2c5e076e0 ready with 0x7fd2c5e0da50
[33m[WRN] [0mRobEntry 0x7fd2c5e07860 not ready due to 0x7fd2c5e0dfb0
[33m[WRN] [0mRobEntry 0x7fd2c5e078c0 not ready due to 0x7fd2c5e0e2a8
[33m[WRN] [0mRobEntry 0x7fd2c5e079e0 not ready due to 0x7fd2c5e0e630
[33m[WRN] [0mRobEntry 0x7fd2c5e12260 not ready due to 0x7fd2c5e0ede0
[33m[WRN] [0mRobEntry 0x7fd2c5e16300 not ready due to 0x7fd2c5e12df0
[33m[WRN] [0mRobEntry 0x7fd2c5e182d0 not ready due to 0x7fd2c5e188f8
[33m[WRN] [0mRobEntry 0x7fd2c5e1cc10 not ready due to 0x7fd2c5e18d30
[33m[WRN] [0mRobEntry 0x7fd2c5e1f750 not ready due to 0x7fd2c5e20460
[33m[WRN] [0mRobEntry 0x7fd2c5e23a60 not ready due to 0x7fd2c5e22530
[33m[WRN] [0mRobEntry 0x7fd2c5e25b60 not ready due to 0x7fd2c5e26378
[33m[WRN] [0mRobEntry 0x7fd2c5e2a4a0 not ready due to 0x7fd2c5e267c0
[33m[WRN] [0mRobEntry 0x7fd2c5e2cfe0 not ready due to 0x7fd2c5c2a960
[33m[WRN] [0mRobEntry 0x7fd2c5c2d640 not ready due to 0x7fd2c5c2c110
[33m[WRN] [0mRobEntry 0x7fd2c5c2f610 not ready due to 0x7fd2c5c2fe28
[33m[WRN] [0mRobEntry 0x7fd2c5c33f50 not ready due to 0x7fd2c5c30270
[33m[WRN] [0mRobEntry 0x7fd2c5c36a90 not ready due to 0x7fd2c5c377a0
[33m[WRN] [0mRobEntry 0x7fd2c5c030c0 not ready due to 0x7fd2c5c39a60
[33m[WRN] [0mRobEntry 0x7fd2c5c3cf80 not ready due to 0x7fd2c5c3d788
[33m[WRN] [0mRobEntry 0x7fd2c5c41b20 not ready due to 0x7fd2c5c3dbd0
[33m[WRN] [0mRobEntry 0x7fd2c5c44660 not ready due to 0x7fd2c5c45370
0x00007fd2c6015138  0b090108		add w8, w8, w9
[33m[WRN] [0m[0x7fd2c5e076e0] filled ticket 0x7fd2c5e0dcc0
#    x8: 0x0000000000000004
[34m[DBG] [0m   Logic[0]: newPc <- 0x7fd2c601513c
0x00007fd2c6015140  17fffff4		b #-0x30 (addr 0x7fd2c6015110)
#    pc: 0x7fd2c6015110 (by 0x7fd2c5e077a0)
[33m[WRN] [0m[0x7fd2c5e077a0] filled ticket 0x7fd2c5e0df00
[34m[DBG] [0m   Logic[1]: newPc <- 0x7fd2c6015110
[34m[DBG] [0m   Scribe: retired 3 ROB entries (now: 0x7fd2c5e076e0:Done)
[34m[DBG] [0m======================================== Update[52/80] 
[34m[DBG] [0m   Fetcher: buffer.size = 1805
[34m[DBG] [0m   Logic: Branch prediction 0x7fd2c6015140 was correct: 11
[34m[DBG] [0m   Logic: Correct branch: 0x7fd2c5e077a0 succ 0x7fd2c5e07800
[34m[DBG] [0m   Logic: 0x7fd2c5e077a0 affirmed speculative RobEntry 0x7fd2c5e07800
[34m[DBG] [0m   Logic: 0x7fd2c5e077a0 affirmed speculative RobEntry 0x7fd2c5e07860
[34m[DBG] [0m   Logic: 0x7fd2c5e077a0 affirmed speculative RobEntry 0x7fd2c5e078c0
[34m[DBG] [0m   Logic: instr executed ? yes: 1
[34m[DBG] [0m   Logic: rStation size <- 63, rsVacancy <- 1
[34m[DBG] [0m======================================== Sync [52/80] 
[34m[DBG] [0m======================================== Cycle End

[34m[DBG] [0m======================================== Compute[53/80]
[34m[DBG] [0mPC Offsest: 0x130
[34m[DBG] [0m   Fetcher: at: 0x7fd2c6015130 (buffer 0:1805)
[34m[DBG] [0m   Fetcher: front instr = 0x7fd2c6015130, fetched 64, tmpBuffer: 64
[34m[DBG] [0m   Decoder: front instr = 0x7fd2c6015118
[34m[DBG] [0m   Decoder: Logic reservation station is full
0x00007fd2c601513c  b9000fe8		str w8, [sp, #12]
[33m[WRN] [0mRobEntry 0x7fd2c5e07740 ready with 0x7fd2c5e0dcc0
0x00007fd2c6015110  b9400fe8		ldr w8, [sp, #12]
0x00007fd2c6015114  7100051f		cmp w8, #0x1 (1)
0x00007fd2c6015118  54000041		b.ne #+0x8 (addr 0x7fd2c6015120)
0x00007fd2c6015120  b9400fe8		ldr w8, [sp, #12]
0x00007fd2c6015124  b9400be9		ldr w9, [sp, #8]
0x00007fd2c6015128  1b087d28		mul w8, w9, w8
0x00007fd2c601512c  b9000be8		str w8, [sp, #8]
[33m[WRN] [0mRobEntry 0x7fd2c5e07a40 not ready due to 0x7fd2c5e0e1a0
0x00007fd2c6015130  b9400fe8		ldr w8, [sp, #12]
0x00007fd2c6015134  12800009		mov w9, #0xffffffff
0x00007fd2c6015138  0b090108		add w8, w8, w9
0x00007fd2c601513c  b9000fe8		str w8, [sp, #12]
[33m[WRN] [0mRobEntry 0x7fd2c5e14020 not ready due to 0x7fd2c5e0ee00
0x00007fd2c6015140  17fffff4		b #-0x30 (addr 0x7fd2c6015110)
0x00007fd2c6015110  b9400fe8		ldr w8, [sp, #12]
0x00007fd2c6015114  7100051f		cmp w8, #0x1 (1)
0x00007fd2c6015118  54000041		b.ne #+0x8 (addr 0x7fd2c6015120)
0x00007fd2c6015120  b9400fe8		ldr w8, [sp, #12]
0x00007fd2c6015124  b9400be9		ldr w9, [sp, #8]
0x00007fd2c6015128  1b087d28		mul w8, w9, w8
0x00007fd2c601512c  b9000be8		str w8, [sp, #8]
[33m[WRN] [0mRobEntry 0x7fd2c5e1f630 not ready due to 0x7fd2c5e1d600
0x00007fd2c6015130  b9400fe8		ldr w8, [sp, #12]
0x00007fd2c6015134  12800009		mov w9, #0xffffffff
0x00007fd2c6015138  0b090108		add w8, w8, w9
0x00007fd2c601513c  b9000fe8		str w8, [sp, #12]
[33m[WRN] [0mRobEntry 0x7fd2c5e21690 not ready due to 0x7fd2c5e220c0
0x00007fd2c6015140  17fffff4		b #-0x30 (addr 0x7fd2c6015110)
0x00007fd2c6015110  b9400fe8		ldr w8, [sp, #12]
0x00007fd2c6015114  7100051f		cmp w8, #0x1 (1)
0x00007fd2c6015118  54000041		b.ne #+0x8 (addr 0x7fd2c6015120)
0x00007fd2c6015120  b9400fe8		ldr w8, [sp, #12]
0x00007fd2c6015124  b9400be9		ldr w9, [sp, #8]
0x00007fd2c6015128  1b087d28		mul w8, w9, w8
0x00007fd2c601512c  b9000be8		str w8, [sp, #8]
[33m[WRN] [0mRobEntry 0x7fd2c5e2cec0 not ready due to 0x7fd2c5c2a8a0
0x00007fd2c6015130  b9400fe8		ldr w8, [sp, #12]
0x00007fd2c6015134  12800009		mov w9, #0xffffffff
0x00007fd2c6015138  0b090108		add w8, w8, w9
0x00007fd2c601513c  b9000fe8		str w8, [sp, #12]
[33m[WRN] [0mRobEntry 0x7fd2c5c230d0 not ready due to 0x7fd2c5c207a0
0x00007fd2c6015140  17fffff4		b #-0x30 (addr 0x7fd2c6015110)
0x00007fd2c6015110  b9400fe8		ldr w8, [sp, #12]
0x00007fd2c6015114  7100051f		cmp w8, #0x1 (1)
0x00007fd2c6015118  54000041		b.ne #+0x8 (addr 0x7fd2c6015120)
0x00007fd2c6015120  b9400fe8		ldr w8, [sp, #12]
0x00007fd2c6015124  b9400be9		ldr w9, [sp, #8]
0x00007fd2c6015128  1b087d28		mul w8, w9, w8
0x00007fd2c601512c  b9000be8		str w8, [sp, #8]
[33m[WRN] [0mRobEntry 0x7fd2c5c36970 not ready due to 0x7fd2c5c34940
0x00007fd2c6015130  b9400fe8		ldr w8, [sp, #12]
0x00007fd2c6015134  12800009		mov w9, #0xffffffff
0x00007fd2c6015138  0b090108		add w8, w8, w9
0x00007fd2c601513c  b9000fe8		str w8, [sp, #12]
[33m[WRN] [0mRobEntry 0x7fd2c5c38bd0 not ready due to 0x7fd2c5c39600
0x00007fd2c6015140  17fffff4		b #-0x30 (addr 0x7fd2c6015110)
0x00007fd2c6015110  b9400fe8		ldr w8, [sp, #12]
0x00007fd2c6015114  7100051f		cmp w8, #0x1 (1)
0x00007fd2c6015118  54000041		b.ne #+0x8 (addr 0x7fd2c6015120)
0x00007fd2c6015120  b9400fe8		ldr w8, [sp, #12]
0x00007fd2c6015124  b9400be9		ldr w9, [sp, #8]
0x00007fd2c6015128  1b087d28		mul w8, w9, w8
0x00007fd2c601512c  b9000be8		str w8, [sp, #8]
[33m[WRN] [0mRobEntry 0x7fd2c5c44540 not ready due to 0x7fd2c5c42510
0x00007fd2c6015130  b9400fe8		ldr w8, [sp, #12]
0x00007fd2c6015134  12800009		mov w9, #0xffffffff
0x00007fd2c6015138  0b090108		add w8, w8, w9
0x00007fd2c601513c  b9000fe8		str w8, [sp, #12]
[33m[WRN] [0m[R31] RobCusor 0x7fd2c5c465a0 read can go ahead (init)
[33m[WRN] [0m[R8] RobCusor 0x7fd2c5c465a0 read-depends on 0x7fd2c5c46fd0
[33m[WRN] [0mRobEntry 0x7fd2c5c465a0 not ready due to 0x7fd2c5c46fd0
0x00007fd2c6015140  17fffff4		b #-0x30 (addr 0x7fd2c6015110)
0x00007fd2c6015110  b9400fe8		ldr w8, [sp, #12]
[33m[WRN] [0m[R31] RobCusor 0x7fd2c5c46660 read can go ahead (init)
[33m[WRN] [0m[R8] RobCusor 0x7fd2c5c46660 write can go ahead with ticket 0x7fd2c5c47440
[33m[WRN] [0m----------------------Experimental Execute--------------
[33m[WRN] [0mRobEntry 0x7fd2c5e07740 ready with 0x7fd2c5e0dcc0
[33m[WRN] [0mRobEntry 0x7fd2c5e07860 not ready due to 0x7fd2c5e0dfb0
[33m[WRN] [0mRobEntry 0x7fd2c5e078c0 not ready due to 0x7fd2c5e0e2a8
[33m[WRN] [0mRobEntry 0x7fd2c5e079e0 not ready due to 0x7fd2c5e0e630
[33m[WRN] [0mRobEntry 0x7fd2c5e12260 not ready due to 0x7fd2c5e0ede0
[33m[WRN] [0mRobEntry 0x7fd2c5e16300 not ready due to 0x7fd2c5e12df0
[33m[WRN] [0mRobEntry 0x7fd2c5e182d0 not ready due to 0x7fd2c5e188f8
[33m[WRN] [0mRobEntry 0x7fd2c5e1cc10 not ready due to 0x7fd2c5e18d30
[33m[WRN] [0mRobEntry 0x7fd2c5e1f750 not ready due to 0x7fd2c5e20460
[33m[WRN] [0mRobEntry 0x7fd2c5e23a60 not ready due to 0x7fd2c5e22530
[33m[WRN] [0mRobEntry 0x7fd2c5e25b60 not ready due to 0x7fd2c5e26378
[33m[WRN] [0mRobEntry 0x7fd2c5e2a4a0 not ready due to 0x7fd2c5e267c0
[33m[WRN] [0mRobEntry 0x7fd2c5e2cfe0 not ready due to 0x7fd2c5c2a960
[33m[WRN] [0mRobEntry 0x7fd2c5c2d640 not ready due to 0x7fd2c5c2c110
[33m[WRN] [0mRobEntry 0x7fd2c5c2f610 not ready due to 0x7fd2c5c2fe28
[33m[WRN] [0mRobEntry 0x7fd2c5c33f50 not ready due to 0x7fd2c5c30270
[33m[WRN] [0mRobEntry 0x7fd2c5c36a90 not ready due to 0x7fd2c5c377a0
[33m[WRN] [0mRobEntry 0x7fd2c5c030c0 not ready due to 0x7fd2c5c39a60
[33m[WRN] [0mRobEntry 0x7fd2c5c3cf80 not ready due to 0x7fd2c5c3d788
[33m[WRN] [0mRobEntry 0x7fd2c5c41b20 not ready due to 0x7fd2c5c3dbd0
[33m[WRN] [0mRobEntry 0x7fd2c5c44660 not ready due to 0x7fd2c5c45370
0x00007fd2c601513c  b9000fe8		str w8, [sp, #12]
[33m[WRN] [0m[R31] RobEntry 0x7fd2c5e07740 reads init val 0x0
[33m[WRN] [0mReal write: 0x7fd2c601d2dc, 0x4
#    w8:         0x00000004 -> 0x00007fd2c601d2dc
[34m[DBG] [0m   Logic[0]: newPc <- 0x7fd2c6015140
0x00007fd2c6015124  b9400be9		ldr w9, [sp, #8]
[33m[WRN] [0m[R31] RobEntry 0x7fd2c5e07980 reads init val 0x0
[34m[DBG] [0m[MEM] read addr=0x7fd2c601d2d8 len=0x4 val=0x24ea0
[33m[WRN] [0m[R9] Speculative write by 0x7fd2c5e07980 val=0x24ea0
[33m[WRN] [0m[0x7fd2c5e07980] filled ticket 0x7fd2c5e0e630
#    x9: 0x00000000ffffffff <- 0x00007fd2c601d2d8
[34m[DBG] [0m   Logic[1]: speculation no set pc
[34m[DBG] [0m   Scribe: retired 1 ROB entries (now: 0x7fd2c5e07740:Done)
[34m[DBG] [0m======================================== Update[53/81] 
[34m[DBG] [0m   Fetcher: buffer.size = 1866
[34m[DBG] [0m   Logic: instr executed ? yes: 2
[34m[DBG] [0m   Logic: rStation size <- 62, rsVacancy <- 2
[34m[DBG] [0m======================================== Sync [53/81] 
[34m[DBG] [0m======================================== Cycle End

[34m[DBG] [0m======================================== Compute[54/81]
[34m[DBG] [0mPC Offsest: 0x140
[34m[DBG] [0m   Fetcher: at: 0x7fd2c6015140 (buffer 0:1866)
[34m[DBG] [0m   Fetcher: front instr = 0x7fd2c6015140, fetched 64, tmpBuffer: 64
[34m[DBG] [0m   Decoder: front instr = 0x7fd2c6015128
[34m[DBG] [0m   Decoder: Logic reservation station is full
0x00007fd2c6015110  b9400fe8		ldr w8, [sp, #12]
0x00007fd2c6015114  7100051f		cmp w8, #0x1 (1)
0x00007fd2c6015118  54000041		b.ne #+0x8 (addr 0x7fd2c6015120)
0x00007fd2c6015120  b9400fe8		ldr w8, [sp, #12]
0x00007fd2c6015128  1b087d28		mul w8, w9, w8
0x00007fd2c601512c  b9000be8		str w8, [sp, #8]
[33m[WRN] [0mRobEntry 0x7fd2c5e07a40 not ready due to 0x7fd2c5e0e1a0
0x00007fd2c6015130  b9400fe8		ldr w8, [sp, #12]
0x00007fd2c6015134  12800009		mov w9, #0xffffffff
0x00007fd2c6015138  0b090108		add w8, w8, w9
0x00007fd2c601513c  b9000fe8		str w8, [sp, #12]
[33m[WRN] [0mRobEntry 0x7fd2c5e14020 not ready due to 0x7fd2c5e0ee00
0x00007fd2c6015140  17fffff4		b #-0x30 (addr 0x7fd2c6015110)
0x00007fd2c6015110  b9400fe8		ldr w8, [sp, #12]
0x00007fd2c6015114  7100051f		cmp w8, #0x1 (1)
0x00007fd2c6015118  54000041		b.ne #+0x8 (addr 0x7fd2c6015120)
0x00007fd2c6015120  b9400fe8		ldr w8, [sp, #12]
0x00007fd2c6015124  b9400be9		ldr w9, [sp, #8]
0x00007fd2c6015128  1b087d28		mul w8, w9, w8
0x00007fd2c601512c  b9000be8		str w8, [sp, #8]
[33m[WRN] [0mRobEntry 0x7fd2c5e1f630 not ready due to 0x7fd2c5e1d600
0x00007fd2c6015130  b9400fe8		ldr w8, [sp, #12]
0x00007fd2c6015134  12800009		mov w9, #0xffffffff
0x00007fd2c6015138  0b090108		add w8, w8, w9
0x00007fd2c601513c  b9000fe8		str w8, [sp, #12]
[33m[WRN] [0mRobEntry 0x7fd2c5e21690 not ready due to 0x7fd2c5e220c0
0x00007fd2c6015140  17fffff4		b #-0x30 (addr 0x7fd2c6015110)
0x00007fd2c6015110  b9400fe8		ldr w8, [sp, #12]
0x00007fd2c6015114  7100051f		cmp w8, #0x1 (1)
0x00007fd2c6015118  54000041		b.ne #+0x8 (addr 0x7fd2c6015120)
0x00007fd2c6015120  b9400fe8		ldr w8, [sp, #12]
0x00007fd2c6015124  b9400be9		ldr w9, [sp, #8]
0x00007fd2c6015128  1b087d28		mul w8, w9, w8
0x00007fd2c601512c  b9000be8		str w8, [sp, #8]
[33m[WRN] [0mRobEntry 0x7fd2c5e2cec0 not ready due to 0x7fd2c5c2a8a0
0x00007fd2c6015130  b9400fe8		ldr w8, [sp, #12]
0x00007fd2c6015134  12800009		mov w9, #0xffffffff
0x00007fd2c6015138  0b090108		add w8, w8, w9
0x00007fd2c601513c  b9000fe8		str w8, [sp, #12]
[33m[WRN] [0mRobEntry 0x7fd2c5c230d0 not ready due to 0x7fd2c5c207a0
0x00007fd2c6015140  17fffff4		b #-0x30 (addr 0x7fd2c6015110)
0x00007fd2c6015110  b9400fe8		ldr w8, [sp, #12]
0x00007fd2c6015114  7100051f		cmp w8, #0x1 (1)
0x00007fd2c6015118  54000041		b.ne #+0x8 (addr 0x7fd2c6015120)
0x00007fd2c6015120  b9400fe8		ldr w8, [sp, #12]
0x00007fd2c6015124  b9400be9		ldr w9, [sp, #8]
0x00007fd2c6015128  1b087d28		mul w8, w9, w8
0x00007fd2c601512c  b9000be8		str w8, [sp, #8]
[33m[WRN] [0mRobEntry 0x7fd2c5c36970 not ready due to 0x7fd2c5c34940
0x00007fd2c6015130  b9400fe8		ldr w8, [sp, #12]
0x00007fd2c6015134  12800009		mov w9, #0xffffffff
0x00007fd2c6015138  0b090108		add w8, w8, w9
0x00007fd2c601513c  b9000fe8		str w8, [sp, #12]
[33m[WRN] [0mRobEntry 0x7fd2c5c38bd0 not ready due to 0x7fd2c5c39600
0x00007fd2c6015140  17fffff4		b #-0x30 (addr 0x7fd2c6015110)
0x00007fd2c6015110  b9400fe8		ldr w8, [sp, #12]
0x00007fd2c6015114  7100051f		cmp w8, #0x1 (1)
0x00007fd2c6015118  54000041		b.ne #+0x8 (addr 0x7fd2c6015120)
0x00007fd2c6015120  b9400fe8		ldr w8, [sp, #12]
0x00007fd2c6015124  b9400be9		ldr w9, [sp, #8]
0x00007fd2c6015128  1b087d28		mul w8, w9, w8
0x00007fd2c601512c  b9000be8		str w8, [sp, #8]
[33m[WRN] [0mRobEntry 0x7fd2c5c44540 not ready due to 0x7fd2c5c42510
0x00007fd2c6015130  b9400fe8		ldr w8, [sp, #12]
0x00007fd2c6015134  12800009		mov w9, #0xffffffff
0x00007fd2c6015138  0b090108		add w8, w8, w9
0x00007fd2c601513c  b9000fe8		str w8, [sp, #12]
[33m[WRN] [0mRobEntry 0x7fd2c5c465a0 not ready due to 0x7fd2c5c46fd0
0x00007fd2c6015140  17fffff4		b #-0x30 (addr 0x7fd2c6015110)
0x00007fd2c6015110  b9400fe8		ldr w8, [sp, #12]
0x00007fd2c6015114  7100051f		cmp w8, #0x1 (1)
[33m[WRN] [0m[R8] RobCusor 0x7fd2c5c48970 read-depends on 0x7fd2c5c47440
[33m[WRN] [0m[NZCV] RobCusor 0x7fd2c5c48970 write can go ahead with ticket 0x7fd2c5c49460
[33m[WRN] [0m[NZCV] RobCusor 0x7fd2c5c48970 write can go ahead with ticket 0x7fd2c5c496a8
[33m[WRN] [0m[NZCV] RobCusor 0x7fd2c5c48970 write can go ahead with ticket 0x7fd2c5c4b140
[33m[WRN] [0m[NZCV] RobCusor 0x7fd2c5c48970 write can go ahead with ticket 0x7fd2c5c4b158
[33m[WRN] [0m----------------------Experimental Execute--------------
[33m[WRN] [0mRobEntry 0x7fd2c5e07860 not ready due to 0x7fd2c5e0dfb0
[33m[WRN] [0mRobEntry 0x7fd2c5e078c0 not ready due to 0x7fd2c5e0e2a8
[33m[WRN] [0mRobEntry 0x7fd2c5e079e0 ready with 0x7fd2c5e0e630
[33m[WRN] [0mRobEntry 0x7fd2c5e079e0 not ready due to 0x7fd2c5e0e500
[33m[WRN] [0mRobEntry 0x7fd2c5e12260 not ready due to 0x7fd2c5e0ede0
[33m[WRN] [0mRobEntry 0x7fd2c5e16300 not ready due to 0x7fd2c5e12df0
[33m[WRN] [0mRobEntry 0x7fd2c5e182d0 not ready due to 0x7fd2c5e188f8
[33m[WRN] [0mRobEntry 0x7fd2c5e1cc10 not ready due to 0x7fd2c5e18d30
[33m[WRN] [0mRobEntry 0x7fd2c5e1f750 not ready due to 0x7fd2c5e20460
[33m[WRN] [0mRobEntry 0x7fd2c5e23a60 not ready due to 0x7fd2c5e22530
[33m[WRN] [0mRobEntry 0x7fd2c5e25b60 not ready due to 0x7fd2c5e26378
[33m[WRN] [0mRobEntry 0x7fd2c5e2a4a0 not ready due to 0x7fd2c5e267c0
[33m[WRN] [0mRobEntry 0x7fd2c5e2cfe0 not ready due to 0x7fd2c5c2a960
[33m[WRN] [0mRobEntry 0x7fd2c5c2d640 not ready due to 0x7fd2c5c2c110
[33m[WRN] [0mRobEntry 0x7fd2c5c2f610 not ready due to 0x7fd2c5c2fe28
[33m[WRN] [0mRobEntry 0x7fd2c5c33f50 not ready due to 0x7fd2c5c30270
[33m[WRN] [0mRobEntry 0x7fd2c5c36a90 not ready due to 0x7fd2c5c377a0
[33m[WRN] [0mRobEntry 0x7fd2c5c030c0 not ready due to 0x7fd2c5c39a60
[33m[WRN] [0mRobEntry 0x7fd2c5c3cf80 not ready due to 0x7fd2c5c3d788
[33m[WRN] [0mRobEntry 0x7fd2c5c41b20 not ready due to 0x7fd2c5c3dbd0
[33m[WRN] [0mRobEntry 0x7fd2c5c44660 not ready due to 0x7fd2c5c45370
[33m[WRN] [0mRobEntry 0x7fd2c5c48970 not ready due to 0x7fd2c5c47440
0x00007fd2c6015110  b9400fe8		ldr w8, [sp, #12]
[33m[WRN] [0m[R31] RobEntry 0x7fd2c5e07800 reads init val 0x0
[34m[DBG] [0m[MEM] read addr=0x7fd2c601d2dc len=0x4 val=0x4
[33m[WRN] [0m[0x7fd2c5e07800] filled ticket 0x7fd2c5e0dfb0
#    x8: 0x0000000000000004 <- 0x00007fd2c601d2dc
[34m[DBG] [0m   Logic[0]: newPc <- 0x7fd2c6015114
0x00007fd2c6015120  b9400fe8		ldr w8, [sp, #12]
[33m[WRN] [0m[R31] RobEntry 0x7fd2c5e07920 reads init val 0x0
[34m[DBG] [0m[MEM] read addr=0x7fd2c601d2dc len=0x4 val=0x4
[33m[WRN] [0m[R8] Speculative write by 0x7fd2c5e07920 val=0x4
[33m[WRN] [0m[0x7fd2c5e07920] filled ticket 0x7fd2c5e0e500
#    x8: 0x0000000000000004 <- 0x00007fd2c601d2dc
[34m[DBG] [0m   Logic[1]: speculation no set pc
[34m[DBG] [0m   Scribe: retired 2 ROB entries (now: 0x7fd2c5e07800:Done)
[34m[DBG] [0m======================================== Update[54/83] 
[34m[DBG] [0m   Fetcher: buffer.size = 1929
[34m[DBG] [0m   Logic: instr executed ? yes: 1
[34m[DBG] [0m   Logic: rStation size <- 63, rsVacancy <- 1
[34m[DBG] [0m======================================== Sync [54/83] 
[34m[DBG] [0m======================================== Cycle End

[34m[DBG] [0m======================================== Compute[55/83]
[34m[DBG] [0mPC Offsest: 0x120
[34m[DBG] [0m   Fetcher: at: 0x7fd2c6015120 (buffer 0:1929)
[34m[DBG] [0m   Fetcher: front instr = 0x7fd2c6015120, fetched 64, tmpBuffer: 64
[34m[DBG] [0m   Decoder: front instr = 0x7fd2c601512c
[34m[DBG] [0m   Decoder: Logic reservation station is full
0x00007fd2c6015114  7100051f		cmp w8, #0x1 (1)
0x00007fd2c6015118  54000041		b.ne #+0x8 (addr 0x7fd2c6015120)
0x00007fd2c6015128  1b087d28		mul w8, w9, w8
0x00007fd2c601512c  b9000be8		str w8, [sp, #8]
[33m[WRN] [0mRobEntry 0x7fd2c5e07a40 not ready due to 0x7fd2c5e0e1a0
0x00007fd2c6015130  b9400fe8		ldr w8, [sp, #12]
0x00007fd2c6015134  12800009		mov w9, #0xffffffff
0x00007fd2c6015138  0b090108		add w8, w8, w9
0x00007fd2c601513c  b9000fe8		str w8, [sp, #12]
[33m[WRN] [0mRobEntry 0x7fd2c5e14020 not ready due to 0x7fd2c5e0ee00
0x00007fd2c6015140  17fffff4		b #-0x30 (addr 0x7fd2c6015110)
0x00007fd2c6015110  b9400fe8		ldr w8, [sp, #12]
0x00007fd2c6015114  7100051f		cmp w8, #0x1 (1)
0x00007fd2c6015118  54000041		b.ne #+0x8 (addr 0x7fd2c6015120)
0x00007fd2c6015120  b9400fe8		ldr w8, [sp, #12]
0x00007fd2c6015124  b9400be9		ldr w9, [sp, #8]
0x00007fd2c6015128  1b087d28		mul w8, w9, w8
0x00007fd2c601512c  b9000be8		str w8, [sp, #8]
[33m[WRN] [0mRobEntry 0x7fd2c5e1f630 not ready due to 0x7fd2c5e1d600
0x00007fd2c6015130  b9400fe8		ldr w8, [sp, #12]
0x00007fd2c6015134  12800009		mov w9, #0xffffffff
0x00007fd2c6015138  0b090108		add w8, w8, w9
0x00007fd2c601513c  b9000fe8		str w8, [sp, #12]
[33m[WRN] [0mRobEntry 0x7fd2c5e21690 not ready due to 0x7fd2c5e220c0
0x00007fd2c6015140  17fffff4		b #-0x30 (addr 0x7fd2c6015110)
0x00007fd2c6015110  b9400fe8		ldr w8, [sp, #12]
0x00007fd2c6015114  7100051f		cmp w8, #0x1 (1)
0x00007fd2c6015118  54000041		b.ne #+0x8 (addr 0x7fd2c6015120)
0x00007fd2c6015120  b9400fe8		ldr w8, [sp, #12]
0x00007fd2c6015124  b9400be9		ldr w9, [sp, #8]
0x00007fd2c6015128  1b087d28		mul w8, w9, w8
0x00007fd2c601512c  b9000be8		str w8, [sp, #8]
[33m[WRN] [0mRobEntry 0x7fd2c5e2cec0 not ready due to 0x7fd2c5c2a8a0
0x00007fd2c6015130  b9400fe8		ldr w8, [sp, #12]
0x00007fd2c6015134  12800009		mov w9, #0xffffffff
0x00007fd2c6015138  0b090108		add w8, w8, w9
0x00007fd2c601513c  b9000fe8		str w8, [sp, #12]
[33m[WRN] [0mRobEntry 0x7fd2c5c230d0 not ready due to 0x7fd2c5c207a0
0x00007fd2c6015140  17fffff4		b #-0x30 (addr 0x7fd2c6015110)
0x00007fd2c6015110  b9400fe8		ldr w8, [sp, #12]
0x00007fd2c6015114  7100051f		cmp w8, #0x1 (1)
0x00007fd2c6015118  54000041		b.ne #+0x8 (addr 0x7fd2c6015120)
0x00007fd2c6015120  b9400fe8		ldr w8, [sp, #12]
0x00007fd2c6015124  b9400be9		ldr w9, [sp, #8]
0x00007fd2c6015128  1b087d28		mul w8, w9, w8
0x00007fd2c601512c  b9000be8		str w8, [sp, #8]
[33m[WRN] [0mRobEntry 0x7fd2c5c36970 not ready due to 0x7fd2c5c34940
0x00007fd2c6015130  b9400fe8		ldr w8, [sp, #12]
0x00007fd2c6015134  12800009		mov w9, #0xffffffff
0x00007fd2c6015138  0b090108		add w8, w8, w9
0x00007fd2c601513c  b9000fe8		str w8, [sp, #12]
[33m[WRN] [0mRobEntry 0x7fd2c5c38bd0 not ready due to 0x7fd2c5c39600
0x00007fd2c6015140  17fffff4		b #-0x30 (addr 0x7fd2c6015110)
0x00007fd2c6015110  b9400fe8		ldr w8, [sp, #12]
0x00007fd2c6015114  7100051f		cmp w8, #0x1 (1)
0x00007fd2c6015118  54000041		b.ne #+0x8 (addr 0x7fd2c6015120)
0x00007fd2c6015120  b9400fe8		ldr w8, [sp, #12]
0x00007fd2c6015124  b9400be9		ldr w9, [sp, #8]
0x00007fd2c6015128  1b087d28		mul w8, w9, w8
0x00007fd2c601512c  b9000be8		str w8, [sp, #8]
[33m[WRN] [0mRobEntry 0x7fd2c5c44540 not ready due to 0x7fd2c5c42510
0x00007fd2c6015130  b9400fe8		ldr w8, [sp, #12]
0x00007fd2c6015134  12800009		mov w9, #0xffffffff
0x00007fd2c6015138  0b090108		add w8, w8, w9
0x00007fd2c601513c  b9000fe8		str w8, [sp, #12]
[33m[WRN] [0mRobEntry 0x7fd2c5c465a0 not ready due to 0x7fd2c5c46fd0
0x00007fd2c6015140  17fffff4		b #-0x30 (addr 0x7fd2c6015110)
0x00007fd2c6015110  b9400fe8		ldr w8, [sp, #12]
0x00007fd2c6015114  7100051f		cmp w8, #0x1 (1)
0x00007fd2c6015118  54000041		b.ne #+0x8 (addr 0x7fd2c6015120)
[33m[WRN] [0m[NZCV] RobCusor 0x7fd2c5c4a940 read-depends on 0x7fd2c5c4b158
0x00007fd2c6015120  b9400fe8		ldr w8, [sp, #12]
[33m[WRN] [0m[R31] RobCusor 0x7fd2c5c4a9a0 read can go ahead (init)
[33m[WRN] [0m[R8] RobCusor 0x7fd2c5c4a9a0 write can go ahead with ticket 0x7fd2c5c4b580
[33m[WRN] [0m----------------------Experimental Execute--------------
[33m[WRN] [0mRobEntry 0x7fd2c5e07860 ready with 0x7fd2c5e0dfb0
[33m[WRN] [0mRobEntry 0x7fd2c5e078c0 not ready due to 0x7fd2c5e0e2a8
[33m[WRN] [0mRobEntry 0x7fd2c5e079e0 ready with 0x7fd2c5e0e630
[33m[WRN] [0mRobEntry 0x7fd2c5e079e0 ready with 0x7fd2c5e0e500
[33m[WRN] [0mRobEntry 0x7fd2c5e079e0 ready with 0x7fd2c5e0e630
[33m[WRN] [0mRobEntry 0x7fd2c5e079e0 ready with 0x7fd2c5e0e500
[33m[WRN] [0mRobEntry 0x7fd2c5e079e0 ready with 0x7fd2c5e0e630
[33m[WRN] [0mRobEntry 0x7fd2c5e079e0 ready with 0x7fd2c5e0e500
[33m[WRN] [0mRobEntry 0x7fd2c5e12260 not ready due to 0x7fd2c5e0ede0
[33m[WRN] [0mRobEntry 0x7fd2c5e16300 not ready due to 0x7fd2c5e12df0
[33m[WRN] [0mRobEntry 0x7fd2c5e182d0 not ready due to 0x7fd2c5e188f8
[33m[WRN] [0mRobEntry 0x7fd2c5e1cc10 not ready due to 0x7fd2c5e18d30
[33m[WRN] [0mRobEntry 0x7fd2c5e1f750 not ready due to 0x7fd2c5e20460
[33m[WRN] [0mRobEntry 0x7fd2c5e23a60 not ready due to 0x7fd2c5e22530
[33m[WRN] [0mRobEntry 0x7fd2c5e25b60 not ready due to 0x7fd2c5e26378
[33m[WRN] [0mRobEntry 0x7fd2c5e2a4a0 not ready due to 0x7fd2c5e267c0
[33m[WRN] [0mRobEntry 0x7fd2c5e2cfe0 not ready due to 0x7fd2c5c2a960
[33m[WRN] [0mRobEntry 0x7fd2c5c2d640 not ready due to 0x7fd2c5c2c110
[33m[WRN] [0mRobEntry 0x7fd2c5c2f610 not ready due to 0x7fd2c5c2fe28
[33m[WRN] [0mRobEntry 0x7fd2c5c33f50 not ready due to 0x7fd2c5c30270
[33m[WRN] [0mRobEntry 0x7fd2c5c36a90 not ready due to 0x7fd2c5c377a0
[33m[WRN] [0mRobEntry 0x7fd2c5c030c0 not ready due to 0x7fd2c5c39a60
[33m[WRN] [0mRobEntry 0x7fd2c5c3cf80 not ready due to 0x7fd2c5c3d788
[33m[WRN] [0mRobEntry 0x7fd2c5c41b20 not ready due to 0x7fd2c5c3dbd0
[33m[WRN] [0mRobEntry 0x7fd2c5c44660 not ready due to 0x7fd2c5c45370
[33m[WRN] [0mRobEntry 0x7fd2c5c48970 not ready due to 0x7fd2c5c47440
[33m[WRN] [0mRobEntry 0x7fd2c5c4a940 not ready due to 0x7fd2c5c4b158
0x00007fd2c6015114  7100051f		cmp w8, #0x1 (1)
[33m[WRN] [0m[0x7fd2c5e07860] filled ticket 0x7fd2c5e0e260
[33m[WRN] [0m[0x7fd2c5e07860] filled ticket 0x7fd2c5e0e278
[33m[WRN] [0m[0x7fd2c5e07860] filled ticket 0x7fd2c5e0e290
[33m[WRN] [0m[0x7fd2c5e07860] filled ticket 0x7fd2c5e0e2a8
[33m[WRN] [0m[0x7fd2c5e07860] filled ticket 0x7fd2c5e0e260
[33m[WRN] [0m[0x7fd2c5e07860] filled ticket 0x7fd2c5e0e278
[33m[WRN] [0m[0x7fd2c5e07860] filled ticket 0x7fd2c5e0e290
[33m[WRN] [0m[0x7fd2c5e07860] filled ticket 0x7fd2c5e0e2a8
[33m[WRN] [0m[0x7fd2c5e07860] filled ticket 0x7fd2c5e0e260
[33m[WRN] [0m[0x7fd2c5e07860] filled ticket 0x7fd2c5e0e278
[33m[WRN] [0m[0x7fd2c5e07860] filled ticket 0x7fd2c5e0e290
[33m[WRN] [0m[0x7fd2c5e07860] filled ticket 0x7fd2c5e0e2a8
[33m[WRN] [0m[0x7fd2c5e07860] filled ticket 0x7fd2c5e0e260
[33m[WRN] [0m[0x7fd2c5e07860] filled ticket 0x7fd2c5e0e278
[33m[WRN] [0m[0x7fd2c5e07860] filled ticket 0x7fd2c5e0e290
[33m[WRN] [0m[0x7fd2c5e07860] filled ticket 0x7fd2c5e0e2a8
# NZCV: N:0 Z:0 C:1 V:0
[34m[DBG] [0m   Logic[0]: newPc <- 0x7fd2c6015118
0x00007fd2c6015128  1b087d28		mul w8, w9, w8
[33m[WRN] [0m[R8] Speculative write by 0x7fd2c5e079e0 val=0x3fffffffc
[33m[WRN] [0m[0x7fd2c5e079e0] filled ticket 0x7fd2c5e0e1a0
#    x8: 0x0000000000000004
[34m[DBG] [0m   Logic[1]: speculation no set pc
[34m[DBG] [0m   Scribe: retired 1 ROB entries (now: 0x7fd2c5e07860:Done)
[34m[DBG] [0m======================================== Update[55/84] 
[34m[DBG] [0m   Fetcher: buffer.size = 1991
[34m[DBG] [0m   Logic: instr executed ? yes: 1
[34m[DBG] [0m   Logic: rStation size <- 63, rsVacancy <- 1
[34m[DBG] [0m======================================== Sync [55/84] 
[34m[DBG] [0m======================================== Cycle End

[34m[DBG] [0m======================================== Compute[56/84]
[34m[DBG] [0mPC Offsest: 0x130
[34m[DBG] [0m   Fetcher: at: 0x7fd2c6015130 (buffer 0:1991)
[34m[DBG] [0m   Fetcher: front instr = 0x7fd2c6015130, fetched 64, tmpBuffer: 64
[34m[DBG] [0m   Decoder: front instr = 0x7fd2c6015134
[34m[DBG] [0m   Decoder: Logic reservation station is full
0x00007fd2c6015118  54000041		b.ne #+0x8 (addr 0x7fd2c6015120)
0x00007fd2c601512c  b9000be8		str w8, [sp, #8]
[33m[WRN] [0mRobEntry 0x7fd2c5e07a40 ready with 0x7fd2c5e0e1a0
0x00007fd2c6015130  b9400fe8		ldr w8, [sp, #12]
0x00007fd2c6015134  12800009		mov w9, #0xffffffff
0x00007fd2c6015138  0b090108		add w8, w8, w9
0x00007fd2c601513c  b9000fe8		str w8, [sp, #12]
[33m[WRN] [0mRobEntry 0x7fd2c5e14020 not ready due to 0x7fd2c5e0ee00
0x00007fd2c6015140  17fffff4		b #-0x30 (addr 0x7fd2c6015110)
0x00007fd2c6015110  b9400fe8		ldr w8, [sp, #12]
0x00007fd2c6015114  7100051f		cmp w8, #0x1 (1)
0x00007fd2c6015118  54000041		b.ne #+0x8 (addr 0x7fd2c6015120)
0x00007fd2c6015120  b9400fe8		ldr w8, [sp, #12]
0x00007fd2c6015124  b9400be9		ldr w9, [sp, #8]
0x00007fd2c6015128  1b087d28		mul w8, w9, w8
0x00007fd2c601512c  b9000be8		str w8, [sp, #8]
[33m[WRN] [0mRobEntry 0x7fd2c5e1f630 not ready due to 0x7fd2c5e1d600
0x00007fd2c6015130  b9400fe8		ldr w8, [sp, #12]
0x00007fd2c6015134  12800009		mov w9, #0xffffffff
0x00007fd2c6015138  0b090108		add w8, w8, w9
0x00007fd2c601513c  b9000fe8		str w8, [sp, #12]
[33m[WRN] [0mRobEntry 0x7fd2c5e21690 not ready due to 0x7fd2c5e220c0
0x00007fd2c6015140  17fffff4		b #-0x30 (addr 0x7fd2c6015110)
0x00007fd2c6015110  b9400fe8		ldr w8, [sp, #12]
0x00007fd2c6015114  7100051f		cmp w8, #0x1 (1)
0x00007fd2c6015118  54000041		b.ne #+0x8 (addr 0x7fd2c6015120)
0x00007fd2c6015120  b9400fe8		ldr w8, [sp, #12]
0x00007fd2c6015124  b9400be9		ldr w9, [sp, #8]
0x00007fd2c6015128  1b087d28		mul w8, w9, w8
0x00007fd2c601512c  b9000be8		str w8, [sp, #8]
[33m[WRN] [0mRobEntry 0x7fd2c5e2cec0 not ready due to 0x7fd2c5c2a8a0
0x00007fd2c6015130  b9400fe8		ldr w8, [sp, #12]
0x00007fd2c6015134  12800009		mov w9, #0xffffffff
0x00007fd2c6015138  0b090108		add w8, w8, w9
0x00007fd2c601513c  b9000fe8		str w8, [sp, #12]
[33m[WRN] [0mRobEntry 0x7fd2c5c230d0 not ready due to 0x7fd2c5c207a0
0x00007fd2c6015140  17fffff4		b #-0x30 (addr 0x7fd2c6015110)
0x00007fd2c6015110  b9400fe8		ldr w8, [sp, #12]
0x00007fd2c6015114  7100051f		cmp w8, #0x1 (1)
0x00007fd2c6015118  54000041		b.ne #+0x8 (addr 0x7fd2c6015120)
0x00007fd2c6015120  b9400fe8		ldr w8, [sp, #12]
0x00007fd2c6015124  b9400be9		ldr w9, [sp, #8]
0x00007fd2c6015128  1b087d28		mul w8, w9, w8
0x00007fd2c601512c  b9000be8		str w8, [sp, #8]
[33m[WRN] [0mRobEntry 0x7fd2c5c36970 not ready due to 0x7fd2c5c34940
0x00007fd2c6015130  b9400fe8		ldr w8, [sp, #12]
0x00007fd2c6015134  12800009		mov w9, #0xffffffff
0x00007fd2c6015138  0b090108		add w8, w8, w9
0x00007fd2c601513c  b9000fe8		str w8, [sp, #12]
[33m[WRN] [0mRobEntry 0x7fd2c5c38bd0 not ready due to 0x7fd2c5c39600
0x00007fd2c6015140  17fffff4		b #-0x30 (addr 0x7fd2c6015110)
0x00007fd2c6015110  b9400fe8		ldr w8, [sp, #12]
0x00007fd2c6015114  7100051f		cmp w8, #0x1 (1)
0x00007fd2c6015118  54000041		b.ne #+0x8 (addr 0x7fd2c6015120)
0x00007fd2c6015120  b9400fe8		ldr w8, [sp, #12]
0x00007fd2c6015124  b9400be9		ldr w9, [sp, #8]
0x00007fd2c6015128  1b087d28		mul w8, w9, w8
0x00007fd2c601512c  b9000be8		str w8, [sp, #8]
[33m[WRN] [0mRobEntry 0x7fd2c5c44540 not ready due to 0x7fd2c5c42510
0x00007fd2c6015130  b9400fe8		ldr w8, [sp, #12]
0x00007fd2c6015134  12800009		mov w9, #0xffffffff
0x00007fd2c6015138  0b090108		add w8, w8, w9
0x00007fd2c601513c  b9000fe8		str w8, [sp, #12]
[33m[WRN] [0mRobEntry 0x7fd2c5c465a0 not ready due to 0x7fd2c5c46fd0
0x00007fd2c6015140  17fffff4		b #-0x30 (addr 0x7fd2c6015110)
0x00007fd2c6015110  b9400fe8		ldr w8, [sp, #12]
0x00007fd2c6015114  7100051f		cmp w8, #0x1 (1)
0x00007fd2c6015118  54000041		b.ne #+0x8 (addr 0x7fd2c6015120)
0x00007fd2c6015120  b9400fe8		ldr w8, [sp, #12]
0x00007fd2c6015124  b9400be9		ldr w9, [sp, #8]
[33m[WRN] [0m[R31] RobCusor 0x7fd2c5c4cac0 read can go ahead (init)
[33m[WRN] [0m[R9] RobCusor 0x7fd2c5c4cac0 write can go ahead with ticket 0x7fd2c5c4b5a0
[33m[WRN] [0m----------------------Experimental Execute--------------
[33m[WRN] [0mRobEntry 0x7fd2c5e078c0 ready with 0x7fd2c5e0e2a8
[33m[WRN] [0mRobEntry 0x7fd2c5e12260 not ready due to 0x7fd2c5e0ede0
[33m[WRN] [0mRobEntry 0x7fd2c5e16300 not ready due to 0x7fd2c5e12df0
[33m[WRN] [0mRobEntry 0x7fd2c5e182d0 not ready due to 0x7fd2c5e188f8
[33m[WRN] [0mRobEntry 0x7fd2c5e1cc10 not ready due to 0x7fd2c5e18d30
[33m[WRN] [0mRobEntry 0x7fd2c5e1f750 not ready due to 0x7fd2c5e20460
[33m[WRN] [0mRobEntry 0x7fd2c5e23a60 not ready due to 0x7fd2c5e22530
[33m[WRN] [0mRobEntry 0x7fd2c5e25b60 not ready due to 0x7fd2c5e26378
[33m[WRN] [0mRobEntry 0x7fd2c5e2a4a0 not ready due to 0x7fd2c5e267c0
[33m[WRN] [0mRobEntry 0x7fd2c5e2cfe0 not ready due to 0x7fd2c5c2a960
[33m[WRN] [0mRobEntry 0x7fd2c5c2d640 not ready due to 0x7fd2c5c2c110
[33m[WRN] [0mRobEntry 0x7fd2c5c2f610 not ready due to 0x7fd2c5c2fe28
[33m[WRN] [0mRobEntry 0x7fd2c5c33f50 not ready due to 0x7fd2c5c30270
[33m[WRN] [0mRobEntry 0x7fd2c5c36a90 not ready due to 0x7fd2c5c377a0
[33m[WRN] [0mRobEntry 0x7fd2c5c030c0 not ready due to 0x7fd2c5c39a60
[33m[WRN] [0mRobEntry 0x7fd2c5c3cf80 not ready due to 0x7fd2c5c3d788
[33m[WRN] [0mRobEntry 0x7fd2c5c41b20 not ready due to 0x7fd2c5c3dbd0
[33m[WRN] [0mRobEntry 0x7fd2c5c44660 not ready due to 0x7fd2c5c45370
[33m[WRN] [0mRobEntry 0x7fd2c5c48970 not ready due to 0x7fd2c5c47440
[33m[WRN] [0mRobEntry 0x7fd2c5c4a940 not ready due to 0x7fd2c5c4b158
0x00007fd2c6015118  54000041		b.ne #+0x8 (addr 0x7fd2c6015120)
#    pc: 0x7fd2c6015120 (by 0x7fd2c5e078c0)
[33m[WRN] [0m[0x7fd2c5e078c0] filled ticket 0x7fd2c5e0e450
[34m[DBG] [0m   Logic[0]: newPc <- 0x7fd2c6015120
0x00007fd2c6015130  b9400fe8		ldr w8, [sp, #12]
[33m[WRN] [0m[R31] RobEntry 0x7fd2c5e10320 reads init val 0x0
[34m[DBG] [0m[MEM] read addr=0x7fd2c601d2dc len=0x4 val=0x4
[33m[WRN] [0m[R8] Speculative write by 0x7fd2c5e10320 val=0x4
[33m[WRN] [0m[0x7fd2c5e10320] filled ticket 0x7fd2c5e0ed40
#    x8: 0x0000000000000004 <- 0x00007fd2c601d2dc
[34m[DBG] [0m   Logic[1]: speculation no set pc
[34m[DBG] [0m   Scribe: retired 1 ROB entries (now: 0x7fd2c5e078c0:Done)
[34m[DBG] [0m======================================== Update[56/85] 
[34m[DBG] [0m   Fetcher: buffer.size = 2054
[34m[DBG] [0m   Logic: Branch prediction 0x7fd2c6015118 was correct: 12
[34m[DBG] [0m   Logic: Correct branch: 0x7fd2c5e078c0 succ 0x7fd2c5e07920
[34m[DBG] [0m   Logic: 0x7fd2c5e078c0 affirmed speculative RobEntry 0x7fd2c5e07920
[34m[DBG] [0m   Logic: 0x7fd2c5e078c0 enacting RobEntry 0x7fd2c5e07920
0x00007fd2c6015120  b9400fe8		ldr w8, [sp, #12]
[33m[WRN] [0m[R31] RobEntry 0x7fd2c5e07920 reads init val 0x0
[34m[DBG] [0m[MEM] read addr=0x7fd2c601d2dc len=0x4 val=0x4
[33m[WRN] [0m[0x7fd2c5e07920] filled ticket 0x7fd2c5e0e500
#    x8: 0x0000000000000004 <- 0x00007fd2c601d2dc
[34m[DBG] [0m   Logic: 0x7fd2c5e078c0 affirmed speculative RobEntry 0x7fd2c5e07980
[34m[DBG] [0m   Logic: 0x7fd2c5e078c0 enacting RobEntry 0x7fd2c5e07980
0x00007fd2c6015124  b9400be9		ldr w9, [sp, #8]
[33m[WRN] [0m[R31] RobEntry 0x7fd2c5e07980 reads init val 0x0
[34m[DBG] [0m[MEM] read addr=0x7fd2c601d2d8 len=0x4 val=0x24ea0
[33m[WRN] [0m[0x7fd2c5e07980] filled ticket 0x7fd2c5e0e630
#    x9: 0x0000000000024ea0 <- 0x00007fd2c601d2d8
[34m[DBG] [0m   Logic: 0x7fd2c5e078c0 affirmed speculative RobEntry 0x7fd2c5e079e0
[34m[DBG] [0m   Logic: 0x7fd2c5e078c0 enacting RobEntry 0x7fd2c5e079e0
0x00007fd2c6015128  1b087d28		mul w8, w9, w8
[33m[WRN] [0m[0x7fd2c5e079e0] filled ticket 0x7fd2c5e0e1a0
#    x8: 0x0000000000093a80
[34m[DBG] [0m   Logic: 0x7fd2c5e078c0 affirmed speculative RobEntry 0x7fd2c5e07a40
[34m[DBG] [0m   Logic: 0x7fd2c5e078c0 affirmed speculative RobEntry 0x7fd2c5e10320
[34m[DBG] [0m   Logic: 0x7fd2c5e078c0 enacting RobEntry 0x7fd2c5e10320
0x00007fd2c6015130  b9400fe8		ldr w8, [sp, #12]
[33m[WRN] [0m[R31] RobEntry 0x7fd2c5e10320 reads init val 0x0
[34m[DBG] [0m[MEM] read addr=0x7fd2c601d2dc len=0x4 val=0x4
[33m[WRN] [0m[0x7fd2c5e10320] filled ticket 0x7fd2c5e0ed40
#    x8: 0x0000000000000004 <- 0x00007fd2c601d2dc
[34m[DBG] [0m   Logic: 0x7fd2c5e078c0 affirmed speculative RobEntry 0x7fd2c5e10380
[34m[DBG] [0m   Logic: 0x7fd2c5e078c0 affirmed speculative RobEntry 0x7fd2c5e12260
[34m[DBG] [0m   Logic: 0x7fd2c5e078c0 affirmed speculative RobEntry 0x7fd2c5e14020
[34m[DBG] [0m   Logic: 0x7fd2c5e078c0 affirmed speculative RobEntry 0x7fd2c5e14080
[34m[DBG] [0m   Logic: instr executed ? yes: 4
[34m[DBG] [0m   Logic: rStation size <- 60, rsVacancy <- 4
[34m[DBG] [0m======================================== Sync [56/85] 
[34m[DBG] [0m======================================== Cycle End

[34m[DBG] [0m======================================== Compute[57/85]
[34m[DBG] [0mPC Offsest: 0x140
[34m[DBG] [0m   Fetcher: at: 0x7fd2c6015140 (buffer 0:2054)
[34m[DBG] [0m   Fetcher: front instr = 0x7fd2c6015140, fetched 64, tmpBuffer: 64
[34m[DBG] [0m   Decoder: front instr = 0x7fd2c6015138
[34m[DBG] [0m   Decoder: Logic reservation station is full
0x00007fd2c601512c  b9000be8		str w8, [sp, #8]
[33m[WRN] [0mRobEntry 0x7fd2c5e07a40 ready with 0x7fd2c5e0e1a0
0x00007fd2c6015134  12800009		mov w9, #0xffffffff
0x00007fd2c6015138  0b090108		add w8, w8, w9
0x00007fd2c601513c  b9000fe8		str w8, [sp, #12]
[33m[WRN] [0mRobEntry 0x7fd2c5e14020 not ready due to 0x7fd2c5e0ee00
0x00007fd2c6015140  17fffff4		b #-0x30 (addr 0x7fd2c6015110)
0x00007fd2c6015110  b9400fe8		ldr w8, [sp, #12]
0x00007fd2c6015114  7100051f		cmp w8, #0x1 (1)
0x00007fd2c6015118  54000041		b.ne #+0x8 (addr 0x7fd2c6015120)
0x00007fd2c6015120  b9400fe8		ldr w8, [sp, #12]
0x00007fd2c6015124  b9400be9		ldr w9, [sp, #8]
0x00007fd2c6015128  1b087d28		mul w8, w9, w8
0x00007fd2c601512c  b9000be8		str w8, [sp, #8]
[33m[WRN] [0mRobEntry 0x7fd2c5e1f630 not ready due to 0x7fd2c5e1d600
0x00007fd2c6015130  b9400fe8		ldr w8, [sp, #12]
0x00007fd2c6015134  12800009		mov w9, #0xffffffff
0x00007fd2c6015138  0b090108		add w8, w8, w9
0x00007fd2c601513c  b9000fe8		str w8, [sp, #12]
[33m[WRN] [0mRobEntry 0x7fd2c5e21690 not ready due to 0x7fd2c5e220c0
0x00007fd2c6015140  17fffff4		b #-0x30 (addr 0x7fd2c6015110)
0x00007fd2c6015110  b9400fe8		ldr w8, [sp, #12]
0x00007fd2c6015114  7100051f		cmp w8, #0x1 (1)
0x00007fd2c6015118  54000041		b.ne #+0x8 (addr 0x7fd2c6015120)
0x00007fd2c6015120  b9400fe8		ldr w8, [sp, #12]
0x00007fd2c6015124  b9400be9		ldr w9, [sp, #8]
0x00007fd2c6015128  1b087d28		mul w8, w9, w8
0x00007fd2c601512c  b9000be8		str w8, [sp, #8]
[33m[WRN] [0mRobEntry 0x7fd2c5e2cec0 not ready due to 0x7fd2c5c2a8a0
0x00007fd2c6015130  b9400fe8		ldr w8, [sp, #12]
0x00007fd2c6015134  12800009		mov w9, #0xffffffff
0x00007fd2c6015138  0b090108		add w8, w8, w9
0x00007fd2c601513c  b9000fe8		str w8, [sp, #12]
[33m[WRN] [0mRobEntry 0x7fd2c5c230d0 not ready due to 0x7fd2c5c207a0
0x00007fd2c6015140  17fffff4		b #-0x30 (addr 0x7fd2c6015110)
0x00007fd2c6015110  b9400fe8		ldr w8, [sp, #12]
0x00007fd2c6015114  7100051f		cmp w8, #0x1 (1)
0x00007fd2c6015118  54000041		b.ne #+0x8 (addr 0x7fd2c6015120)
0x00007fd2c6015120  b9400fe8		ldr w8, [sp, #12]
0x00007fd2c6015124  b9400be9		ldr w9, [sp, #8]
0x00007fd2c6015128  1b087d28		mul w8, w9, w8
0x00007fd2c601512c  b9000be8		str w8, [sp, #8]
[33m[WRN] [0mRobEntry 0x7fd2c5c36970 not ready due to 0x7fd2c5c34940
0x00007fd2c6015130  b9400fe8		ldr w8, [sp, #12]
0x00007fd2c6015134  12800009		mov w9, #0xffffffff
0x00007fd2c6015138  0b090108		add w8, w8, w9
0x00007fd2c601513c  b9000fe8		str w8, [sp, #12]
[33m[WRN] [0mRobEntry 0x7fd2c5c38bd0 not ready due to 0x7fd2c5c39600
0x00007fd2c6015140  17fffff4		b #-0x30 (addr 0x7fd2c6015110)
0x00007fd2c6015110  b9400fe8		ldr w8, [sp, #12]
0x00007fd2c6015114  7100051f		cmp w8, #0x1 (1)
0x00007fd2c6015118  54000041		b.ne #+0x8 (addr 0x7fd2c6015120)
0x00007fd2c6015120  b9400fe8		ldr w8, [sp, #12]
0x00007fd2c6015124  b9400be9		ldr w9, [sp, #8]
0x00007fd2c6015128  1b087d28		mul w8, w9, w8
0x00007fd2c601512c  b9000be8		str w8, [sp, #8]
[33m[WRN] [0mRobEntry 0x7fd2c5c44540 not ready due to 0x7fd2c5c42510
0x00007fd2c6015130  b9400fe8		ldr w8, [sp, #12]
0x00007fd2c6015134  12800009		mov w9, #0xffffffff
0x00007fd2c6015138  0b090108		add w8, w8, w9
0x00007fd2c601513c  b9000fe8		str w8, [sp, #12]
[33m[WRN] [0mRobEntry 0x7fd2c5c465a0 not ready due to 0x7fd2c5c46fd0
0x00007fd2c6015140  17fffff4		b #-0x30 (addr 0x7fd2c6015110)
0x00007fd2c6015110  b9400fe8		ldr w8, [sp, #12]
0x00007fd2c6015114  7100051f		cmp w8, #0x1 (1)
0x00007fd2c6015118  54000041		b.ne #+0x8 (addr 0x7fd2c6015120)
0x00007fd2c6015120  b9400fe8		ldr w8, [sp, #12]
0x00007fd2c6015124  b9400be9		ldr w9, [sp, #8]
0x00007fd2c6015128  1b087d28		mul w8, w9, w8
[33m[WRN] [0m[R9] RobCusor 0x7fd2c5c4f280 read-depends on 0x7fd2c5c4b5a0
[33m[WRN] [0m[R8] RobCusor 0x7fd2c5c4f280 read-depends on 0x7fd2c5c4b580
[33m[WRN] [0m[R9] RobCusor 0x7fd2c5c4f280 read-depends on 0x7fd2c5c4b5a0
[33m[WRN] [0m[R8] RobCusor 0x7fd2c5c4f280 read-depends on 0x7fd2c5c4b580
[33m[WRN] [0m[R9] RobCusor 0x7fd2c5c4f280 read-depends on 0x7fd2c5c4b5a0
[33m[WRN] [0m[R8] RobCusor 0x7fd2c5c4f280 read-depends on 0x7fd2c5c4b580
[33m[WRN] [0m[R8] RobCusor 0x7fd2c5c4f280 write can go ahead with ticket 0x7fd2c5c4fc70
[33m[WRN] [0m----------------------Experimental Execute--------------
[33m[WRN] [0mRobEntry 0x7fd2c5e07a40 ready with 0x7fd2c5e0e1a0
[33m[WRN] [0mRobEntry 0x7fd2c5e12260 not ready due to 0x7fd2c5e0ede0
[33m[WRN] [0mRobEntry 0x7fd2c5e16300 not ready due to 0x7fd2c5e12df0
[33m[WRN] [0mRobEntry 0x7fd2c5e182d0 not ready due to 0x7fd2c5e188f8
[33m[WRN] [0mRobEntry 0x7fd2c5e1cc10 not ready due to 0x7fd2c5e18d30
[33m[WRN] [0mRobEntry 0x7fd2c5e1f750 not ready due to 0x7fd2c5e20460
[33m[WRN] [0mRobEntry 0x7fd2c5e23a60 not ready due to 0x7fd2c5e22530
[33m[WRN] [0mRobEntry 0x7fd2c5e25b60 not ready due to 0x7fd2c5e26378
[33m[WRN] [0mRobEntry 0x7fd2c5e2a4a0 not ready due to 0x7fd2c5e267c0
[33m[WRN] [0mRobEntry 0x7fd2c5e2cfe0 not ready due to 0x7fd2c5c2a960
[33m[WRN] [0mRobEntry 0x7fd2c5c2d640 not ready due to 0x7fd2c5c2c110
[33m[WRN] [0mRobEntry 0x7fd2c5c2f610 not ready due to 0x7fd2c5c2fe28
[33m[WRN] [0mRobEntry 0x7fd2c5c33f50 not ready due to 0x7fd2c5c30270
[33m[WRN] [0mRobEntry 0x7fd2c5c36a90 not ready due to 0x7fd2c5c377a0
[33m[WRN] [0mRobEntry 0x7fd2c5c030c0 not ready due to 0x7fd2c5c39a60
[33m[WRN] [0mRobEntry 0x7fd2c5c3cf80 not ready due to 0x7fd2c5c3d788
[33m[WRN] [0mRobEntry 0x7fd2c5c41b20 not ready due to 0x7fd2c5c3dbd0
[33m[WRN] [0mRobEntry 0x7fd2c5c44660 not ready due to 0x7fd2c5c45370
[33m[WRN] [0mRobEntry 0x7fd2c5c48970 not ready due to 0x7fd2c5c47440
[33m[WRN] [0mRobEntry 0x7fd2c5c4a940 not ready due to 0x7fd2c5c4b158
[33m[WRN] [0mRobEntry 0x7fd2c5c4f280 not ready due to 0x7fd2c5c4b5a0
0x00007fd2c601512c  b9000be8		str w8, [sp, #8]
[33m[WRN] [0m[R31] RobEntry 0x7fd2c5e07a40 reads init val 0x0
[33m[WRN] [0mReal write: 0x7fd2c601d2d8, 0x93a80
#    w8:         0x00000004 -> 0x00007fd2c601d2d8
[34m[DBG] [0m   Logic[0]: newPc <- 0x7fd2c6015130
0x00007fd2c6015134  12800009		mov w9, #0xffffffff
[33m[WRN] [0m[0x7fd2c5e10380] filled ticket 0x7fd2c5e0ede0
#    x9: 0x00000000ffffffff
[34m[DBG] [0m   Logic[1]: newPc <- 0x7fd2c6015138
[34m[DBG] [0m   Scribe: retired 4 ROB entries (now: 0x7fd2c5e07a40:Done)
[34m[DBG] [0m======================================== Update[57/89] 
[34m[DBG] [0m   Fetcher: buffer.size = 2117
[34m[DBG] [0m   Logic: instr executed ? yes: 3
[34m[DBG] [0m   Logic: rStation size <- 61, rsVacancy <- 3
[34m[DBG] [0m======================================== Sync [57/89] 
[34m[DBG] [0m======================================== Cycle End

[34m[DBG] [0m======================================== Compute[58/89]
[34m[DBG] [0mPC Offsest: 0x120
[34m[DBG] [0m   Fetcher: at: 0x7fd2c6015120 (buffer 0:2117)
[34m[DBG] [0m   Fetcher: front instr = 0x7fd2c6015120, fetched 64, tmpBuffer: 64
[34m[DBG] [0m   Decoder: front instr = 0x7fd2c601513c
[34m[DBG] [0m   Decoder: Logic reservation station is full
0x00007fd2c6015138  0b090108		add w8, w8, w9
0x00007fd2c601513c  b9000fe8		str w8, [sp, #12]
[33m[WRN] [0mRobEntry 0x7fd2c5e14020 not ready due to 0x7fd2c5e0ee00
0x00007fd2c6015140  17fffff4		b #-0x30 (addr 0x7fd2c6015110)
0x00007fd2c6015110  b9400fe8		ldr w8, [sp, #12]
0x00007fd2c6015114  7100051f		cmp w8, #0x1 (1)
0x00007fd2c6015118  54000041		b.ne #+0x8 (addr 0x7fd2c6015120)
0x00007fd2c6015120  b9400fe8		ldr w8, [sp, #12]
0x00007fd2c6015124  b9400be9		ldr w9, [sp, #8]
0x00007fd2c6015128  1b087d28		mul w8, w9, w8
0x00007fd2c601512c  b9000be8		str w8, [sp, #8]
[33m[WRN] [0mRobEntry 0x7fd2c5e1f630 not ready due to 0x7fd2c5e1d600
0x00007fd2c6015130  b9400fe8		ldr w8, [sp, #12]
0x00007fd2c6015134  12800009		mov w9, #0xffffffff
0x00007fd2c6015138  0b090108		add w8, w8, w9
0x00007fd2c601513c  b9000fe8		str w8, [sp, #12]
[33m[WRN] [0mRobEntry 0x7fd2c5e21690 not ready due to 0x7fd2c5e220c0
0x00007fd2c6015140  17fffff4		b #-0x30 (addr 0x7fd2c6015110)
0x00007fd2c6015110  b9400fe8		ldr w8, [sp, #12]
0x00007fd2c6015114  7100051f		cmp w8, #0x1 (1)
0x00007fd2c6015118  54000041		b.ne #+0x8 (addr 0x7fd2c6015120)
0x00007fd2c6015120  b9400fe8		ldr w8, [sp, #12]
0x00007fd2c6015124  b9400be9		ldr w9, [sp, #8]
0x00007fd2c6015128  1b087d28		mul w8, w9, w8
0x00007fd2c601512c  b9000be8		str w8, [sp, #8]
[33m[WRN] [0mRobEntry 0x7fd2c5e2cec0 not ready due to 0x7fd2c5c2a8a0
0x00007fd2c6015130  b9400fe8		ldr w8, [sp, #12]
0x00007fd2c6015134  12800009		mov w9, #0xffffffff
0x00007fd2c6015138  0b090108		add w8, w8, w9
0x00007fd2c601513c  b9000fe8		str w8, [sp, #12]
[33m[WRN] [0mRobEntry 0x7fd2c5c230d0 not ready due to 0x7fd2c5c207a0
0x00007fd2c6015140  17fffff4		b #-0x30 (addr 0x7fd2c6015110)
0x00007fd2c6015110  b9400fe8		ldr w8, [sp, #12]
0x00007fd2c6015114  7100051f		cmp w8, #0x1 (1)
0x00007fd2c6015118  54000041		b.ne #+0x8 (addr 0x7fd2c6015120)
0x00007fd2c6015120  b9400fe8		ldr w8, [sp, #12]
0x00007fd2c6015124  b9400be9		ldr w9, [sp, #8]
0x00007fd2c6015128  1b087d28		mul w8, w9, w8
0x00007fd2c601512c  b9000be8		str w8, [sp, #8]
[33m[WRN] [0mRobEntry 0x7fd2c5c36970 not ready due to 0x7fd2c5c34940
0x00007fd2c6015130  b9400fe8		ldr w8, [sp, #12]
0x00007fd2c6015134  12800009		mov w9, #0xffffffff
0x00007fd2c6015138  0b090108		add w8, w8, w9
0x00007fd2c601513c  b9000fe8		str w8, [sp, #12]
[33m[WRN] [0mRobEntry 0x7fd2c5c38bd0 not ready due to 0x7fd2c5c39600
0x00007fd2c6015140  17fffff4		b #-0x30 (addr 0x7fd2c6015110)
0x00007fd2c6015110  b9400fe8		ldr w8, [sp, #12]
0x00007fd2c6015114  7100051f		cmp w8, #0x1 (1)
0x00007fd2c6015118  54000041		b.ne #+0x8 (addr 0x7fd2c6015120)
0x00007fd2c6015120  b9400fe8		ldr w8, [sp, #12]
0x00007fd2c6015124  b9400be9		ldr w9, [sp, #8]
0x00007fd2c6015128  1b087d28		mul w8, w9, w8
0x00007fd2c601512c  b9000be8		str w8, [sp, #8]
[33m[WRN] [0mRobEntry 0x7fd2c5c44540 not ready due to 0x7fd2c5c42510
0x00007fd2c6015130  b9400fe8		ldr w8, [sp, #12]
0x00007fd2c6015134  12800009		mov w9, #0xffffffff
0x00007fd2c6015138  0b090108		add w8, w8, w9
0x00007fd2c601513c  b9000fe8		str w8, [sp, #12]
[33m[WRN] [0mRobEntry 0x7fd2c5c465a0 not ready due to 0x7fd2c5c46fd0
0x00007fd2c6015140  17fffff4		b #-0x30 (addr 0x7fd2c6015110)
0x00007fd2c6015110  b9400fe8		ldr w8, [sp, #12]
0x00007fd2c6015114  7100051f		cmp w8, #0x1 (1)
0x00007fd2c6015118  54000041		b.ne #+0x8 (addr 0x7fd2c6015120)
0x00007fd2c6015120  b9400fe8		ldr w8, [sp, #12]
0x00007fd2c6015124  b9400be9		ldr w9, [sp, #8]
0x00007fd2c6015128  1b087d28		mul w8, w9, w8
0x00007fd2c601512c  b9000be8		str w8, [sp, #8]
[33m[WRN] [0m[R31] RobCusor 0x7fd2c5c51ca0 read can go ahead (init)
[33m[WRN] [0m[R8] RobCusor 0x7fd2c5c51ca0 read-depends on 0x7fd2c5c4fc70
[33m[WRN] [0mRobEntry 0x7fd2c5c51ca0 not ready due to 0x7fd2c5c4fc70
0x00007fd2c6015130  b9400fe8		ldr w8, [sp, #12]
[33m[WRN] [0m[R31] RobCusor 0x7fd2c5c51d00 read can go ahead (init)
[33m[WRN] [0m[R8] RobCusor 0x7fd2c5c51d00 write can go ahead with ticket 0x7fd2c5c528a0
0x00007fd2c6015134  12800009		mov w9, #0xffffffff
[33m[WRN] [0m[R9] RobCusor 0x7fd2c5c51d60 write can go ahead with ticket 0x7fd2c5c52ad0
0x00007fd2c6015138  0b090108		add w8, w8, w9
[33m[WRN] [0m[R9] RobCusor 0x7fd2c5c51dc0 read-depends on 0x7fd2c5c52ad0
[33m[WRN] [0m[R8] RobCusor 0x7fd2c5c51dc0 read-depends on 0x7fd2c5c528a0
[33m[WRN] [0m[R8] RobCusor 0x7fd2c5c51dc0 write can go ahead with ticket 0x7fd2c5c54730
[33m[WRN] [0m----------------------Experimental Execute--------------
[33m[WRN] [0mRobEntry 0x7fd2c5e12260 ready with 0x7fd2c5e0ede0
[33m[WRN] [0mRobEntry 0x7fd2c5e12260 ready with 0x7fd2c5e0ed40
[33m[WRN] [0mRobEntry 0x7fd2c5e16300 not ready due to 0x7fd2c5e12df0
[33m[WRN] [0mRobEntry 0x7fd2c5e182d0 not ready due to 0x7fd2c5e188f8
[33m[WRN] [0mRobEntry 0x7fd2c5e1cc10 not ready due to 0x7fd2c5e18d30
[33m[WRN] [0mRobEntry 0x7fd2c5e1f750 not ready due to 0x7fd2c5e20460
[33m[WRN] [0mRobEntry 0x7fd2c5e23a60 not ready due to 0x7fd2c5e22530
[33m[WRN] [0mRobEntry 0x7fd2c5e25b60 not ready due to 0x7fd2c5e26378
[33m[WRN] [0mRobEntry 0x7fd2c5e2a4a0 not ready due to 0x7fd2c5e267c0
[33m[WRN] [0mRobEntry 0x7fd2c5e2cfe0 not ready due to 0x7fd2c5c2a960
[33m[WRN] [0mRobEntry 0x7fd2c5c2d640 not ready due to 0x7fd2c5c2c110
[33m[WRN] [0mRobEntry 0x7fd2c5c2f610 not ready due to 0x7fd2c5c2fe28
[33m[WRN] [0mRobEntry 0x7fd2c5c33f50 not ready due to 0x7fd2c5c30270
[33m[WRN] [0mRobEntry 0x7fd2c5c36a90 not ready due to 0x7fd2c5c377a0
[33m[WRN] [0mRobEntry 0x7fd2c5c030c0 not ready due to 0x7fd2c5c39a60
[33m[WRN] [0mRobEntry 0x7fd2c5c3cf80 not ready due to 0x7fd2c5c3d788
[33m[WRN] [0mRobEntry 0x7fd2c5c41b20 not ready due to 0x7fd2c5c3dbd0
[33m[WRN] [0mRobEntry 0x7fd2c5c44660 not ready due to 0x7fd2c5c45370
[33m[WRN] [0mRobEntry 0x7fd2c5c48970 not ready due to 0x7fd2c5c47440
[33m[WRN] [0mRobEntry 0x7fd2c5c4a940 not ready due to 0x7fd2c5c4b158
[33m[WRN] [0mRobEntry 0x7fd2c5c4f280 not ready due to 0x7fd2c5c4b5a0
[33m[WRN] [0mRobEntry 0x7fd2c5c51dc0 not ready due to 0x7fd2c5c52ad0
0x00007fd2c6015138  0b090108		add w8, w8, w9
[33m[WRN] [0m[0x7fd2c5e12260] filled ticket 0x7fd2c5e0ee00
#    x8: 0x0000000000000003
[34m[DBG] [0m   Logic[0]: newPc <- 0x7fd2c601513c
0x00007fd2c6015140  17fffff4		b #-0x30 (addr 0x7fd2c6015110)
#    pc: 0x7fd2c6015110 (by 0x7fd2c5e14080)
[33m[WRN] [0m[0x7fd2c5e14080] filled ticket 0x7fd2c5e14be0
[34m[DBG] [0m   Logic[1]: newPc <- 0x7fd2c6015110
[34m[DBG] [0m   Scribe: retired 3 ROB entries (now: 0x7fd2c5e12260:Done)
[34m[DBG] [0m======================================== Update[58/92] 
[34m[DBG] [0m   Fetcher: buffer.size = 2177
[34m[DBG] [0m   Logic: Branch prediction 0x7fd2c6015140 was correct: 13
[34m[DBG] [0m   Logic: Correct branch: 0x7fd2c5e14080 succ 0x7fd2c5e140e0
[34m[DBG] [0m   Logic: 0x7fd2c5e14080 affirmed speculative RobEntry 0x7fd2c5e140e0
[34m[DBG] [0m   Logic: 0x7fd2c5e14080 affirmed speculative RobEntry 0x7fd2c5e16300
[34m[DBG] [0m   Logic: 0x7fd2c5e14080 affirmed speculative RobEntry 0x7fd2c5e182d0
[34m[DBG] [0m   Logic: instr executed ? yes: 1
[34m[DBG] [0m   Logic: rStation size <- 63, rsVacancy <- 1
[34m[DBG] [0m======================================== Sync [58/92] 
[34m[DBG] [0m======================================== Cycle End

[34m[DBG] [0m======================================== Compute[59/92]
[34m[DBG] [0mPC Offsest: 0x130
[34m[DBG] [0m   Fetcher: at: 0x7fd2c6015130 (buffer 0:2177)
[34m[DBG] [0m   Fetcher: front instr = 0x7fd2c6015130, fetched 64, tmpBuffer: 64
[34m[DBG] [0m   Decoder: front instr = 0x7fd2c6015118
[34m[DBG] [0m   Decoder: Logic reservation station is full
0x00007fd2c601513c  b9000fe8		str w8, [sp, #12]
[33m[WRN] [0mRobEntry 0x7fd2c5e14020 ready with 0x7fd2c5e0ee00
0x00007fd2c6015110  b9400fe8		ldr w8, [sp, #12]
0x00007fd2c6015114  7100051f		cmp w8, #0x1 (1)
0x00007fd2c6015118  54000041		b.ne #+0x8 (addr 0x7fd2c6015120)
0x00007fd2c6015120  b9400fe8		ldr w8, [sp, #12]
0x00007fd2c6015124  b9400be9		ldr w9, [sp, #8]
0x00007fd2c6015128  1b087d28		mul w8, w9, w8
0x00007fd2c601512c  b9000be8		str w8, [sp, #8]
[33m[WRN] [0mRobEntry 0x7fd2c5e1f630 not ready due to 0x7fd2c5e1d600
0x00007fd2c6015130  b9400fe8		ldr w8, [sp, #12]
0x00007fd2c6015134  12800009		mov w9, #0xffffffff
0x00007fd2c6015138  0b090108		add w8, w8, w9
0x00007fd2c601513c  b9000fe8		str w8, [sp, #12]
[33m[WRN] [0mRobEntry 0x7fd2c5e21690 not ready due to 0x7fd2c5e220c0
0x00007fd2c6015140  17fffff4		b #-0x30 (addr 0x7fd2c6015110)
0x00007fd2c6015110  b9400fe8		ldr w8, [sp, #12]
0x00007fd2c6015114  7100051f		cmp w8, #0x1 (1)
0x00007fd2c6015118  54000041		b.ne #+0x8 (addr 0x7fd2c6015120)
0x00007fd2c6015120  b9400fe8		ldr w8, [sp, #12]
0x00007fd2c6015124  b9400be9		ldr w9, [sp, #8]
0x00007fd2c6015128  1b087d28		mul w8, w9, w8
0x00007fd2c601512c  b9000be8		str w8, [sp, #8]
[33m[WRN] [0mRobEntry 0x7fd2c5e2cec0 not ready due to 0x7fd2c5c2a8a0
0x00007fd2c6015130  b9400fe8		ldr w8, [sp, #12]
0x00007fd2c6015134  12800009		mov w9, #0xffffffff
0x00007fd2c6015138  0b090108		add w8, w8, w9
0x00007fd2c601513c  b9000fe8		str w8, [sp, #12]
[33m[WRN] [0mRobEntry 0x7fd2c5c230d0 not ready due to 0x7fd2c5c207a0
0x00007fd2c6015140  17fffff4		b #-0x30 (addr 0x7fd2c6015110)
0x00007fd2c6015110  b9400fe8		ldr w8, [sp, #12]
0x00007fd2c6015114  7100051f		cmp w8, #0x1 (1)
0x00007fd2c6015118  54000041		b.ne #+0x8 (addr 0x7fd2c6015120)
0x00007fd2c6015120  b9400fe8		ldr w8, [sp, #12]
0x00007fd2c6015124  b9400be9		ldr w9, [sp, #8]
0x00007fd2c6015128  1b087d28		mul w8, w9, w8
0x00007fd2c601512c  b9000be8		str w8, [sp, #8]
[33m[WRN] [0mRobEntry 0x7fd2c5c36970 not ready due to 0x7fd2c5c34940
0x00007fd2c6015130  b9400fe8		ldr w8, [sp, #12]
0x00007fd2c6015134  12800009		mov w9, #0xffffffff
0x00007fd2c6015138  0b090108		add w8, w8, w9
0x00007fd2c601513c  b9000fe8		str w8, [sp, #12]
[33m[WRN] [0mRobEntry 0x7fd2c5c38bd0 not ready due to 0x7fd2c5c39600
0x00007fd2c6015140  17fffff4		b #-0x30 (addr 0x7fd2c6015110)
0x00007fd2c6015110  b9400fe8		ldr w8, [sp, #12]
0x00007fd2c6015114  7100051f		cmp w8, #0x1 (1)
0x00007fd2c6015118  54000041		b.ne #+0x8 (addr 0x7fd2c6015120)
0x00007fd2c6015120  b9400fe8		ldr w8, [sp, #12]
0x00007fd2c6015124  b9400be9		ldr w9, [sp, #8]
0x00007fd2c6015128  1b087d28		mul w8, w9, w8
0x00007fd2c601512c  b9000be8		str w8, [sp, #8]
[33m[WRN] [0mRobEntry 0x7fd2c5c44540 not ready due to 0x7fd2c5c42510
0x00007fd2c6015130  b9400fe8		ldr w8, [sp, #12]
0x00007fd2c6015134  12800009		mov w9, #0xffffffff
0x00007fd2c6015138  0b090108		add w8, w8, w9
0x00007fd2c601513c  b9000fe8		str w8, [sp, #12]
[33m[WRN] [0mRobEntry 0x7fd2c5c465a0 not ready due to 0x7fd2c5c46fd0
0x00007fd2c6015140  17fffff4		b #-0x30 (addr 0x7fd2c6015110)
0x00007fd2c6015110  b9400fe8		ldr w8, [sp, #12]
0x00007fd2c6015114  7100051f		cmp w8, #0x1 (1)
0x00007fd2c6015118  54000041		b.ne #+0x8 (addr 0x7fd2c6015120)
0x00007fd2c6015120  b9400fe8		ldr w8, [sp, #12]
0x00007fd2c6015124  b9400be9		ldr w9, [sp, #8]
0x00007fd2c6015128  1b087d28		mul w8, w9, w8
0x00007fd2c601512c  b9000be8		str w8, [sp, #8]
[33m[WRN] [0mRobEntry 0x7fd2c5c51ca0 not ready due to 0x7fd2c5c4fc70
0x00007fd2c6015130  b9400fe8		ldr w8, [sp, #12]
0x00007fd2c6015134  12800009		mov w9, #0xffffffff
0x00007fd2c6015138  0b090108		add w8, w8, w9
0x00007fd2c601513c  b9000fe8		str w8, [sp, #12]
[33m[WRN] [0m[R31] RobCusor 0x7fd2c5c53d00 read can go ahead (init)
[33m[WRN] [0m[R8] RobCusor 0x7fd2c5c53d00 read-depends on 0x7fd2c5c54730
[33m[WRN] [0mRobEntry 0x7fd2c5c53d00 not ready due to 0x7fd2c5c54730
0x00007fd2c6015140  17fffff4		b #-0x30 (addr 0x7fd2c6015110)
0x00007fd2c6015110  b9400fe8		ldr w8, [sp, #12]
[33m[WRN] [0m[R31] RobCusor 0x7fd2c5c53dc0 read can go ahead (init)
[33m[WRN] [0m[R8] RobCusor 0x7fd2c5c53dc0 write can go ahead with ticket 0x7fd2c5c54ba0
[33m[WRN] [0m----------------------Experimental Execute--------------
[33m[WRN] [0mRobEntry 0x7fd2c5e14020 ready with 0x7fd2c5e0ee00
[33m[WRN] [0mRobEntry 0x7fd2c5e16300 not ready due to 0x7fd2c5e12df0
[33m[WRN] [0mRobEntry 0x7fd2c5e182d0 not ready due to 0x7fd2c5e188f8
[33m[WRN] [0mRobEntry 0x7fd2c5e1cc10 not ready due to 0x7fd2c5e18d30
[33m[WRN] [0mRobEntry 0x7fd2c5e1f750 not ready due to 0x7fd2c5e20460
[33m[WRN] [0mRobEntry 0x7fd2c5e23a60 not ready due to 0x7fd2c5e22530
[33m[WRN] [0mRobEntry 0x7fd2c5e25b60 not ready due to 0x7fd2c5e26378
[33m[WRN] [0mRobEntry 0x7fd2c5e2a4a0 not ready due to 0x7fd2c5e267c0
[33m[WRN] [0mRobEntry 0x7fd2c5e2cfe0 not ready due to 0x7fd2c5c2a960
[33m[WRN] [0mRobEntry 0x7fd2c5c2d640 not ready due to 0x7fd2c5c2c110
[33m[WRN] [0mRobEntry 0x7fd2c5c2f610 not ready due to 0x7fd2c5c2fe28
[33m[WRN] [0mRobEntry 0x7fd2c5c33f50 not ready due to 0x7fd2c5c30270
[33m[WRN] [0mRobEntry 0x7fd2c5c36a90 not ready due to 0x7fd2c5c377a0
[33m[WRN] [0mRobEntry 0x7fd2c5c030c0 not ready due to 0x7fd2c5c39a60
[33m[WRN] [0mRobEntry 0x7fd2c5c3cf80 not ready due to 0x7fd2c5c3d788
[33m[WRN] [0mRobEntry 0x7fd2c5c41b20 not ready due to 0x7fd2c5c3dbd0
[33m[WRN] [0mRobEntry 0x7fd2c5c44660 not ready due to 0x7fd2c5c45370
[33m[WRN] [0mRobEntry 0x7fd2c5c48970 not ready due to 0x7fd2c5c47440
[33m[WRN] [0mRobEntry 0x7fd2c5c4a940 not ready due to 0x7fd2c5c4b158
[33m[WRN] [0mRobEntry 0x7fd2c5c4f280 not ready due to 0x7fd2c5c4b5a0
[33m[WRN] [0mRobEntry 0x7fd2c5c51dc0 not ready due to 0x7fd2c5c52ad0
0x00007fd2c601513c  b9000fe8		str w8, [sp, #12]
[33m[WRN] [0m[R31] RobEntry 0x7fd2c5e14020 reads init val 0x0
[33m[WRN] [0mReal write: 0x7fd2c601d2dc, 0x3
#    w8:         0x00000003 -> 0x00007fd2c601d2dc
[34m[DBG] [0m   Logic[0]: newPc <- 0x7fd2c6015140
0x00007fd2c6015124  b9400be9		ldr w9, [sp, #8]
[33m[WRN] [0m[R31] RobEntry 0x7fd2c5e1a250 reads init val 0x0
[34m[DBG] [0m[MEM] read addr=0x7fd2c601d2d8 len=0x4 val=0x93a80
[33m[WRN] [0m[R9] Speculative write by 0x7fd2c5e1a250 val=0x93a80
[33m[WRN] [0m[0x7fd2c5e1a250] filled ticket 0x7fd2c5e18d30
#    x9: 0x00000000ffffffff <- 0x00007fd2c601d2d8
[34m[DBG] [0m   Logic[1]: speculation no set pc
[34m[DBG] [0m   Scribe: retired 1 ROB entries (now: 0x7fd2c5e14020:Done)
[34m[DBG] [0m======================================== Update[59/93] 
[34m[DBG] [0m   Fetcher: buffer.size = 2238
[34m[DBG] [0m   Logic: instr executed ? yes: 2
[34m[DBG] [0m   Logic: rStation size <- 62, rsVacancy <- 2
[34m[DBG] [0m======================================== Sync [59/93] 
[34m[DBG] [0m======================================== Cycle End

[34m[DBG] [0m======================================== Compute[60/93]
[34m[DBG] [0mPC Offsest: 0x140
[34m[DBG] [0m   Fetcher: at: 0x7fd2c6015140 (buffer 0:2238)
[34m[DBG] [0m   Fetcher: front instr = 0x7fd2c6015140, fetched 64, tmpBuffer: 64
[34m[DBG] [0m   Decoder: front instr = 0x7fd2c6015128
[34m[DBG] [0m   Decoder: Logic reservation station is full
0x00007fd2c6015110  b9400fe8		ldr w8, [sp, #12]
0x00007fd2c6015114  7100051f		cmp w8, #0x1 (1)
0x00007fd2c6015118  54000041		b.ne #+0x8 (addr 0x7fd2c6015120)
0x00007fd2c6015120  b9400fe8		ldr w8, [sp, #12]
0x00007fd2c6015128  1b087d28		mul w8, w9, w8
0x00007fd2c601512c  b9000be8		str w8, [sp, #8]
[33m[WRN] [0mRobEntry 0x7fd2c5e1f630 not ready due to 0x7fd2c5e1d600
0x00007fd2c6015130  b9400fe8		ldr w8, [sp, #12]
0x00007fd2c6015134  12800009		mov w9, #0xffffffff
0x00007fd2c6015138  0b090108		add w8, w8, w9
0x00007fd2c601513c  b9000fe8		str w8, [sp, #12]
[33m[WRN] [0mRobEntry 0x7fd2c5e21690 not ready due to 0x7fd2c5e220c0
0x00007fd2c6015140  17fffff4		b #-0x30 (addr 0x7fd2c6015110)
0x00007fd2c6015110  b9400fe8		ldr w8, [sp, #12]
0x00007fd2c6015114  7100051f		cmp w8, #0x1 (1)
0x00007fd2c6015118  54000041		b.ne #+0x8 (addr 0x7fd2c6015120)
0x00007fd2c6015120  b9400fe8		ldr w8, [sp, #12]
0x00007fd2c6015124  b9400be9		ldr w9, [sp, #8]
0x00007fd2c6015128  1b087d28		mul w8, w9, w8
0x00007fd2c601512c  b9000be8		str w8, [sp, #8]
[33m[WRN] [0mRobEntry 0x7fd2c5e2cec0 not ready due to 0x7fd2c5c2a8a0
0x00007fd2c6015130  b9400fe8		ldr w8, [sp, #12]
0x00007fd2c6015134  12800009		mov w9, #0xffffffff
0x00007fd2c6015138  0b090108		add w8, w8, w9
0x00007fd2c601513c  b9000fe8		str w8, [sp, #12]
[33m[WRN] [0mRobEntry 0x7fd2c5c230d0 not ready due to 0x7fd2c5c207a0
0x00007fd2c6015140  17fffff4		b #-0x30 (addr 0x7fd2c6015110)
0x00007fd2c6015110  b9400fe8		ldr w8, [sp, #12]
0x00007fd2c6015114  7100051f		cmp w8, #0x1 (1)
0x00007fd2c6015118  54000041		b.ne #+0x8 (addr 0x7fd2c6015120)
0x00007fd2c6015120  b9400fe8		ldr w8, [sp, #12]
0x00007fd2c6015124  b9400be9		ldr w9, [sp, #8]
0x00007fd2c6015128  1b087d28		mul w8, w9, w8
0x00007fd2c601512c  b9000be8		str w8, [sp, #8]
[33m[WRN] [0mRobEntry 0x7fd2c5c36970 not ready due to 0x7fd2c5c34940
0x00007fd2c6015130  b9400fe8		ldr w8, [sp, #12]
0x00007fd2c6015134  12800009		mov w9, #0xffffffff
0x00007fd2c6015138  0b090108		add w8, w8, w9
0x00007fd2c601513c  b9000fe8		str w8, [sp, #12]
[33m[WRN] [0mRobEntry 0x7fd2c5c38bd0 not ready due to 0x7fd2c5c39600
0x00007fd2c6015140  17fffff4		b #-0x30 (addr 0x7fd2c6015110)
0x00007fd2c6015110  b9400fe8		ldr w8, [sp, #12]
0x00007fd2c6015114  7100051f		cmp w8, #0x1 (1)
0x00007fd2c6015118  54000041		b.ne #+0x8 (addr 0x7fd2c6015120)
0x00007fd2c6015120  b9400fe8		ldr w8, [sp, #12]
0x00007fd2c6015124  b9400be9		ldr w9, [sp, #8]
0x00007fd2c6015128  1b087d28		mul w8, w9, w8
0x00007fd2c601512c  b9000be8		str w8, [sp, #8]
[33m[WRN] [0mRobEntry 0x7fd2c5c44540 not ready due to 0x7fd2c5c42510
0x00007fd2c6015130  b9400fe8		ldr w8, [sp, #12]
0x00007fd2c6015134  12800009		mov w9, #0xffffffff
0x00007fd2c6015138  0b090108		add w8, w8, w9
0x00007fd2c601513c  b9000fe8		str w8, [sp, #12]
[33m[WRN] [0mRobEntry 0x7fd2c5c465a0 not ready due to 0x7fd2c5c46fd0
0x00007fd2c6015140  17fffff4		b #-0x30 (addr 0x7fd2c6015110)
0x00007fd2c6015110  b9400fe8		ldr w8, [sp, #12]
0x00007fd2c6015114  7100051f		cmp w8, #0x1 (1)
0x00007fd2c6015118  54000041		b.ne #+0x8 (addr 0x7fd2c6015120)
0x00007fd2c6015120  b9400fe8		ldr w8, [sp, #12]
0x00007fd2c6015124  b9400be9		ldr w9, [sp, #8]
0x00007fd2c6015128  1b087d28		mul w8, w9, w8
0x00007fd2c601512c  b9000be8		str w8, [sp, #8]
[33m[WRN] [0mRobEntry 0x7fd2c5c51ca0 not ready due to 0x7fd2c5c4fc70
0x00007fd2c6015130  b9400fe8		ldr w8, [sp, #12]
0x00007fd2c6015134  12800009		mov w9, #0xffffffff
0x00007fd2c6015138  0b090108		add w8, w8, w9
0x00007fd2c601513c  b9000fe8		str w8, [sp, #12]
[33m[WRN] [0mRobEntry 0x7fd2c5c53d00 not ready due to 0x7fd2c5c54730
0x00007fd2c6015140  17fffff4		b #-0x30 (addr 0x7fd2c6015110)
0x00007fd2c6015110  b9400fe8		ldr w8, [sp, #12]
0x00007fd2c6015114  7100051f		cmp w8, #0x1 (1)
[33m[WRN] [0m[R8] RobCusor 0x7fd2c5c560d0 read-depends on 0x7fd2c5c54ba0
[33m[WRN] [0m[NZCV] RobCusor 0x7fd2c5c560d0 write can go ahead with ticket 0x7fd2c5c56bc0
[33m[WRN] [0m[NZCV] RobCusor 0x7fd2c5c560d0 write can go ahead with ticket 0x7fd2c5c56e08
[33m[WRN] [0m[NZCV] RobCusor 0x7fd2c5c560d0 write can go ahead with ticket 0x7fd2c5c588a0
[33m[WRN] [0m[NZCV] RobCusor 0x7fd2c5c560d0 write can go ahead with ticket 0x7fd2c5c588b8
[33m[WRN] [0m----------------------Experimental Execute--------------
[33m[WRN] [0mRobEntry 0x7fd2c5e16300 not ready due to 0x7fd2c5e12df0
[33m[WRN] [0mRobEntry 0x7fd2c5e182d0 not ready due to 0x7fd2c5e188f8
[33m[WRN] [0mRobEntry 0x7fd2c5e1cc10 ready with 0x7fd2c5e18d30
[33m[WRN] [0mRobEntry 0x7fd2c5e1cc10 not ready due to 0x7fd2c5e18d10
[33m[WRN] [0mRobEntry 0x7fd2c5e1f750 not ready due to 0x7fd2c5e20460
[33m[WRN] [0mRobEntry 0x7fd2c5e23a60 not ready due to 0x7fd2c5e22530
[33m[WRN] [0mRobEntry 0x7fd2c5e25b60 not ready due to 0x7fd2c5e26378
[33m[WRN] [0mRobEntry 0x7fd2c5e2a4a0 not ready due to 0x7fd2c5e267c0
[33m[WRN] [0mRobEntry 0x7fd2c5e2cfe0 not ready due to 0x7fd2c5c2a960
[33m[WRN] [0mRobEntry 0x7fd2c5c2d640 not ready due to 0x7fd2c5c2c110
[33m[WRN] [0mRobEntry 0x7fd2c5c2f610 not ready due to 0x7fd2c5c2fe28
[33m[WRN] [0mRobEntry 0x7fd2c5c33f50 not ready due to 0x7fd2c5c30270
[33m[WRN] [0mRobEntry 0x7fd2c5c36a90 not ready due to 0x7fd2c5c377a0
[33m[WRN] [0mRobEntry 0x7fd2c5c030c0 not ready due to 0x7fd2c5c39a60
[33m[WRN] [0mRobEntry 0x7fd2c5c3cf80 not ready due to 0x7fd2c5c3d788
[33m[WRN] [0mRobEntry 0x7fd2c5c41b20 not ready due to 0x7fd2c5c3dbd0
[33m[WRN] [0mRobEntry 0x7fd2c5c44660 not ready due to 0x7fd2c5c45370
[33m[WRN] [0mRobEntry 0x7fd2c5c48970 not ready due to 0x7fd2c5c47440
[33m[WRN] [0mRobEntry 0x7fd2c5c4a940 not ready due to 0x7fd2c5c4b158
[33m[WRN] [0mRobEntry 0x7fd2c5c4f280 not ready due to 0x7fd2c5c4b5a0
[33m[WRN] [0mRobEntry 0x7fd2c5c51dc0 not ready due to 0x7fd2c5c52ad0
[33m[WRN] [0mRobEntry 0x7fd2c5c560d0 not ready due to 0x7fd2c5c54ba0
0x00007fd2c6015110  b9400fe8		ldr w8, [sp, #12]
[33m[WRN] [0m[R31] RobEntry 0x7fd2c5e140e0 reads init val 0x0
[34m[DBG] [0m[MEM] read addr=0x7fd2c601d2dc len=0x4 val=0x3
[33m[WRN] [0m[0x7fd2c5e140e0] filled ticket 0x7fd2c5e12df0
#    x8: 0x0000000000000003 <- 0x00007fd2c601d2dc
[34m[DBG] [0m   Logic[0]: newPc <- 0x7fd2c6015114
0x00007fd2c6015120  b9400fe8		ldr w8, [sp, #12]
[33m[WRN] [0m[R31] RobEntry 0x7fd2c5e100a0 reads init val 0x0
[34m[DBG] [0m[MEM] read addr=0x7fd2c601d2dc len=0x4 val=0x3
[33m[WRN] [0m[R8] Speculative write by 0x7fd2c5e100a0 val=0x3
[33m[WRN] [0m[0x7fd2c5e100a0] filled ticket 0x7fd2c5e18d10
#    x8: 0x0000000000000003 <- 0x00007fd2c601d2dc
[34m[DBG] [0m   Logic[1]: speculation no set pc
[34m[DBG] [0m   Scribe: retired 2 ROB entries (now: 0x7fd2c5e140e0:Done)
[34m[DBG] [0m======================================== Update[60/95] 
[34m[DBG] [0m   Fetcher: buffer.size = 2301
[34m[DBG] [0m   Logic: instr executed ? yes: 1
[34m[DBG] [0m   Logic: rStation size <- 63, rsVacancy <- 1
[34m[DBG] [0m======================================== Sync [60/95] 
[34m[DBG] [0m======================================== Cycle End

[34m[DBG] [0m======================================== Compute[61/95]
[34m[DBG] [0mPC Offsest: 0x120
[34m[DBG] [0m   Fetcher: at: 0x7fd2c6015120 (buffer 0:2301)
[34m[DBG] [0m   Fetcher: front instr = 0x7fd2c6015120, fetched 64, tmpBuffer: 64
[34m[DBG] [0m   Decoder: front instr = 0x7fd2c601512c
[34m[DBG] [0m   Decoder: Logic reservation station is full
0x00007fd2c6015114  7100051f		cmp w8, #0x1 (1)
0x00007fd2c6015118  54000041		b.ne #+0x8 (addr 0x7fd2c6015120)
0x00007fd2c6015128  1b087d28		mul w8, w9, w8
0x00007fd2c601512c  b9000be8		str w8, [sp, #8]
[33m[WRN] [0mRobEntry 0x7fd2c5e1f630 not ready due to 0x7fd2c5e1d600
0x00007fd2c6015130  b9400fe8		ldr w8, [sp, #12]
0x00007fd2c6015134  12800009		mov w9, #0xffffffff
0x00007fd2c6015138  0b090108		add w8, w8, w9
0x00007fd2c601513c  b9000fe8		str w8, [sp, #12]
[33m[WRN] [0mRobEntry 0x7fd2c5e21690 not ready due to 0x7fd2c5e220c0
0x00007fd2c6015140  17fffff4		b #-0x30 (addr 0x7fd2c6015110)
0x00007fd2c6015110  b9400fe8		ldr w8, [sp, #12]
0x00007fd2c6015114  7100051f		cmp w8, #0x1 (1)
0x00007fd2c6015118  54000041		b.ne #+0x8 (addr 0x7fd2c6015120)
0x00007fd2c6015120  b9400fe8		ldr w8, [sp, #12]
0x00007fd2c6015124  b9400be9		ldr w9, [sp, #8]
0x00007fd2c6015128  1b087d28		mul w8, w9, w8
0x00007fd2c601512c  b9000be8		str w8, [sp, #8]
[33m[WRN] [0mRobEntry 0x7fd2c5e2cec0 not ready due to 0x7fd2c5c2a8a0
0x00007fd2c6015130  b9400fe8		ldr w8, [sp, #12]
0x00007fd2c6015134  12800009		mov w9, #0xffffffff
0x00007fd2c6015138  0b090108		add w8, w8, w9
0x00007fd2c601513c  b9000fe8		str w8, [sp, #12]
[33m[WRN] [0mRobEntry 0x7fd2c5c230d0 not ready due to 0x7fd2c5c207a0
0x00007fd2c6015140  17fffff4		b #-0x30 (addr 0x7fd2c6015110)
0x00007fd2c6015110  b9400fe8		ldr w8, [sp, #12]
0x00007fd2c6015114  7100051f		cmp w8, #0x1 (1)
0x00007fd2c6015118  54000041		b.ne #+0x8 (addr 0x7fd2c6015120)
0x00007fd2c6015120  b9400fe8		ldr w8, [sp, #12]
0x00007fd2c6015124  b9400be9		ldr w9, [sp, #8]
0x00007fd2c6015128  1b087d28		mul w8, w9, w8
0x00007fd2c601512c  b9000be8		str w8, [sp, #8]
[33m[WRN] [0mRobEntry 0x7fd2c5c36970 not ready due to 0x7fd2c5c34940
0x00007fd2c6015130  b9400fe8		ldr w8, [sp, #12]
0x00007fd2c6015134  12800009		mov w9, #0xffffffff
0x00007fd2c6015138  0b090108		add w8, w8, w9
0x00007fd2c601513c  b9000fe8		str w8, [sp, #12]
[33m[WRN] [0mRobEntry 0x7fd2c5c38bd0 not ready due to 0x7fd2c5c39600
0x00007fd2c6015140  17fffff4		b #-0x30 (addr 0x7fd2c6015110)
0x00007fd2c6015110  b9400fe8		ldr w8, [sp, #12]
0x00007fd2c6015114  7100051f		cmp w8, #0x1 (1)
0x00007fd2c6015118  54000041		b.ne #+0x8 (addr 0x7fd2c6015120)
0x00007fd2c6015120  b9400fe8		ldr w8, [sp, #12]
0x00007fd2c6015124  b9400be9		ldr w9, [sp, #8]
0x00007fd2c6015128  1b087d28		mul w8, w9, w8
0x00007fd2c601512c  b9000be8		str w8, [sp, #8]
[33m[WRN] [0mRobEntry 0x7fd2c5c44540 not ready due to 0x7fd2c5c42510
0x00007fd2c6015130  b9400fe8		ldr w8, [sp, #12]
0x00007fd2c6015134  12800009		mov w9, #0xffffffff
0x00007fd2c6015138  0b090108		add w8, w8, w9
0x00007fd2c601513c  b9000fe8		str w8, [sp, #12]
[33m[WRN] [0mRobEntry 0x7fd2c5c465a0 not ready due to 0x7fd2c5c46fd0
0x00007fd2c6015140  17fffff4		b #-0x30 (addr 0x7fd2c6015110)
0x00007fd2c6015110  b9400fe8		ldr w8, [sp, #12]
0x00007fd2c6015114  7100051f		cmp w8, #0x1 (1)
0x00007fd2c6015118  54000041		b.ne #+0x8 (addr 0x7fd2c6015120)
0x00007fd2c6015120  b9400fe8		ldr w8, [sp, #12]
0x00007fd2c6015124  b9400be9		ldr w9, [sp, #8]
0x00007fd2c6015128  1b087d28		mul w8, w9, w8
0x00007fd2c601512c  b9000be8		str w8, [sp, #8]
[33m[WRN] [0mRobEntry 0x7fd2c5c51ca0 not ready due to 0x7fd2c5c4fc70
0x00007fd2c6015130  b9400fe8		ldr w8, [sp, #12]
0x00007fd2c6015134  12800009		mov w9, #0xffffffff
0x00007fd2c6015138  0b090108		add w8, w8, w9
0x00007fd2c601513c  b9000fe8		str w8, [sp, #12]
[33m[WRN] [0mRobEntry 0x7fd2c5c53d00 not ready due to 0x7fd2c5c54730
0x00007fd2c6015140  17fffff4		b #-0x30 (addr 0x7fd2c6015110)
0x00007fd2c6015110  b9400fe8		ldr w8, [sp, #12]
0x00007fd2c6015114  7100051f		cmp w8, #0x1 (1)
0x00007fd2c6015118  54000041		b.ne #+0x8 (addr 0x7fd2c6015120)
[33m[WRN] [0m[NZCV] RobCusor 0x7fd2c5c580a0 read-depends on 0x7fd2c5c588b8
0x00007fd2c6015120  b9400fe8		ldr w8, [sp, #12]
[33m[WRN] [0m[R31] RobCusor 0x7fd2c5c58100 read can go ahead (init)
[33m[WRN] [0m[R8] RobCusor 0x7fd2c5c58100 write can go ahead with ticket 0x7fd2c5c58ce0
[33m[WRN] [0m----------------------Experimental Execute--------------
[33m[WRN] [0mRobEntry 0x7fd2c5e16300 ready with 0x7fd2c5e12df0
[33m[WRN] [0mRobEntry 0x7fd2c5e182d0 not ready due to 0x7fd2c5e188f8
[33m[WRN] [0mRobEntry 0x7fd2c5e1cc10 ready with 0x7fd2c5e18d30
[33m[WRN] [0mRobEntry 0x7fd2c5e1cc10 ready with 0x7fd2c5e18d10
[33m[WRN] [0mRobEntry 0x7fd2c5e1cc10 ready with 0x7fd2c5e18d30
[33m[WRN] [0mRobEntry 0x7fd2c5e1cc10 ready with 0x7fd2c5e18d10
[33m[WRN] [0mRobEntry 0x7fd2c5e1cc10 ready with 0x7fd2c5e18d30
[33m[WRN] [0mRobEntry 0x7fd2c5e1cc10 ready with 0x7fd2c5e18d10
[33m[WRN] [0mRobEntry 0x7fd2c5e1f750 not ready due to 0x7fd2c5e20460
[33m[WRN] [0mRobEntry 0x7fd2c5e23a60 not ready due to 0x7fd2c5e22530
[33m[WRN] [0mRobEntry 0x7fd2c5e25b60 not ready due to 0x7fd2c5e26378
[33m[WRN] [0mRobEntry 0x7fd2c5e2a4a0 not ready due to 0x7fd2c5e267c0
[33m[WRN] [0mRobEntry 0x7fd2c5e2cfe0 not ready due to 0x7fd2c5c2a960
[33m[WRN] [0mRobEntry 0x7fd2c5c2d640 not ready due to 0x7fd2c5c2c110
[33m[WRN] [0mRobEntry 0x7fd2c5c2f610 not ready due to 0x7fd2c5c2fe28
[33m[WRN] [0mRobEntry 0x7fd2c5c33f50 not ready due to 0x7fd2c5c30270
[33m[WRN] [0mRobEntry 0x7fd2c5c36a90 not ready due to 0x7fd2c5c377a0
[33m[WRN] [0mRobEntry 0x7fd2c5c030c0 not ready due to 0x7fd2c5c39a60
[33m[WRN] [0mRobEntry 0x7fd2c5c3cf80 not ready due to 0x7fd2c5c3d788
[33m[WRN] [0mRobEntry 0x7fd2c5c41b20 not ready due to 0x7fd2c5c3dbd0
[33m[WRN] [0mRobEntry 0x7fd2c5c44660 not ready due to 0x7fd2c5c45370
[33m[WRN] [0mRobEntry 0x7fd2c5c48970 not ready due to 0x7fd2c5c47440
[33m[WRN] [0mRobEntry 0x7fd2c5c4a940 not ready due to 0x7fd2c5c4b158
[33m[WRN] [0mRobEntry 0x7fd2c5c4f280 not ready due to 0x7fd2c5c4b5a0
[33m[WRN] [0mRobEntry 0x7fd2c5c51dc0 not ready due to 0x7fd2c5c52ad0
[33m[WRN] [0mRobEntry 0x7fd2c5c560d0 not ready due to 0x7fd2c5c54ba0
[33m[WRN] [0mRobEntry 0x7fd2c5c580a0 not ready due to 0x7fd2c5c588b8
0x00007fd2c6015114  7100051f		cmp w8, #0x1 (1)
[33m[WRN] [0m[0x7fd2c5e16300] filled ticket 0x7fd2c5e188b0
[33m[WRN] [0m[0x7fd2c5e16300] filled ticket 0x7fd2c5e188c8
[33m[WRN] [0m[0x7fd2c5e16300] filled ticket 0x7fd2c5e188e0
[33m[WRN] [0m[0x7fd2c5e16300] filled ticket 0x7fd2c5e188f8
[33m[WRN] [0m[0x7fd2c5e16300] filled ticket 0x7fd2c5e188b0
[33m[WRN] [0m[0x7fd2c5e16300] filled ticket 0x7fd2c5e188c8
[33m[WRN] [0m[0x7fd2c5e16300] filled ticket 0x7fd2c5e188e0
[33m[WRN] [0m[0x7fd2c5e16300] filled ticket 0x7fd2c5e188f8
[33m[WRN] [0m[0x7fd2c5e16300] filled ticket 0x7fd2c5e188b0
[33m[WRN] [0m[0x7fd2c5e16300] filled ticket 0x7fd2c5e188c8
[33m[WRN] [0m[0x7fd2c5e16300] filled ticket 0x7fd2c5e188e0
[33m[WRN] [0m[0x7fd2c5e16300] filled ticket 0x7fd2c5e188f8
[33m[WRN] [0m[0x7fd2c5e16300] filled ticket 0x7fd2c5e188b0
[33m[WRN] [0m[0x7fd2c5e16300] filled ticket 0x7fd2c5e188c8
[33m[WRN] [0m[0x7fd2c5e16300] filled ticket 0x7fd2c5e188e0
[33m[WRN] [0m[0x7fd2c5e16300] filled ticket 0x7fd2c5e188f8
# NZCV: N:0 Z:0 C:1 V:0
[34m[DBG] [0m   Logic[0]: newPc <- 0x7fd2c6015118
0x00007fd2c6015128  1b087d28		mul w8, w9, w8
[33m[WRN] [0m[R8] Speculative write by 0x7fd2c5e1cc10 val=0x2fffffffd
[33m[WRN] [0m[0x7fd2c5e1cc10] filled ticket 0x7fd2c5e1d600
#    x8: 0x0000000000000003
[34m[DBG] [0m   Logic[1]: speculation no set pc
[34m[DBG] [0m   Scribe: retired 1 ROB entries (now: 0x7fd2c5e16300:Done)
[34m[DBG] [0m======================================== Update[61/96] 
[34m[DBG] [0m   Fetcher: buffer.size = 2363
[34m[DBG] [0m   Logic: instr executed ? yes: 1
[34m[DBG] [0m   Logic: rStation size <- 63, rsVacancy <- 1
[34m[DBG] [0m======================================== Sync [61/96] 
[34m[DBG] [0m======================================== Cycle End

[34m[DBG] [0m======================================== Compute[62/96]
[34m[DBG] [0mPC Offsest: 0x130
[34m[DBG] [0m   Fetcher: at: 0x7fd2c6015130 (buffer 0:2363)
[34m[DBG] [0m   Fetcher: front instr = 0x7fd2c6015130, fetched 64, tmpBuffer: 64
[34m[DBG] [0m   Decoder: front instr = 0x7fd2c6015134
[34m[DBG] [0m   Decoder: Logic reservation station is full
0x00007fd2c6015118  54000041		b.ne #+0x8 (addr 0x7fd2c6015120)
0x00007fd2c601512c  b9000be8		str w8, [sp, #8]
[33m[WRN] [0mRobEntry 0x7fd2c5e1f630 ready with 0x7fd2c5e1d600
0x00007fd2c6015130  b9400fe8		ldr w8, [sp, #12]
0x00007fd2c6015134  12800009		mov w9, #0xffffffff
0x00007fd2c6015138  0b090108		add w8, w8, w9
0x00007fd2c601513c  b9000fe8		str w8, [sp, #12]
[33m[WRN] [0mRobEntry 0x7fd2c5e21690 not ready due to 0x7fd2c5e220c0
0x00007fd2c6015140  17fffff4		b #-0x30 (addr 0x7fd2c6015110)
0x00007fd2c6015110  b9400fe8		ldr w8, [sp, #12]
0x00007fd2c6015114  7100051f		cmp w8, #0x1 (1)
0x00007fd2c6015118  54000041		b.ne #+0x8 (addr 0x7fd2c6015120)
0x00007fd2c6015120  b9400fe8		ldr w8, [sp, #12]
0x00007fd2c6015124  b9400be9		ldr w9, [sp, #8]
0x00007fd2c6015128  1b087d28		mul w8, w9, w8
0x00007fd2c601512c  b9000be8		str w8, [sp, #8]
[33m[WRN] [0mRobEntry 0x7fd2c5e2cec0 not ready due to 0x7fd2c5c2a8a0
0x00007fd2c6015130  b9400fe8		ldr w8, [sp, #12]
0x00007fd2c6015134  12800009		mov w9, #0xffffffff
0x00007fd2c6015138  0b090108		add w8, w8, w9
0x00007fd2c601513c  b9000fe8		str w8, [sp, #12]
[33m[WRN] [0mRobEntry 0x7fd2c5c230d0 not ready due to 0x7fd2c5c207a0
0x00007fd2c6015140  17fffff4		b #-0x30 (addr 0x7fd2c6015110)
0x00007fd2c6015110  b9400fe8		ldr w8, [sp, #12]
0x00007fd2c6015114  7100051f		cmp w8, #0x1 (1)
0x00007fd2c6015118  54000041		b.ne #+0x8 (addr 0x7fd2c6015120)
0x00007fd2c6015120  b9400fe8		ldr w8, [sp, #12]
0x00007fd2c6015124  b9400be9		ldr w9, [sp, #8]
0x00007fd2c6015128  1b087d28		mul w8, w9, w8
0x00007fd2c601512c  b9000be8		str w8, [sp, #8]
[33m[WRN] [0mRobEntry 0x7fd2c5c36970 not ready due to 0x7fd2c5c34940
0x00007fd2c6015130  b9400fe8		ldr w8, [sp, #12]
0x00007fd2c6015134  12800009		mov w9, #0xffffffff
0x00007fd2c6015138  0b090108		add w8, w8, w9
0x00007fd2c601513c  b9000fe8		str w8, [sp, #12]
[33m[WRN] [0mRobEntry 0x7fd2c5c38bd0 not ready due to 0x7fd2c5c39600
0x00007fd2c6015140  17fffff4		b #-0x30 (addr 0x7fd2c6015110)
0x00007fd2c6015110  b9400fe8		ldr w8, [sp, #12]
0x00007fd2c6015114  7100051f		cmp w8, #0x1 (1)
0x00007fd2c6015118  54000041		b.ne #+0x8 (addr 0x7fd2c6015120)
0x00007fd2c6015120  b9400fe8		ldr w8, [sp, #12]
0x00007fd2c6015124  b9400be9		ldr w9, [sp, #8]
0x00007fd2c6015128  1b087d28		mul w8, w9, w8
0x00007fd2c601512c  b9000be8		str w8, [sp, #8]
[33m[WRN] [0mRobEntry 0x7fd2c5c44540 not ready due to 0x7fd2c5c42510
0x00007fd2c6015130  b9400fe8		ldr w8, [sp, #12]
0x00007fd2c6015134  12800009		mov w9, #0xffffffff
0x00007fd2c6015138  0b090108		add w8, w8, w9
0x00007fd2c601513c  b9000fe8		str w8, [sp, #12]
[33m[WRN] [0mRobEntry 0x7fd2c5c465a0 not ready due to 0x7fd2c5c46fd0
0x00007fd2c6015140  17fffff4		b #-0x30 (addr 0x7fd2c6015110)
0x00007fd2c6015110  b9400fe8		ldr w8, [sp, #12]
0x00007fd2c6015114  7100051f		cmp w8, #0x1 (1)
0x00007fd2c6015118  54000041		b.ne #+0x8 (addr 0x7fd2c6015120)
0x00007fd2c6015120  b9400fe8		ldr w8, [sp, #12]
0x00007fd2c6015124  b9400be9		ldr w9, [sp, #8]
0x00007fd2c6015128  1b087d28		mul w8, w9, w8
0x00007fd2c601512c  b9000be8		str w8, [sp, #8]
[33m[WRN] [0mRobEntry 0x7fd2c5c51ca0 not ready due to 0x7fd2c5c4fc70
0x00007fd2c6015130  b9400fe8		ldr w8, [sp, #12]
0x00007fd2c6015134  12800009		mov w9, #0xffffffff
0x00007fd2c6015138  0b090108		add w8, w8, w9
0x00007fd2c601513c  b9000fe8		str w8, [sp, #12]
[33m[WRN] [0mRobEntry 0x7fd2c5c53d00 not ready due to 0x7fd2c5c54730
0x00007fd2c6015140  17fffff4		b #-0x30 (addr 0x7fd2c6015110)
0x00007fd2c6015110  b9400fe8		ldr w8, [sp, #12]
0x00007fd2c6015114  7100051f		cmp w8, #0x1 (1)
0x00007fd2c6015118  54000041		b.ne #+0x8 (addr 0x7fd2c6015120)
0x00007fd2c6015120  b9400fe8		ldr w8, [sp, #12]
0x00007fd2c6015124  b9400be9		ldr w9, [sp, #8]
[33m[WRN] [0m[R31] RobCusor 0x7fd2c5c5a220 read can go ahead (init)
[33m[WRN] [0m[R9] RobCusor 0x7fd2c5c5a220 write can go ahead with ticket 0x7fd2c5d00110
[33m[WRN] [0m----------------------Experimental Execute--------------
[33m[WRN] [0mRobEntry 0x7fd2c5e182d0 ready with 0x7fd2c5e188f8
[33m[WRN] [0mRobEntry 0x7fd2c5e1f750 not ready due to 0x7fd2c5e20460
[33m[WRN] [0mRobEntry 0x7fd2c5e23a60 not ready due to 0x7fd2c5e22530
[33m[WRN] [0mRobEntry 0x7fd2c5e25b60 not ready due to 0x7fd2c5e26378
[33m[WRN] [0mRobEntry 0x7fd2c5e2a4a0 not ready due to 0x7fd2c5e267c0
[33m[WRN] [0mRobEntry 0x7fd2c5e2cfe0 not ready due to 0x7fd2c5c2a960
[33m[WRN] [0mRobEntry 0x7fd2c5c2d640 not ready due to 0x7fd2c5c2c110
[33m[WRN] [0mRobEntry 0x7fd2c5c2f610 not ready due to 0x7fd2c5c2fe28
[33m[WRN] [0mRobEntry 0x7fd2c5c33f50 not ready due to 0x7fd2c5c30270
[33m[WRN] [0mRobEntry 0x7fd2c5c36a90 not ready due to 0x7fd2c5c377a0
[33m[WRN] [0mRobEntry 0x7fd2c5c030c0 not ready due to 0x7fd2c5c39a60
[33m[WRN] [0mRobEntry 0x7fd2c5c3cf80 not ready due to 0x7fd2c5c3d788
[33m[WRN] [0mRobEntry 0x7fd2c5c41b20 not ready due to 0x7fd2c5c3dbd0
[33m[WRN] [0mRobEntry 0x7fd2c5c44660 not ready due to 0x7fd2c5c45370
[33m[WRN] [0mRobEntry 0x7fd2c5c48970 not ready due to 0x7fd2c5c47440
[33m[WRN] [0mRobEntry 0x7fd2c5c4a940 not ready due to 0x7fd2c5c4b158
[33m[WRN] [0mRobEntry 0x7fd2c5c4f280 not ready due to 0x7fd2c5c4b5a0
[33m[WRN] [0mRobEntry 0x7fd2c5c51dc0 not ready due to 0x7fd2c5c52ad0
[33m[WRN] [0mRobEntry 0x7fd2c5c560d0 not ready due to 0x7fd2c5c54ba0
[33m[WRN] [0mRobEntry 0x7fd2c5c580a0 not ready due to 0x7fd2c5c588b8
0x00007fd2c6015118  54000041		b.ne #+0x8 (addr 0x7fd2c6015120)
#    pc: 0x7fd2c6015120 (by 0x7fd2c5e182d0)
[33m[WRN] [0m[0x7fd2c5e182d0] filled ticket 0x7fd2c5e17010
[34m[DBG] [0m   Logic[0]: newPc <- 0x7fd2c6015120
0x00007fd2c6015130  b9400fe8		ldr w8, [sp, #12]
[33m[WRN] [0m[R31] RobEntry 0x7fd2c5e1f690 reads init val 0x0
[34m[DBG] [0m[MEM] read addr=0x7fd2c601d2dc len=0x4 val=0x3
[33m[WRN] [0m[R8] Speculative write by 0x7fd2c5e1f690 val=0x3
[33m[WRN] [0m[0x7fd2c5e1f690] filled ticket 0x7fd2c5e20230
#    x8: 0x0000000000000003 <- 0x00007fd2c601d2dc
[34m[DBG] [0m   Logic[1]: speculation no set pc
[34m[DBG] [0m   Scribe: retired 1 ROB entries (now: 0x7fd2c5e182d0:Done)
[34m[DBG] [0m======================================== Update[62/97] 
[34m[DBG] [0m   Fetcher: buffer.size = 2426
[34m[DBG] [0m   Logic: Branch prediction 0x7fd2c6015118 was correct: 14
[34m[DBG] [0m   Logic: Correct branch: 0x7fd2c5e182d0 succ 0x7fd2c5e100a0
[34m[DBG] [0m   Logic: 0x7fd2c5e182d0 affirmed speculative RobEntry 0x7fd2c5e100a0
[34m[DBG] [0m   Logic: 0x7fd2c5e182d0 enacting RobEntry 0x7fd2c5e100a0
0x00007fd2c6015120  b9400fe8		ldr w8, [sp, #12]
[33m[WRN] [0m[R31] RobEntry 0x7fd2c5e100a0 reads init val 0x0
[34m[DBG] [0m[MEM] read addr=0x7fd2c601d2dc len=0x4 val=0x3
[33m[WRN] [0m[0x7fd2c5e100a0] filled ticket 0x7fd2c5e18d10
#    x8: 0x0000000000000003 <- 0x00007fd2c601d2dc
[34m[DBG] [0m   Logic: 0x7fd2c5e182d0 affirmed speculative RobEntry 0x7fd2c5e1a250
[34m[DBG] [0m   Logic: 0x7fd2c5e182d0 enacting RobEntry 0x7fd2c5e1a250
0x00007fd2c6015124  b9400be9		ldr w9, [sp, #8]
[33m[WRN] [0m[R31] RobEntry 0x7fd2c5e1a250 reads init val 0x0
[34m[DBG] [0m[MEM] read addr=0x7fd2c601d2d8 len=0x4 val=0x93a80
[33m[WRN] [0m[0x7fd2c5e1a250] filled ticket 0x7fd2c5e18d30
#    x9: 0x0000000000093a80 <- 0x00007fd2c601d2d8
[34m[DBG] [0m   Logic: 0x7fd2c5e182d0 affirmed speculative RobEntry 0x7fd2c5e1cc10
[34m[DBG] [0m   Logic: 0x7fd2c5e182d0 enacting RobEntry 0x7fd2c5e1cc10
0x00007fd2c6015128  1b087d28		mul w8, w9, w8
[33m[WRN] [0m[0x7fd2c5e1cc10] filled ticket 0x7fd2c5e1d600
#    x8: 0x00000000001baf80
[34m[DBG] [0m   Logic: 0x7fd2c5e182d0 affirmed speculative RobEntry 0x7fd2c5e1f630
[34m[DBG] [0m   Logic: 0x7fd2c5e182d0 affirmed speculative RobEntry 0x7fd2c5e1f690
[34m[DBG] [0m   Logic: 0x7fd2c5e182d0 enacting RobEntry 0x7fd2c5e1f690
0x00007fd2c6015130  b9400fe8		ldr w8, [sp, #12]
[33m[WRN] [0m[R31] RobEntry 0x7fd2c5e1f690 reads init val 0x0
[34m[DBG] [0m[MEM] read addr=0x7fd2c601d2dc len=0x4 val=0x3
[33m[WRN] [0m[0x7fd2c5e1f690] filled ticket 0x7fd2c5e20230
#    x8: 0x0000000000000003 <- 0x00007fd2c601d2dc
[34m[DBG] [0m   Logic: 0x7fd2c5e182d0 affirmed speculative RobEntry 0x7fd2c5e1f6f0
[34m[DBG] [0m   Logic: 0x7fd2c5e182d0 affirmed speculative RobEntry 0x7fd2c5e1f750
[34m[DBG] [0m   Logic: 0x7fd2c5e182d0 affirmed speculative RobEntry 0x7fd2c5e21690
[34m[DBG] [0m   Logic: 0x7fd2c5e182d0 affirmed speculative RobEntry 0x7fd2c5e216f0
[34m[DBG] [0m   Logic: instr executed ? yes: 4
[34m[DBG] [0m   Logic: rStation size <- 60, rsVacancy <- 4
[34m[DBG] [0m======================================== Sync [62/97] 
[34m[DBG] [0m======================================== Cycle End

[34m[DBG] [0m======================================== Compute[63/97]
[34m[DBG] [0mPC Offsest: 0x140
[34m[DBG] [0m   Fetcher: at: 0x7fd2c6015140 (buffer 0:2426)
[34m[DBG] [0m   Fetcher: front instr = 0x7fd2c6015140, fetched 64, tmpBuffer: 64
[34m[DBG] [0m   Decoder: front instr = 0x7fd2c6015138
[34m[DBG] [0m   Decoder: Logic reservation station is full
0x00007fd2c601512c  b9000be8		str w8, [sp, #8]
[33m[WRN] [0mRobEntry 0x7fd2c5e1f630 ready with 0x7fd2c5e1d600
0x00007fd2c6015134  12800009		mov w9, #0xffffffff
0x00007fd2c6015138  0b090108		add w8, w8, w9
0x00007fd2c601513c  b9000fe8		str w8, [sp, #12]
[33m[WRN] [0mRobEntry 0x7fd2c5e21690 not ready due to 0x7fd2c5e220c0
0x00007fd2c6015140  17fffff4		b #-0x30 (addr 0x7fd2c6015110)
0x00007fd2c6015110  b9400fe8		ldr w8, [sp, #12]
0x00007fd2c6015114  7100051f		cmp w8, #0x1 (1)
0x00007fd2c6015118  54000041		b.ne #+0x8 (addr 0x7fd2c6015120)
0x00007fd2c6015120  b9400fe8		ldr w8, [sp, #12]
0x00007fd2c6015124  b9400be9		ldr w9, [sp, #8]
0x00007fd2c6015128  1b087d28		mul w8, w9, w8
0x00007fd2c601512c  b9000be8		str w8, [sp, #8]
[33m[WRN] [0mRobEntry 0x7fd2c5e2cec0 not ready due to 0x7fd2c5c2a8a0
0x00007fd2c6015130  b9400fe8		ldr w8, [sp, #12]
0x00007fd2c6015134  12800009		mov w9, #0xffffffff
0x00007fd2c6015138  0b090108		add w8, w8, w9
0x00007fd2c601513c  b9000fe8		str w8, [sp, #12]
[33m[WRN] [0mRobEntry 0x7fd2c5c230d0 not ready due to 0x7fd2c5c207a0
0x00007fd2c6015140  17fffff4		b #-0x30 (addr 0x7fd2c6015110)
0x00007fd2c6015110  b9400fe8		ldr w8, [sp, #12]
0x00007fd2c6015114  7100051f		cmp w8, #0x1 (1)
0x00007fd2c6015118  54000041		b.ne #+0x8 (addr 0x7fd2c6015120)
0x00007fd2c6015120  b9400fe8		ldr w8, [sp, #12]
0x00007fd2c6015124  b9400be9		ldr w9, [sp, #8]
0x00007fd2c6015128  1b087d28		mul w8, w9, w8
0x00007fd2c601512c  b9000be8		str w8, [sp, #8]
[33m[WRN] [0mRobEntry 0x7fd2c5c36970 not ready due to 0x7fd2c5c34940
0x00007fd2c6015130  b9400fe8		ldr w8, [sp, #12]
0x00007fd2c6015134  12800009		mov w9, #0xffffffff
0x00007fd2c6015138  0b090108		add w8, w8, w9
0x00007fd2c601513c  b9000fe8		str w8, [sp, #12]
[33m[WRN] [0mRobEntry 0x7fd2c5c38bd0 not ready due to 0x7fd2c5c39600
0x00007fd2c6015140  17fffff4		b #-0x30 (addr 0x7fd2c6015110)
0x00007fd2c6015110  b9400fe8		ldr w8, [sp, #12]
0x00007fd2c6015114  7100051f		cmp w8, #0x1 (1)
0x00007fd2c6015118  54000041		b.ne #+0x8 (addr 0x7fd2c6015120)
0x00007fd2c6015120  b9400fe8		ldr w8, [sp, #12]
0x00007fd2c6015124  b9400be9		ldr w9, [sp, #8]
0x00007fd2c6015128  1b087d28		mul w8, w9, w8
0x00007fd2c601512c  b9000be8		str w8, [sp, #8]
[33m[WRN] [0mRobEntry 0x7fd2c5c44540 not ready due to 0x7fd2c5c42510
0x00007fd2c6015130  b9400fe8		ldr w8, [sp, #12]
0x00007fd2c6015134  12800009		mov w9, #0xffffffff
0x00007fd2c6015138  0b090108		add w8, w8, w9
0x00007fd2c601513c  b9000fe8		str w8, [sp, #12]
[33m[WRN] [0mRobEntry 0x7fd2c5c465a0 not ready due to 0x7fd2c5c46fd0
0x00007fd2c6015140  17fffff4		b #-0x30 (addr 0x7fd2c6015110)
0x00007fd2c6015110  b9400fe8		ldr w8, [sp, #12]
0x00007fd2c6015114  7100051f		cmp w8, #0x1 (1)
0x00007fd2c6015118  54000041		b.ne #+0x8 (addr 0x7fd2c6015120)
0x00007fd2c6015120  b9400fe8		ldr w8, [sp, #12]
0x00007fd2c6015124  b9400be9		ldr w9, [sp, #8]
0x00007fd2c6015128  1b087d28		mul w8, w9, w8
0x00007fd2c601512c  b9000be8		str w8, [sp, #8]
[33m[WRN] [0mRobEntry 0x7fd2c5c51ca0 not ready due to 0x7fd2c5c4fc70
0x00007fd2c6015130  b9400fe8		ldr w8, [sp, #12]
0x00007fd2c6015134  12800009		mov w9, #0xffffffff
0x00007fd2c6015138  0b090108		add w8, w8, w9
0x00007fd2c601513c  b9000fe8		str w8, [sp, #12]
[33m[WRN] [0mRobEntry 0x7fd2c5c53d00 not ready due to 0x7fd2c5c54730
0x00007fd2c6015140  17fffff4		b #-0x30 (addr 0x7fd2c6015110)
0x00007fd2c6015110  b9400fe8		ldr w8, [sp, #12]
0x00007fd2c6015114  7100051f		cmp w8, #0x1 (1)
0x00007fd2c6015118  54000041		b.ne #+0x8 (addr 0x7fd2c6015120)
0x00007fd2c6015120  b9400fe8		ldr w8, [sp, #12]
0x00007fd2c6015124  b9400be9		ldr w9, [sp, #8]
0x00007fd2c6015128  1b087d28		mul w8, w9, w8
[33m[WRN] [0m[R9] RobCusor 0x7fd2c5c5c9e0 read-depends on 0x7fd2c5d00110
[33m[WRN] [0m[R8] RobCusor 0x7fd2c5c5c9e0 read-depends on 0x7fd2c5c58ce0
[33m[WRN] [0m[R9] RobCusor 0x7fd2c5c5c9e0 read-depends on 0x7fd2c5d00110
[33m[WRN] [0m[R8] RobCusor 0x7fd2c5c5c9e0 read-depends on 0x7fd2c5c58ce0
[33m[WRN] [0m[R9] RobCusor 0x7fd2c5c5c9e0 read-depends on 0x7fd2c5d00110
[33m[WRN] [0m[R8] RobCusor 0x7fd2c5c5c9e0 read-depends on 0x7fd2c5c58ce0
[33m[WRN] [0m[R8] RobCusor 0x7fd2c5c5c9e0 write can go ahead with ticket 0x7fd2c5c58d00
[33m[WRN] [0m----------------------Experimental Execute--------------
[33m[WRN] [0mRobEntry 0x7fd2c5e1f630 ready with 0x7fd2c5e1d600
[33m[WRN] [0mRobEntry 0x7fd2c5e1f750 not ready due to 0x7fd2c5e20460
[33m[WRN] [0mRobEntry 0x7fd2c5e23a60 not ready due to 0x7fd2c5e22530
[33m[WRN] [0mRobEntry 0x7fd2c5e25b60 not ready due to 0x7fd2c5e26378
[33m[WRN] [0mRobEntry 0x7fd2c5e2a4a0 not ready due to 0x7fd2c5e267c0
[33m[WRN] [0mRobEntry 0x7fd2c5e2cfe0 not ready due to 0x7fd2c5c2a960
[33m[WRN] [0mRobEntry 0x7fd2c5c2d640 not ready due to 0x7fd2c5c2c110
[33m[WRN] [0mRobEntry 0x7fd2c5c2f610 not ready due to 0x7fd2c5c2fe28
[33m[WRN] [0mRobEntry 0x7fd2c5c33f50 not ready due to 0x7fd2c5c30270
[33m[WRN] [0mRobEntry 0x7fd2c5c36a90 not ready due to 0x7fd2c5c377a0
[33m[WRN] [0mRobEntry 0x7fd2c5c030c0 not ready due to 0x7fd2c5c39a60
[33m[WRN] [0mRobEntry 0x7fd2c5c3cf80 not ready due to 0x7fd2c5c3d788
[33m[WRN] [0mRobEntry 0x7fd2c5c41b20 not ready due to 0x7fd2c5c3dbd0
[33m[WRN] [0mRobEntry 0x7fd2c5c44660 not ready due to 0x7fd2c5c45370
[33m[WRN] [0mRobEntry 0x7fd2c5c48970 not ready due to 0x7fd2c5c47440
[33m[WRN] [0mRobEntry 0x7fd2c5c4a940 not ready due to 0x7fd2c5c4b158
[33m[WRN] [0mRobEntry 0x7fd2c5c4f280 not ready due to 0x7fd2c5c4b5a0
[33m[WRN] [0mRobEntry 0x7fd2c5c51dc0 not ready due to 0x7fd2c5c52ad0
[33m[WRN] [0mRobEntry 0x7fd2c5c560d0 not ready due to 0x7fd2c5c54ba0
[33m[WRN] [0mRobEntry 0x7fd2c5c580a0 not ready due to 0x7fd2c5c588b8
[33m[WRN] [0mRobEntry 0x7fd2c5c5c9e0 not ready due to 0x7fd2c5d00110
0x00007fd2c601512c  b9000be8		str w8, [sp, #8]
[33m[WRN] [0m[R31] RobEntry 0x7fd2c5e1f630 reads init val 0x0
[33m[WRN] [0mReal write: 0x7fd2c601d2d8, 0x1baf80
#    w8:         0x00000003 -> 0x00007fd2c601d2d8
[34m[DBG] [0m   Logic[0]: newPc <- 0x7fd2c6015130
0x00007fd2c6015134  12800009		mov w9, #0xffffffff
[33m[WRN] [0m[0x7fd2c5e1f6f0] filled ticket 0x7fd2c5e20460
#    x9: 0x00000000ffffffff
[34m[DBG] [0m   Logic[1]: newPc <- 0x7fd2c6015138
[34m[DBG] [0m   Scribe: retired 4 ROB entries (now: 0x7fd2c5e1f630:Done)
[34m[DBG] [0m======================================== Update[63/101] 
[34m[DBG] [0m   Fetcher: buffer.size = 2489
[34m[DBG] [0m   Logic: instr executed ? yes: 3
[34m[DBG] [0m   Logic: rStation size <- 61, rsVacancy <- 3
[34m[DBG] [0m======================================== Sync [63/101] 
[34m[DBG] [0m======================================== Cycle End

[34m[DBG] [0m======================================== Compute[64/101]
[34m[DBG] [0mPC Offsest: 0x120
[34m[DBG] [0m   Fetcher: at: 0x7fd2c6015120 (buffer 0:2489)
[34m[DBG] [0m   Fetcher: front instr = 0x7fd2c6015120, fetched 64, tmpBuffer: 64
[34m[DBG] [0m   Decoder: front instr = 0x7fd2c601513c
[34m[DBG] [0m   Decoder: Logic reservation station is full
0x00007fd2c6015138  0b090108		add w8, w8, w9
0x00007fd2c601513c  b9000fe8		str w8, [sp, #12]
[33m[WRN] [0mRobEntry 0x7fd2c5e21690 not ready due to 0x7fd2c5e220c0
0x00007fd2c6015140  17fffff4		b #-0x30 (addr 0x7fd2c6015110)
0x00007fd2c6015110  b9400fe8		ldr w8, [sp, #12]
0x00007fd2c6015114  7100051f		cmp w8, #0x1 (1)
0x00007fd2c6015118  54000041		b.ne #+0x8 (addr 0x7fd2c6015120)
0x00007fd2c6015120  b9400fe8		ldr w8, [sp, #12]
0x00007fd2c6015124  b9400be9		ldr w9, [sp, #8]
0x00007fd2c6015128  1b087d28		mul w8, w9, w8
0x00007fd2c601512c  b9000be8		str w8, [sp, #8]
[33m[WRN] [0mRobEntry 0x7fd2c5e2cec0 not ready due to 0x7fd2c5c2a8a0
0x00007fd2c6015130  b9400fe8		ldr w8, [sp, #12]
0x00007fd2c6015134  12800009		mov w9, #0xffffffff
0x00007fd2c6015138  0b090108		add w8, w8, w9
0x00007fd2c601513c  b9000fe8		str w8, [sp, #12]
[33m[WRN] [0mRobEntry 0x7fd2c5c230d0 not ready due to 0x7fd2c5c207a0
0x00007fd2c6015140  17fffff4		b #-0x30 (addr 0x7fd2c6015110)
0x00007fd2c6015110  b9400fe8		ldr w8, [sp, #12]
0x00007fd2c6015114  7100051f		cmp w8, #0x1 (1)
0x00007fd2c6015118  54000041		b.ne #+0x8 (addr 0x7fd2c6015120)
0x00007fd2c6015120  b9400fe8		ldr w8, [sp, #12]
0x00007fd2c6015124  b9400be9		ldr w9, [sp, #8]
0x00007fd2c6015128  1b087d28		mul w8, w9, w8
0x00007fd2c601512c  b9000be8		str w8, [sp, #8]
[33m[WRN] [0mRobEntry 0x7fd2c5c36970 not ready due to 0x7fd2c5c34940
0x00007fd2c6015130  b9400fe8		ldr w8, [sp, #12]
0x00007fd2c6015134  12800009		mov w9, #0xffffffff
0x00007fd2c6015138  0b090108		add w8, w8, w9
0x00007fd2c601513c  b9000fe8		str w8, [sp, #12]
[33m[WRN] [0mRobEntry 0x7fd2c5c38bd0 not ready due to 0x7fd2c5c39600
0x00007fd2c6015140  17fffff4		b #-0x30 (addr 0x7fd2c6015110)
0x00007fd2c6015110  b9400fe8		ldr w8, [sp, #12]
0x00007fd2c6015114  7100051f		cmp w8, #0x1 (1)
0x00007fd2c6015118  54000041		b.ne #+0x8 (addr 0x7fd2c6015120)
0x00007fd2c6015120  b9400fe8		ldr w8, [sp, #12]
0x00007fd2c6015124  b9400be9		ldr w9, [sp, #8]
0x00007fd2c6015128  1b087d28		mul w8, w9, w8
0x00007fd2c601512c  b9000be8		str w8, [sp, #8]
[33m[WRN] [0mRobEntry 0x7fd2c5c44540 not ready due to 0x7fd2c5c42510
0x00007fd2c6015130  b9400fe8		ldr w8, [sp, #12]
0x00007fd2c6015134  12800009		mov w9, #0xffffffff
0x00007fd2c6015138  0b090108		add w8, w8, w9
0x00007fd2c601513c  b9000fe8		str w8, [sp, #12]
[33m[WRN] [0mRobEntry 0x7fd2c5c465a0 not ready due to 0x7fd2c5c46fd0
0x00007fd2c6015140  17fffff4		b #-0x30 (addr 0x7fd2c6015110)
0x00007fd2c6015110  b9400fe8		ldr w8, [sp, #12]
0x00007fd2c6015114  7100051f		cmp w8, #0x1 (1)
0x00007fd2c6015118  54000041		b.ne #+0x8 (addr 0x7fd2c6015120)
0x00007fd2c6015120  b9400fe8		ldr w8, [sp, #12]
0x00007fd2c6015124  b9400be9		ldr w9, [sp, #8]
0x00007fd2c6015128  1b087d28		mul w8, w9, w8
0x00007fd2c601512c  b9000be8		str w8, [sp, #8]
[33m[WRN] [0mRobEntry 0x7fd2c5c51ca0 not ready due to 0x7fd2c5c4fc70
0x00007fd2c6015130  b9400fe8		ldr w8, [sp, #12]
0x00007fd2c6015134  12800009		mov w9, #0xffffffff
0x00007fd2c6015138  0b090108		add w8, w8, w9
0x00007fd2c601513c  b9000fe8		str w8, [sp, #12]
[33m[WRN] [0mRobEntry 0x7fd2c5c53d00 not ready due to 0x7fd2c5c54730
0x00007fd2c6015140  17fffff4		b #-0x30 (addr 0x7fd2c6015110)
0x00007fd2c6015110  b9400fe8		ldr w8, [sp, #12]
0x00007fd2c6015114  7100051f		cmp w8, #0x1 (1)
0x00007fd2c6015118  54000041		b.ne #+0x8 (addr 0x7fd2c6015120)
0x00007fd2c6015120  b9400fe8		ldr w8, [sp, #12]
0x00007fd2c6015124  b9400be9		ldr w9, [sp, #8]
0x00007fd2c6015128  1b087d28		mul w8, w9, w8
0x00007fd2c601512c  b9000be8		str w8, [sp, #8]
[33m[WRN] [0m[R31] RobCusor 0x7fd2c5c5d940 read can go ahead (init)
[33m[WRN] [0m[R8] RobCusor 0x7fd2c5c5d940 read-depends on 0x7fd2c5c58d00
[33m[WRN] [0mRobEntry 0x7fd2c5c5d940 not ready due to 0x7fd2c5c58d00
0x00007fd2c6015130  b9400fe8		ldr w8, [sp, #12]
[33m[WRN] [0m[R31] RobCusor 0x7fd2c5c5d9a0 read can go ahead (init)
[33m[WRN] [0m[R8] RobCusor 0x7fd2c5c5d9a0 write can go ahead with ticket 0x7fd2c5d00510
0x00007fd2c6015134  12800009		mov w9, #0xffffffff
[33m[WRN] [0m[R9] RobCusor 0x7fd2c5c5da00 write can go ahead with ticket 0x7fd2c5d002c0
0x00007fd2c6015138  0b090108		add w8, w8, w9
[33m[WRN] [0m[R9] RobCusor 0x7fd2c5c5da60 read-depends on 0x7fd2c5d002c0
[33m[WRN] [0m[R8] RobCusor 0x7fd2c5c5da60 read-depends on 0x7fd2c5d00510
[33m[WRN] [0m[R8] RobCusor 0x7fd2c5c5da60 write can go ahead with ticket 0x7fd2c5d01f40
[33m[WRN] [0m----------------------Experimental Execute--------------
[33m[WRN] [0mRobEntry 0x7fd2c5e1f750 ready with 0x7fd2c5e20460
[33m[WRN] [0mRobEntry 0x7fd2c5e1f750 ready with 0x7fd2c5e20230
[33m[WRN] [0mRobEntry 0x7fd2c5e23a60 not ready due to 0x7fd2c5e22530
[33m[WRN] [0mRobEntry 0x7fd2c5e25b60 not ready due to 0x7fd2c5e26378
[33m[WRN] [0mRobEntry 0x7fd2c5e2a4a0 not ready due to 0x7fd2c5e267c0
[33m[WRN] [0mRobEntry 0x7fd2c5e2cfe0 not ready due to 0x7fd2c5c2a960
[33m[WRN] [0mRobEntry 0x7fd2c5c2d640 not ready due to 0x7fd2c5c2c110
[33m[WRN] [0mRobEntry 0x7fd2c5c2f610 not ready due to 0x7fd2c5c2fe28
[33m[WRN] [0mRobEntry 0x7fd2c5c33f50 not ready due to 0x7fd2c5c30270
[33m[WRN] [0mRobEntry 0x7fd2c5c36a90 not ready due to 0x7fd2c5c377a0
[33m[WRN] [0mRobEntry 0x7fd2c5c030c0 not ready due to 0x7fd2c5c39a60
[33m[WRN] [0mRobEntry 0x7fd2c5c3cf80 not ready due to 0x7fd2c5c3d788
[33m[WRN] [0mRobEntry 0x7fd2c5c41b20 not ready due to 0x7fd2c5c3dbd0
[33m[WRN] [0mRobEntry 0x7fd2c5c44660 not ready due to 0x7fd2c5c45370
[33m[WRN] [0mRobEntry 0x7fd2c5c48970 not ready due to 0x7fd2c5c47440
[33m[WRN] [0mRobEntry 0x7fd2c5c4a940 not ready due to 0x7fd2c5c4b158
[33m[WRN] [0mRobEntry 0x7fd2c5c4f280 not ready due to 0x7fd2c5c4b5a0
[33m[WRN] [0mRobEntry 0x7fd2c5c51dc0 not ready due to 0x7fd2c5c52ad0
[33m[WRN] [0mRobEntry 0x7fd2c5c560d0 not ready due to 0x7fd2c5c54ba0
[33m[WRN] [0mRobEntry 0x7fd2c5c580a0 not ready due to 0x7fd2c5c588b8
[33m[WRN] [0mRobEntry 0x7fd2c5c5c9e0 not ready due to 0x7fd2c5d00110
[33m[WRN] [0mRobEntry 0x7fd2c5c5da60 not ready due to 0x7fd2c5d002c0
0x00007fd2c6015138  0b090108		add w8, w8, w9
[33m[WRN] [0m[0x7fd2c5e1f750] filled ticket 0x7fd2c5e220c0
#    x8: 0x0000000000000002
[34m[DBG] [0m   Logic[0]: newPc <- 0x7fd2c601513c
0x00007fd2c6015140  17fffff4		b #-0x30 (addr 0x7fd2c6015110)
#    pc: 0x7fd2c6015110 (by 0x7fd2c5e216f0)
[33m[WRN] [0m[0x7fd2c5e216f0] filled ticket 0x7fd2c5e222e0
[34m[DBG] [0m   Logic[1]: newPc <- 0x7fd2c6015110
[34m[DBG] [0m   Scribe: retired 3 ROB entries (now: 0x7fd2c5e1f750:Done)
[34m[DBG] [0m======================================== Update[64/104] 
[34m[DBG] [0m   Fetcher: buffer.size = 2549
[34m[DBG] [0m   Logic: Branch prediction 0x7fd2c6015140 was correct: 15
[34m[DBG] [0m   Logic: Correct branch: 0x7fd2c5e216f0 succ 0x7fd2c5e21750
[34m[DBG] [0m   Logic: 0x7fd2c5e216f0 affirmed speculative RobEntry 0x7fd2c5e21750
[34m[DBG] [0m   Logic: 0x7fd2c5e216f0 affirmed speculative RobEntry 0x7fd2c5e23a60
[34m[DBG] [0m   Logic: 0x7fd2c5e216f0 affirmed speculative RobEntry 0x7fd2c5e25b60
[34m[DBG] [0m   Logic: instr executed ? yes: 1
[34m[DBG] [0m   Logic: rStation size <- 63, rsVacancy <- 1
[34m[DBG] [0m======================================== Sync [64/104] 
[34m[DBG] [0m======================================== Cycle End

[34m[DBG] [0m======================================== Compute[65/104]
[34m[DBG] [0mPC Offsest: 0x130
[34m[DBG] [0m   Fetcher: at: 0x7fd2c6015130 (buffer 0:2549)
[34m[DBG] [0m   Fetcher: front instr = 0x7fd2c6015130, fetched 64, tmpBuffer: 64
[34m[DBG] [0m   Decoder: front instr = 0x7fd2c6015118
[34m[DBG] [0m   Decoder: Logic reservation station is full
0x00007fd2c601513c  b9000fe8		str w8, [sp, #12]
[33m[WRN] [0mRobEntry 0x7fd2c5e21690 ready with 0x7fd2c5e220c0
0x00007fd2c6015110  b9400fe8		ldr w8, [sp, #12]
0x00007fd2c6015114  7100051f		cmp w8, #0x1 (1)
0x00007fd2c6015118  54000041		b.ne #+0x8 (addr 0x7fd2c6015120)
0x00007fd2c6015120  b9400fe8		ldr w8, [sp, #12]
0x00007fd2c6015124  b9400be9		ldr w9, [sp, #8]
0x00007fd2c6015128  1b087d28		mul w8, w9, w8
0x00007fd2c601512c  b9000be8		str w8, [sp, #8]
[33m[WRN] [0mRobEntry 0x7fd2c5e2cec0 not ready due to 0x7fd2c5c2a8a0
0x00007fd2c6015130  b9400fe8		ldr w8, [sp, #12]
0x00007fd2c6015134  12800009		mov w9, #0xffffffff
0x00007fd2c6015138  0b090108		add w8, w8, w9
0x00007fd2c601513c  b9000fe8		str w8, [sp, #12]
[33m[WRN] [0mRobEntry 0x7fd2c5c230d0 not ready due to 0x7fd2c5c207a0
0x00007fd2c6015140  17fffff4		b #-0x30 (addr 0x7fd2c6015110)
0x00007fd2c6015110  b9400fe8		ldr w8, [sp, #12]
0x00007fd2c6015114  7100051f		cmp w8, #0x1 (1)
0x00007fd2c6015118  54000041		b.ne #+0x8 (addr 0x7fd2c6015120)
0x00007fd2c6015120  b9400fe8		ldr w8, [sp, #12]
0x00007fd2c6015124  b9400be9		ldr w9, [sp, #8]
0x00007fd2c6015128  1b087d28		mul w8, w9, w8
0x00007fd2c601512c  b9000be8		str w8, [sp, #8]
[33m[WRN] [0mRobEntry 0x7fd2c5c36970 not ready due to 0x7fd2c5c34940
0x00007fd2c6015130  b9400fe8		ldr w8, [sp, #12]
0x00007fd2c6015134  12800009		mov w9, #0xffffffff
0x00007fd2c6015138  0b090108		add w8, w8, w9
0x00007fd2c601513c  b9000fe8		str w8, [sp, #12]
[33m[WRN] [0mRobEntry 0x7fd2c5c38bd0 not ready due to 0x7fd2c5c39600
0x00007fd2c6015140  17fffff4		b #-0x30 (addr 0x7fd2c6015110)
0x00007fd2c6015110  b9400fe8		ldr w8, [sp, #12]
0x00007fd2c6015114  7100051f		cmp w8, #0x1 (1)
0x00007fd2c6015118  54000041		b.ne #+0x8 (addr 0x7fd2c6015120)
0x00007fd2c6015120  b9400fe8		ldr w8, [sp, #12]
0x00007fd2c6015124  b9400be9		ldr w9, [sp, #8]
0x00007fd2c6015128  1b087d28		mul w8, w9, w8
0x00007fd2c601512c  b9000be8		str w8, [sp, #8]
[33m[WRN] [0mRobEntry 0x7fd2c5c44540 not ready due to 0x7fd2c5c42510
0x00007fd2c6015130  b9400fe8		ldr w8, [sp, #12]
0x00007fd2c6015134  12800009		mov w9, #0xffffffff
0x00007fd2c6015138  0b090108		add w8, w8, w9
0x00007fd2c601513c  b9000fe8		str w8, [sp, #12]
[33m[WRN] [0mRobEntry 0x7fd2c5c465a0 not ready due to 0x7fd2c5c46fd0
0x00007fd2c6015140  17fffff4		b #-0x30 (addr 0x7fd2c6015110)
0x00007fd2c6015110  b9400fe8		ldr w8, [sp, #12]
0x00007fd2c6015114  7100051f		cmp w8, #0x1 (1)
0x00007fd2c6015118  54000041		b.ne #+0x8 (addr 0x7fd2c6015120)
0x00007fd2c6015120  b9400fe8		ldr w8, [sp, #12]
0x00007fd2c6015124  b9400be9		ldr w9, [sp, #8]
0x00007fd2c6015128  1b087d28		mul w8, w9, w8
0x00007fd2c601512c  b9000be8		str w8, [sp, #8]
[33m[WRN] [0mRobEntry 0x7fd2c5c51ca0 not ready due to 0x7fd2c5c4fc70
0x00007fd2c6015130  b9400fe8		ldr w8, [sp, #12]
0x00007fd2c6015134  12800009		mov w9, #0xffffffff
0x00007fd2c6015138  0b090108		add w8, w8, w9
0x00007fd2c601513c  b9000fe8		str w8, [sp, #12]
[33m[WRN] [0mRobEntry 0x7fd2c5c53d00 not ready due to 0x7fd2c5c54730
0x00007fd2c6015140  17fffff4		b #-0x30 (addr 0x7fd2c6015110)
0x00007fd2c6015110  b9400fe8		ldr w8, [sp, #12]
0x00007fd2c6015114  7100051f		cmp w8, #0x1 (1)
0x00007fd2c6015118  54000041		b.ne #+0x8 (addr 0x7fd2c6015120)
0x00007fd2c6015120  b9400fe8		ldr w8, [sp, #12]
0x00007fd2c6015124  b9400be9		ldr w9, [sp, #8]
0x00007fd2c6015128  1b087d28		mul w8, w9, w8
0x00007fd2c601512c  b9000be8		str w8, [sp, #8]
[33m[WRN] [0mRobEntry 0x7fd2c5c5d940 not ready due to 0x7fd2c5c58d00
0x00007fd2c6015130  b9400fe8		ldr w8, [sp, #12]
0x00007fd2c6015134  12800009		mov w9, #0xffffffff
0x00007fd2c6015138  0b090108		add w8, w8, w9
0x00007fd2c601513c  b9000fe8		str w8, [sp, #12]
[33m[WRN] [0m[R31] RobCusor 0x7fd2c5c5f9b0 read can go ahead (init)
[33m[WRN] [0m[R8] RobCusor 0x7fd2c5c5f9b0 read-depends on 0x7fd2c5d01f40
[33m[WRN] [0mRobEntry 0x7fd2c5c5f9b0 not ready due to 0x7fd2c5d01f40
0x00007fd2c6015140  17fffff4		b #-0x30 (addr 0x7fd2c6015110)
0x00007fd2c6015110  b9400fe8		ldr w8, [sp, #12]
[33m[WRN] [0m[R31] RobCusor 0x7fd2c5c5fa70 read can go ahead (init)
[33m[WRN] [0m[R8] RobCusor 0x7fd2c5c5fa70 write can go ahead with ticket 0x7fd2c5e2ae90
[33m[WRN] [0m----------------------Experimental Execute--------------
[33m[WRN] [0mRobEntry 0x7fd2c5e21690 ready with 0x7fd2c5e220c0
[33m[WRN] [0mRobEntry 0x7fd2c5e23a60 not ready due to 0x7fd2c5e22530
[33m[WRN] [0mRobEntry 0x7fd2c5e25b60 not ready due to 0x7fd2c5e26378
[33m[WRN] [0mRobEntry 0x7fd2c5e2a4a0 not ready due to 0x7fd2c5e267c0
[33m[WRN] [0mRobEntry 0x7fd2c5e2cfe0 not ready due to 0x7fd2c5c2a960
[33m[WRN] [0mRobEntry 0x7fd2c5c2d640 not ready due to 0x7fd2c5c2c110
[33m[WRN] [0mRobEntry 0x7fd2c5c2f610 not ready due to 0x7fd2c5c2fe28
[33m[WRN] [0mRobEntry 0x7fd2c5c33f50 not ready due to 0x7fd2c5c30270
[33m[WRN] [0mRobEntry 0x7fd2c5c36a90 not ready due to 0x7fd2c5c377a0
[33m[WRN] [0mRobEntry 0x7fd2c5c030c0 not ready due to 0x7fd2c5c39a60
[33m[WRN] [0mRobEntry 0x7fd2c5c3cf80 not ready due to 0x7fd2c5c3d788
[33m[WRN] [0mRobEntry 0x7fd2c5c41b20 not ready due to 0x7fd2c5c3dbd0
[33m[WRN] [0mRobEntry 0x7fd2c5c44660 not ready due to 0x7fd2c5c45370
[33m[WRN] [0mRobEntry 0x7fd2c5c48970 not ready due to 0x7fd2c5c47440
[33m[WRN] [0mRobEntry 0x7fd2c5c4a940 not ready due to 0x7fd2c5c4b158
[33m[WRN] [0mRobEntry 0x7fd2c5c4f280 not ready due to 0x7fd2c5c4b5a0
[33m[WRN] [0mRobEntry 0x7fd2c5c51dc0 not ready due to 0x7fd2c5c52ad0
[33m[WRN] [0mRobEntry 0x7fd2c5c560d0 not ready due to 0x7fd2c5c54ba0
[33m[WRN] [0mRobEntry 0x7fd2c5c580a0 not ready due to 0x7fd2c5c588b8
[33m[WRN] [0mRobEntry 0x7fd2c5c5c9e0 not ready due to 0x7fd2c5d00110
[33m[WRN] [0mRobEntry 0x7fd2c5c5da60 not ready due to 0x7fd2c5d002c0
0x00007fd2c601513c  b9000fe8		str w8, [sp, #12]
[33m[WRN] [0m[R31] RobEntry 0x7fd2c5e21690 reads init val 0x0
[33m[WRN] [0mReal write: 0x7fd2c601d2dc, 0x2
#    w8:         0x00000002 -> 0x00007fd2c601d2dc
[34m[DBG] [0m   Logic[0]: newPc <- 0x7fd2c6015140
0x00007fd2c6015124  b9400be9		ldr w9, [sp, #8]
[33m[WRN] [0m[R31] RobEntry 0x7fd2c5e27ce0 reads init val 0x0
[34m[DBG] [0m[MEM] read addr=0x7fd2c601d2d8 len=0x4 val=0x1baf80
[33m[WRN] [0m[R9] Speculative write by 0x7fd2c5e27ce0 val=0x1baf80
[33m[WRN] [0m[0x7fd2c5e27ce0] filled ticket 0x7fd2c5e267c0
#    x9: 0x00000000ffffffff <- 0x00007fd2c601d2d8
[34m[DBG] [0m   Logic[1]: speculation no set pc
[34m[DBG] [0m   Scribe: retired 1 ROB entries (now: 0x7fd2c5e21690:Done)
[34m[DBG] [0m======================================== Update[65/105] 
[34m[DBG] [0m   Fetcher: buffer.size = 2610
[34m[DBG] [0m   Logic: instr executed ? yes: 2
[34m[DBG] [0m   Logic: rStation size <- 62, rsVacancy <- 2
[34m[DBG] [0m======================================== Sync [65/105] 
[34m[DBG] [0m======================================== Cycle End

[34m[DBG] [0m======================================== Compute[66/105]
[34m[DBG] [0mPC Offsest: 0x140
[34m[DBG] [0m   Fetcher: at: 0x7fd2c6015140 (buffer 0:2610)
[34m[DBG] [0m   Fetcher: front instr = 0x7fd2c6015140, fetched 64, tmpBuffer: 64
[34m[DBG] [0m   Decoder: front instr = 0x7fd2c6015128
[34m[DBG] [0m   Decoder: Logic reservation station is full
0x00007fd2c6015110  b9400fe8		ldr w8, [sp, #12]
0x00007fd2c6015114  7100051f		cmp w8, #0x1 (1)
0x00007fd2c6015118  54000041		b.ne #+0x8 (addr 0x7fd2c6015120)
0x00007fd2c6015120  b9400fe8		ldr w8, [sp, #12]
0x00007fd2c6015128  1b087d28		mul w8, w9, w8
0x00007fd2c601512c  b9000be8		str w8, [sp, #8]
[33m[WRN] [0mRobEntry 0x7fd2c5e2cec0 not ready due to 0x7fd2c5c2a8a0
0x00007fd2c6015130  b9400fe8		ldr w8, [sp, #12]
0x00007fd2c6015134  12800009		mov w9, #0xffffffff
0x00007fd2c6015138  0b090108		add w8, w8, w9
0x00007fd2c601513c  b9000fe8		str w8, [sp, #12]
[33m[WRN] [0mRobEntry 0x7fd2c5c230d0 not ready due to 0x7fd2c5c207a0
0x00007fd2c6015140  17fffff4		b #-0x30 (addr 0x7fd2c6015110)
0x00007fd2c6015110  b9400fe8		ldr w8, [sp, #12]
0x00007fd2c6015114  7100051f		cmp w8, #0x1 (1)
0x00007fd2c6015118  54000041		b.ne #+0x8 (addr 0x7fd2c6015120)
0x00007fd2c6015120  b9400fe8		ldr w8, [sp, #12]
0x00007fd2c6015124  b9400be9		ldr w9, [sp, #8]
0x00007fd2c6015128  1b087d28		mul w8, w9, w8
0x00007fd2c601512c  b9000be8		str w8, [sp, #8]
[33m[WRN] [0mRobEntry 0x7fd2c5c36970 not ready due to 0x7fd2c5c34940
0x00007fd2c6015130  b9400fe8		ldr w8, [sp, #12]
0x00007fd2c6015134  12800009		mov w9, #0xffffffff
0x00007fd2c6015138  0b090108		add w8, w8, w9
0x00007fd2c601513c  b9000fe8		str w8, [sp, #12]
[33m[WRN] [0mRobEntry 0x7fd2c5c38bd0 not ready due to 0x7fd2c5c39600
0x00007fd2c6015140  17fffff4		b #-0x30 (addr 0x7fd2c6015110)
0x00007fd2c6015110  b9400fe8		ldr w8, [sp, #12]
0x00007fd2c6015114  7100051f		cmp w8, #0x1 (1)
0x00007fd2c6015118  54000041		b.ne #+0x8 (addr 0x7fd2c6015120)
0x00007fd2c6015120  b9400fe8		ldr w8, [sp, #12]
0x00007fd2c6015124  b9400be9		ldr w9, [sp, #8]
0x00007fd2c6015128  1b087d28		mul w8, w9, w8
0x00007fd2c601512c  b9000be8		str w8, [sp, #8]
[33m[WRN] [0mRobEntry 0x7fd2c5c44540 not ready due to 0x7fd2c5c42510
0x00007fd2c6015130  b9400fe8		ldr w8, [sp, #12]
0x00007fd2c6015134  12800009		mov w9, #0xffffffff
0x00007fd2c6015138  0b090108		add w8, w8, w9
0x00007fd2c601513c  b9000fe8		str w8, [sp, #12]
[33m[WRN] [0mRobEntry 0x7fd2c5c465a0 not ready due to 0x7fd2c5c46fd0
0x00007fd2c6015140  17fffff4		b #-0x30 (addr 0x7fd2c6015110)
0x00007fd2c6015110  b9400fe8		ldr w8, [sp, #12]
0x00007fd2c6015114  7100051f		cmp w8, #0x1 (1)
0x00007fd2c6015118  54000041		b.ne #+0x8 (addr 0x7fd2c6015120)
0x00007fd2c6015120  b9400fe8		ldr w8, [sp, #12]
0x00007fd2c6015124  b9400be9		ldr w9, [sp, #8]
0x00007fd2c6015128  1b087d28		mul w8, w9, w8
0x00007fd2c601512c  b9000be8		str w8, [sp, #8]
[33m[WRN] [0mRobEntry 0x7fd2c5c51ca0 not ready due to 0x7fd2c5c4fc70
0x00007fd2c6015130  b9400fe8		ldr w8, [sp, #12]
0x00007fd2c6015134  12800009		mov w9, #0xffffffff
0x00007fd2c6015138  0b090108		add w8, w8, w9
0x00007fd2c601513c  b9000fe8		str w8, [sp, #12]
[33m[WRN] [0mRobEntry 0x7fd2c5c53d00 not ready due to 0x7fd2c5c54730
0x00007fd2c6015140  17fffff4		b #-0x30 (addr 0x7fd2c6015110)
0x00007fd2c6015110  b9400fe8		ldr w8, [sp, #12]
0x00007fd2c6015114  7100051f		cmp w8, #0x1 (1)
0x00007fd2c6015118  54000041		b.ne #+0x8 (addr 0x7fd2c6015120)
0x00007fd2c6015120  b9400fe8		ldr w8, [sp, #12]
0x00007fd2c6015124  b9400be9		ldr w9, [sp, #8]
0x00007fd2c6015128  1b087d28		mul w8, w9, w8
0x00007fd2c601512c  b9000be8		str w8, [sp, #8]
[33m[WRN] [0mRobEntry 0x7fd2c5c5d940 not ready due to 0x7fd2c5c58d00
0x00007fd2c6015130  b9400fe8		ldr w8, [sp, #12]
0x00007fd2c6015134  12800009		mov w9, #0xffffffff
0x00007fd2c6015138  0b090108		add w8, w8, w9
0x00007fd2c601513c  b9000fe8		str w8, [sp, #12]
[33m[WRN] [0mRobEntry 0x7fd2c5c5f9b0 not ready due to 0x7fd2c5d01f40
0x00007fd2c6015140  17fffff4		b #-0x30 (addr 0x7fd2c6015110)
0x00007fd2c6015110  b9400fe8		ldr w8, [sp, #12]
0x00007fd2c6015114  7100051f		cmp w8, #0x1 (1)
[33m[WRN] [0m[R8] RobCusor 0x7fd2c5e2ebc0 read-depends on 0x7fd2c5e2ae90
[33m[WRN] [0m[NZCV] RobCusor 0x7fd2c5e2ebc0 write can go ahead with ticket 0x7fd2c5e2f8b0
[33m[WRN] [0m[NZCV] RobCusor 0x7fd2c5e2ebc0 write can go ahead with ticket 0x7fd2c5e28978
[33m[WRN] [0m[NZCV] RobCusor 0x7fd2c5e2ebc0 write can go ahead with ticket 0x7fd2c5e31350
[33m[WRN] [0m[NZCV] RobCusor 0x7fd2c5e2ebc0 write can go ahead with ticket 0x7fd2c5e31368
[33m[WRN] [0m----------------------Experimental Execute--------------
[33m[WRN] [0mRobEntry 0x7fd2c5e23a60 not ready due to 0x7fd2c5e22530
[33m[WRN] [0mRobEntry 0x7fd2c5e25b60 not ready due to 0x7fd2c5e26378
[33m[WRN] [0mRobEntry 0x7fd2c5e2a4a0 ready with 0x7fd2c5e267c0
[33m[WRN] [0mRobEntry 0x7fd2c5e2a4a0 not ready due to 0x7fd2c5e267a0
[33m[WRN] [0mRobEntry 0x7fd2c5e2cfe0 not ready due to 0x7fd2c5c2a960
[33m[WRN] [0mRobEntry 0x7fd2c5c2d640 not ready due to 0x7fd2c5c2c110
[33m[WRN] [0mRobEntry 0x7fd2c5c2f610 not ready due to 0x7fd2c5c2fe28
[33m[WRN] [0mRobEntry 0x7fd2c5c33f50 not ready due to 0x7fd2c5c30270
[33m[WRN] [0mRobEntry 0x7fd2c5c36a90 not ready due to 0x7fd2c5c377a0
[33m[WRN] [0mRobEntry 0x7fd2c5c030c0 not ready due to 0x7fd2c5c39a60
[33m[WRN] [0mRobEntry 0x7fd2c5c3cf80 not ready due to 0x7fd2c5c3d788
[33m[WRN] [0mRobEntry 0x7fd2c5c41b20 not ready due to 0x7fd2c5c3dbd0
[33m[WRN] [0mRobEntry 0x7fd2c5c44660 not ready due to 0x7fd2c5c45370
[33m[WRN] [0mRobEntry 0x7fd2c5c48970 not ready due to 0x7fd2c5c47440
[33m[WRN] [0mRobEntry 0x7fd2c5c4a940 not ready due to 0x7fd2c5c4b158
[33m[WRN] [0mRobEntry 0x7fd2c5c4f280 not ready due to 0x7fd2c5c4b5a0
[33m[WRN] [0mRobEntry 0x7fd2c5c51dc0 not ready due to 0x7fd2c5c52ad0
[33m[WRN] [0mRobEntry 0x7fd2c5c560d0 not ready due to 0x7fd2c5c54ba0
[33m[WRN] [0mRobEntry 0x7fd2c5c580a0 not ready due to 0x7fd2c5c588b8
[33m[WRN] [0mRobEntry 0x7fd2c5c5c9e0 not ready due to 0x7fd2c5d00110
[33m[WRN] [0mRobEntry 0x7fd2c5c5da60 not ready due to 0x7fd2c5d002c0
[33m[WRN] [0mRobEntry 0x7fd2c5e2ebc0 not ready due to 0x7fd2c5e2ae90
0x00007fd2c6015110  b9400fe8		ldr w8, [sp, #12]
[33m[WRN] [0m[R31] RobEntry 0x7fd2c5e21750 reads init val 0x0
[34m[DBG] [0m[MEM] read addr=0x7fd2c601d2dc len=0x4 val=0x2
[33m[WRN] [0m[0x7fd2c5e21750] filled ticket 0x7fd2c5e22530
#    x8: 0x0000000000000002 <- 0x00007fd2c601d2dc
[34m[DBG] [0m   Logic[0]: newPc <- 0x7fd2c6015114
0x00007fd2c6015120  b9400fe8		ldr w8, [sp, #12]
[33m[WRN] [0m[R31] RobEntry 0x7fd2c5e25bc0 reads init val 0x0
[34m[DBG] [0m[MEM] read addr=0x7fd2c601d2dc len=0x4 val=0x2
[33m[WRN] [0m[R8] Speculative write by 0x7fd2c5e25bc0 val=0x2
[33m[WRN] [0m[0x7fd2c5e25bc0] filled ticket 0x7fd2c5e267a0
#    x8: 0x0000000000000002 <- 0x00007fd2c601d2dc
[34m[DBG] [0m   Logic[1]: speculation no set pc
[34m[DBG] [0m   Scribe: retired 2 ROB entries (now: 0x7fd2c5e21750:Done)
[34m[DBG] [0m======================================== Update[66/107] 
[34m[DBG] [0m   Fetcher: buffer.size = 2673
[34m[DBG] [0m   Logic: instr executed ? yes: 1
[34m[DBG] [0m   Logic: rStation size <- 63, rsVacancy <- 1
[34m[DBG] [0m======================================== Sync [66/107] 
[34m[DBG] [0m======================================== Cycle End

[34m[DBG] [0m======================================== Compute[67/107]
[34m[DBG] [0mPC Offsest: 0x120
[34m[DBG] [0m   Fetcher: at: 0x7fd2c6015120 (buffer 0:2673)
[34m[DBG] [0m   Fetcher: front instr = 0x7fd2c6015120, fetched 64, tmpBuffer: 64
[34m[DBG] [0m   Decoder: front instr = 0x7fd2c601512c
[34m[DBG] [0m   Decoder: Logic reservation station is full
0x00007fd2c6015114  7100051f		cmp w8, #0x1 (1)
0x00007fd2c6015118  54000041		b.ne #+0x8 (addr 0x7fd2c6015120)
0x00007fd2c6015128  1b087d28		mul w8, w9, w8
0x00007fd2c601512c  b9000be8		str w8, [sp, #8]
[33m[WRN] [0mRobEntry 0x7fd2c5e2cec0 not ready due to 0x7fd2c5c2a8a0
0x00007fd2c6015130  b9400fe8		ldr w8, [sp, #12]
0x00007fd2c6015134  12800009		mov w9, #0xffffffff
0x00007fd2c6015138  0b090108		add w8, w8, w9
0x00007fd2c601513c  b9000fe8		str w8, [sp, #12]
[33m[WRN] [0mRobEntry 0x7fd2c5c230d0 not ready due to 0x7fd2c5c207a0
0x00007fd2c6015140  17fffff4		b #-0x30 (addr 0x7fd2c6015110)
0x00007fd2c6015110  b9400fe8		ldr w8, [sp, #12]
0x00007fd2c6015114  7100051f		cmp w8, #0x1 (1)
0x00007fd2c6015118  54000041		b.ne #+0x8 (addr 0x7fd2c6015120)
0x00007fd2c6015120  b9400fe8		ldr w8, [sp, #12]
0x00007fd2c6015124  b9400be9		ldr w9, [sp, #8]
0x00007fd2c6015128  1b087d28		mul w8, w9, w8
0x00007fd2c601512c  b9000be8		str w8, [sp, #8]
[33m[WRN] [0mRobEntry 0x7fd2c5c36970 not ready due to 0x7fd2c5c34940
0x00007fd2c6015130  b9400fe8		ldr w8, [sp, #12]
0x00007fd2c6015134  12800009		mov w9, #0xffffffff
0x00007fd2c6015138  0b090108		add w8, w8, w9
0x00007fd2c601513c  b9000fe8		str w8, [sp, #12]
[33m[WRN] [0mRobEntry 0x7fd2c5c38bd0 not ready due to 0x7fd2c5c39600
0x00007fd2c6015140  17fffff4		b #-0x30 (addr 0x7fd2c6015110)
0x00007fd2c6015110  b9400fe8		ldr w8, [sp, #12]
0x00007fd2c6015114  7100051f		cmp w8, #0x1 (1)
0x00007fd2c6015118  54000041		b.ne #+0x8 (addr 0x7fd2c6015120)
0x00007fd2c6015120  b9400fe8		ldr w8, [sp, #12]
0x00007fd2c6015124  b9400be9		ldr w9, [sp, #8]
0x00007fd2c6015128  1b087d28		mul w8, w9, w8
0x00007fd2c601512c  b9000be8		str w8, [sp, #8]
[33m[WRN] [0mRobEntry 0x7fd2c5c44540 not ready due to 0x7fd2c5c42510
0x00007fd2c6015130  b9400fe8		ldr w8, [sp, #12]
0x00007fd2c6015134  12800009		mov w9, #0xffffffff
0x00007fd2c6015138  0b090108		add w8, w8, w9
0x00007fd2c601513c  b9000fe8		str w8, [sp, #12]
[33m[WRN] [0mRobEntry 0x7fd2c5c465a0 not ready due to 0x7fd2c5c46fd0
0x00007fd2c6015140  17fffff4		b #-0x30 (addr 0x7fd2c6015110)
0x00007fd2c6015110  b9400fe8		ldr w8, [sp, #12]
0x00007fd2c6015114  7100051f		cmp w8, #0x1 (1)
0x00007fd2c6015118  54000041		b.ne #+0x8 (addr 0x7fd2c6015120)
0x00007fd2c6015120  b9400fe8		ldr w8, [sp, #12]
0x00007fd2c6015124  b9400be9		ldr w9, [sp, #8]
0x00007fd2c6015128  1b087d28		mul w8, w9, w8
0x00007fd2c601512c  b9000be8		str w8, [sp, #8]
[33m[WRN] [0mRobEntry 0x7fd2c5c51ca0 not ready due to 0x7fd2c5c4fc70
0x00007fd2c6015130  b9400fe8		ldr w8, [sp, #12]
0x00007fd2c6015134  12800009		mov w9, #0xffffffff
0x00007fd2c6015138  0b090108		add w8, w8, w9
0x00007fd2c601513c  b9000fe8		str w8, [sp, #12]
[33m[WRN] [0mRobEntry 0x7fd2c5c53d00 not ready due to 0x7fd2c5c54730
0x00007fd2c6015140  17fffff4		b #-0x30 (addr 0x7fd2c6015110)
0x00007fd2c6015110  b9400fe8		ldr w8, [sp, #12]
0x00007fd2c6015114  7100051f		cmp w8, #0x1 (1)
0x00007fd2c6015118  54000041		b.ne #+0x8 (addr 0x7fd2c6015120)
0x00007fd2c6015120  b9400fe8		ldr w8, [sp, #12]
0x00007fd2c6015124  b9400be9		ldr w9, [sp, #8]
0x00007fd2c6015128  1b087d28		mul w8, w9, w8
0x00007fd2c601512c  b9000be8		str w8, [sp, #8]
[33m[WRN] [0mRobEntry 0x7fd2c5c5d940 not ready due to 0x7fd2c5c58d00
0x00007fd2c6015130  b9400fe8		ldr w8, [sp, #12]
0x00007fd2c6015134  12800009		mov w9, #0xffffffff
0x00007fd2c6015138  0b090108		add w8, w8, w9
0x00007fd2c601513c  b9000fe8		str w8, [sp, #12]
[33m[WRN] [0mRobEntry 0x7fd2c5c5f9b0 not ready due to 0x7fd2c5d01f40
0x00007fd2c6015140  17fffff4		b #-0x30 (addr 0x7fd2c6015110)
0x00007fd2c6015110  b9400fe8		ldr w8, [sp, #12]
0x00007fd2c6015114  7100051f		cmp w8, #0x1 (1)
0x00007fd2c6015118  54000041		b.ne #+0x8 (addr 0x7fd2c6015120)
[33m[WRN] [0m[NZCV] RobCusor 0x7fd2c5e30b60 read-depends on 0x7fd2c5e31368
0x00007fd2c6015120  b9400fe8		ldr w8, [sp, #12]
[33m[WRN] [0m[R31] RobCusor 0x7fd2c5e30bc0 read can go ahead (init)
[33m[WRN] [0m[R8] RobCusor 0x7fd2c5e30bc0 write can go ahead with ticket 0x7fd2c5e31790
[33m[WRN] [0m----------------------Experimental Execute--------------
[33m[WRN] [0mRobEntry 0x7fd2c5e23a60 ready with 0x7fd2c5e22530
[33m[WRN] [0mRobEntry 0x7fd2c5e25b60 not ready due to 0x7fd2c5e26378
[33m[WRN] [0mRobEntry 0x7fd2c5e2a4a0 ready with 0x7fd2c5e267c0
[33m[WRN] [0mRobEntry 0x7fd2c5e2a4a0 ready with 0x7fd2c5e267a0
[33m[WRN] [0mRobEntry 0x7fd2c5e2a4a0 ready with 0x7fd2c5e267c0
[33m[WRN] [0mRobEntry 0x7fd2c5e2a4a0 ready with 0x7fd2c5e267a0
[33m[WRN] [0mRobEntry 0x7fd2c5e2a4a0 ready with 0x7fd2c5e267c0
[33m[WRN] [0mRobEntry 0x7fd2c5e2a4a0 ready with 0x7fd2c5e267a0
[33m[WRN] [0mRobEntry 0x7fd2c5e2cfe0 not ready due to 0x7fd2c5c2a960
[33m[WRN] [0mRobEntry 0x7fd2c5c2d640 not ready due to 0x7fd2c5c2c110
[33m[WRN] [0mRobEntry 0x7fd2c5c2f610 not ready due to 0x7fd2c5c2fe28
[33m[WRN] [0mRobEntry 0x7fd2c5c33f50 not ready due to 0x7fd2c5c30270
[33m[WRN] [0mRobEntry 0x7fd2c5c36a90 not ready due to 0x7fd2c5c377a0
[33m[WRN] [0mRobEntry 0x7fd2c5c030c0 not ready due to 0x7fd2c5c39a60
[33m[WRN] [0mRobEntry 0x7fd2c5c3cf80 not ready due to 0x7fd2c5c3d788
[33m[WRN] [0mRobEntry 0x7fd2c5c41b20 not ready due to 0x7fd2c5c3dbd0
[33m[WRN] [0mRobEntry 0x7fd2c5c44660 not ready due to 0x7fd2c5c45370
[33m[WRN] [0mRobEntry 0x7fd2c5c48970 not ready due to 0x7fd2c5c47440
[33m[WRN] [0mRobEntry 0x7fd2c5c4a940 not ready due to 0x7fd2c5c4b158
[33m[WRN] [0mRobEntry 0x7fd2c5c4f280 not ready due to 0x7fd2c5c4b5a0
[33m[WRN] [0mRobEntry 0x7fd2c5c51dc0 not ready due to 0x7fd2c5c52ad0
[33m[WRN] [0mRobEntry 0x7fd2c5c560d0 not ready due to 0x7fd2c5c54ba0
[33m[WRN] [0mRobEntry 0x7fd2c5c580a0 not ready due to 0x7fd2c5c588b8
[33m[WRN] [0mRobEntry 0x7fd2c5c5c9e0 not ready due to 0x7fd2c5d00110
[33m[WRN] [0mRobEntry 0x7fd2c5c5da60 not ready due to 0x7fd2c5d002c0
[33m[WRN] [0mRobEntry 0x7fd2c5e2ebc0 not ready due to 0x7fd2c5e2ae90
[33m[WRN] [0mRobEntry 0x7fd2c5e30b60 not ready due to 0x7fd2c5e31368
0x00007fd2c6015114  7100051f		cmp w8, #0x1 (1)
[33m[WRN] [0m[0x7fd2c5e23a60] filled ticket 0x7fd2c5e26330
[33m[WRN] [0m[0x7fd2c5e23a60] filled ticket 0x7fd2c5e26348
[33m[WRN] [0m[0x7fd2c5e23a60] filled ticket 0x7fd2c5e26360
[33m[WRN] [0m[0x7fd2c5e23a60] filled ticket 0x7fd2c5e26378
[33m[WRN] [0m[0x7fd2c5e23a60] filled ticket 0x7fd2c5e26330
[33m[WRN] [0m[0x7fd2c5e23a60] filled ticket 0x7fd2c5e26348
[33m[WRN] [0m[0x7fd2c5e23a60] filled ticket 0x7fd2c5e26360
[33m[WRN] [0m[0x7fd2c5e23a60] filled ticket 0x7fd2c5e26378
[33m[WRN] [0m[0x7fd2c5e23a60] filled ticket 0x7fd2c5e26330
[33m[WRN] [0m[0x7fd2c5e23a60] filled ticket 0x7fd2c5e26348
[33m[WRN] [0m[0x7fd2c5e23a60] filled ticket 0x7fd2c5e26360
[33m[WRN] [0m[0x7fd2c5e23a60] filled ticket 0x7fd2c5e26378
[33m[WRN] [0m[0x7fd2c5e23a60] filled ticket 0x7fd2c5e26330
[33m[WRN] [0m[0x7fd2c5e23a60] filled ticket 0x7fd2c5e26348
[33m[WRN] [0m[0x7fd2c5e23a60] filled ticket 0x7fd2c5e26360
[33m[WRN] [0m[0x7fd2c5e23a60] filled ticket 0x7fd2c5e26378
# NZCV: N:0 Z:0 C:1 V:0
[34m[DBG] [0m   Logic[0]: newPc <- 0x7fd2c6015118
0x00007fd2c6015128  1b087d28		mul w8, w9, w8
[33m[WRN] [0m[R8] Speculative write by 0x7fd2c5e2a4a0 val=0x1fffffffe
[33m[WRN] [0m[0x7fd2c5e2a4a0] filled ticket 0x7fd2c5c2a8a0
#    x8: 0x0000000000000002
[34m[DBG] [0m   Logic[1]: speculation no set pc
[34m[DBG] [0m   Scribe: retired 1 ROB entries (now: 0x7fd2c5e23a60:Done)
[34m[DBG] [0m======================================== Update[67/108] 
[34m[DBG] [0m   Fetcher: buffer.size = 2735
[34m[DBG] [0m   Logic: instr executed ? yes: 1
[34m[DBG] [0m   Logic: rStation size <- 63, rsVacancy <- 1
[34m[DBG] [0m======================================== Sync [67/108] 
[34m[DBG] [0m======================================== Cycle End

[34m[DBG] [0m======================================== Compute[68/108]
[34m[DBG] [0mPC Offsest: 0x130
[34m[DBG] [0m   Fetcher: at: 0x7fd2c6015130 (buffer 0:2735)
[34m[DBG] [0m   Fetcher: front instr = 0x7fd2c6015130, fetched 64, tmpBuffer: 64
[34m[DBG] [0m   Decoder: front instr = 0x7fd2c6015134
[34m[DBG] [0m   Decoder: Logic reservation station is full
0x00007fd2c6015118  54000041		b.ne #+0x8 (addr 0x7fd2c6015120)
0x00007fd2c601512c  b9000be8		str w8, [sp, #8]
[33m[WRN] [0mRobEntry 0x7fd2c5e2cec0 ready with 0x7fd2c5c2a8a0
0x00007fd2c6015130  b9400fe8		ldr w8, [sp, #12]
0x00007fd2c6015134  12800009		mov w9, #0xffffffff
0x00007fd2c6015138  0b090108		add w8, w8, w9
0x00007fd2c601513c  b9000fe8		str w8, [sp, #12]
[33m[WRN] [0mRobEntry 0x7fd2c5c230d0 not ready due to 0x7fd2c5c207a0
0x00007fd2c6015140  17fffff4		b #-0x30 (addr 0x7fd2c6015110)
0x00007fd2c6015110  b9400fe8		ldr w8, [sp, #12]
0x00007fd2c6015114  7100051f		cmp w8, #0x1 (1)
0x00007fd2c6015118  54000041		b.ne #+0x8 (addr 0x7fd2c6015120)
0x00007fd2c6015120  b9400fe8		ldr w8, [sp, #12]
0x00007fd2c6015124  b9400be9		ldr w9, [sp, #8]
0x00007fd2c6015128  1b087d28		mul w8, w9, w8
0x00007fd2c601512c  b9000be8		str w8, [sp, #8]
[33m[WRN] [0mRobEntry 0x7fd2c5c36970 not ready due to 0x7fd2c5c34940
0x00007fd2c6015130  b9400fe8		ldr w8, [sp, #12]
0x00007fd2c6015134  12800009		mov w9, #0xffffffff
0x00007fd2c6015138  0b090108		add w8, w8, w9
0x00007fd2c601513c  b9000fe8		str w8, [sp, #12]
[33m[WRN] [0mRobEntry 0x7fd2c5c38bd0 not ready due to 0x7fd2c5c39600
0x00007fd2c6015140  17fffff4		b #-0x30 (addr 0x7fd2c6015110)
0x00007fd2c6015110  b9400fe8		ldr w8, [sp, #12]
0x00007fd2c6015114  7100051f		cmp w8, #0x1 (1)
0x00007fd2c6015118  54000041		b.ne #+0x8 (addr 0x7fd2c6015120)
0x00007fd2c6015120  b9400fe8		ldr w8, [sp, #12]
0x00007fd2c6015124  b9400be9		ldr w9, [sp, #8]
0x00007fd2c6015128  1b087d28		mul w8, w9, w8
0x00007fd2c601512c  b9000be8		str w8, [sp, #8]
[33m[WRN] [0mRobEntry 0x7fd2c5c44540 not ready due to 0x7fd2c5c42510
0x00007fd2c6015130  b9400fe8		ldr w8, [sp, #12]
0x00007fd2c6015134  12800009		mov w9, #0xffffffff
0x00007fd2c6015138  0b090108		add w8, w8, w9
0x00007fd2c601513c  b9000fe8		str w8, [sp, #12]
[33m[WRN] [0mRobEntry 0x7fd2c5c465a0 not ready due to 0x7fd2c5c46fd0
0x00007fd2c6015140  17fffff4		b #-0x30 (addr 0x7fd2c6015110)
0x00007fd2c6015110  b9400fe8		ldr w8, [sp, #12]
0x00007fd2c6015114  7100051f		cmp w8, #0x1 (1)
0x00007fd2c6015118  54000041		b.ne #+0x8 (addr 0x7fd2c6015120)
0x00007fd2c6015120  b9400fe8		ldr w8, [sp, #12]
0x00007fd2c6015124  b9400be9		ldr w9, [sp, #8]
0x00007fd2c6015128  1b087d28		mul w8, w9, w8
0x00007fd2c601512c  b9000be8		str w8, [sp, #8]
[33m[WRN] [0mRobEntry 0x7fd2c5c51ca0 not ready due to 0x7fd2c5c4fc70
0x00007fd2c6015130  b9400fe8		ldr w8, [sp, #12]
0x00007fd2c6015134  12800009		mov w9, #0xffffffff
0x00007fd2c6015138  0b090108		add w8, w8, w9
0x00007fd2c601513c  b9000fe8		str w8, [sp, #12]
[33m[WRN] [0mRobEntry 0x7fd2c5c53d00 not ready due to 0x7fd2c5c54730
0x00007fd2c6015140  17fffff4		b #-0x30 (addr 0x7fd2c6015110)
0x00007fd2c6015110  b9400fe8		ldr w8, [sp, #12]
0x00007fd2c6015114  7100051f		cmp w8, #0x1 (1)
0x00007fd2c6015118  54000041		b.ne #+0x8 (addr 0x7fd2c6015120)
0x00007fd2c6015120  b9400fe8		ldr w8, [sp, #12]
0x00007fd2c6015124  b9400be9		ldr w9, [sp, #8]
0x00007fd2c6015128  1b087d28		mul w8, w9, w8
0x00007fd2c601512c  b9000be8		str w8, [sp, #8]
[33m[WRN] [0mRobEntry 0x7fd2c5c5d940 not ready due to 0x7fd2c5c58d00
0x00007fd2c6015130  b9400fe8		ldr w8, [sp, #12]
0x00007fd2c6015134  12800009		mov w9, #0xffffffff
0x00007fd2c6015138  0b090108		add w8, w8, w9
0x00007fd2c601513c  b9000fe8		str w8, [sp, #12]
[33m[WRN] [0mRobEntry 0x7fd2c5c5f9b0 not ready due to 0x7fd2c5d01f40
0x00007fd2c6015140  17fffff4		b #-0x30 (addr 0x7fd2c6015110)
0x00007fd2c6015110  b9400fe8		ldr w8, [sp, #12]
0x00007fd2c6015114  7100051f		cmp w8, #0x1 (1)
0x00007fd2c6015118  54000041		b.ne #+0x8 (addr 0x7fd2c6015120)
0x00007fd2c6015120  b9400fe8		ldr w8, [sp, #12]
0x00007fd2c6015124  b9400be9		ldr w9, [sp, #8]
[33m[WRN] [0m[R31] RobCusor 0x7fd2c5e32cd0 read can go ahead (init)
[33m[WRN] [0m[R9] RobCusor 0x7fd2c5e32cd0 write can go ahead with ticket 0x7fd2c5e317b0
[33m[WRN] [0m----------------------Experimental Execute--------------
[33m[WRN] [0mRobEntry 0x7fd2c5e25b60 ready with 0x7fd2c5e26378
[33m[WRN] [0mRobEntry 0x7fd2c5e2cfe0 not ready due to 0x7fd2c5c2a960
[33m[WRN] [0mRobEntry 0x7fd2c5c2d640 not ready due to 0x7fd2c5c2c110
[33m[WRN] [0mRobEntry 0x7fd2c5c2f610 not ready due to 0x7fd2c5c2fe28
[33m[WRN] [0mRobEntry 0x7fd2c5c33f50 not ready due to 0x7fd2c5c30270
[33m[WRN] [0mRobEntry 0x7fd2c5c36a90 not ready due to 0x7fd2c5c377a0
[33m[WRN] [0mRobEntry 0x7fd2c5c030c0 not ready due to 0x7fd2c5c39a60
[33m[WRN] [0mRobEntry 0x7fd2c5c3cf80 not ready due to 0x7fd2c5c3d788
[33m[WRN] [0mRobEntry 0x7fd2c5c41b20 not ready due to 0x7fd2c5c3dbd0
[33m[WRN] [0mRobEntry 0x7fd2c5c44660 not ready due to 0x7fd2c5c45370
[33m[WRN] [0mRobEntry 0x7fd2c5c48970 not ready due to 0x7fd2c5c47440
[33m[WRN] [0mRobEntry 0x7fd2c5c4a940 not ready due to 0x7fd2c5c4b158
[33m[WRN] [0mRobEntry 0x7fd2c5c4f280 not ready due to 0x7fd2c5c4b5a0
[33m[WRN] [0mRobEntry 0x7fd2c5c51dc0 not ready due to 0x7fd2c5c52ad0
[33m[WRN] [0mRobEntry 0x7fd2c5c560d0 not ready due to 0x7fd2c5c54ba0
[33m[WRN] [0mRobEntry 0x7fd2c5c580a0 not ready due to 0x7fd2c5c588b8
[33m[WRN] [0mRobEntry 0x7fd2c5c5c9e0 not ready due to 0x7fd2c5d00110
[33m[WRN] [0mRobEntry 0x7fd2c5c5da60 not ready due to 0x7fd2c5d002c0
[33m[WRN] [0mRobEntry 0x7fd2c5e2ebc0 not ready due to 0x7fd2c5e2ae90
[33m[WRN] [0mRobEntry 0x7fd2c5e30b60 not ready due to 0x7fd2c5e31368
0x00007fd2c6015118  54000041		b.ne #+0x8 (addr 0x7fd2c6015120)
#    pc: 0x7fd2c6015120 (by 0x7fd2c5e25b60)
[33m[WRN] [0m[0x7fd2c5e25b60] filled ticket 0x7fd2c5e24780
[34m[DBG] [0m   Logic[0]: newPc <- 0x7fd2c6015120
0x00007fd2c6015130  b9400fe8		ldr w8, [sp, #12]
[33m[WRN] [0m[R31] RobEntry 0x7fd2c5e2cf20 reads init val 0x0
[34m[DBG] [0m[MEM] read addr=0x7fd2c601d2dc len=0x4 val=0x2
[33m[WRN] [0m[R8] Speculative write by 0x7fd2c5e2cf20 val=0x2
[33m[WRN] [0m[0x7fd2c5e2cf20] filled ticket 0x7fd2c5c2a940
#    x8: 0x0000000000000002 <- 0x00007fd2c601d2dc
[34m[DBG] [0m   Logic[1]: speculation no set pc
[34m[DBG] [0m   Scribe: retired 1 ROB entries (now: 0x7fd2c5e25b60:Done)
[34m[DBG] [0m======================================== Update[68/109] 
[34m[DBG] [0m   Fetcher: buffer.size = 2798
[34m[DBG] [0m   Logic: Branch prediction 0x7fd2c6015118 was correct: 16
[34m[DBG] [0m   Logic: Correct branch: 0x7fd2c5e25b60 succ 0x7fd2c5e25bc0
[34m[DBG] [0m   Logic: 0x7fd2c5e25b60 affirmed speculative RobEntry 0x7fd2c5e25bc0
[34m[DBG] [0m   Logic: 0x7fd2c5e25b60 enacting RobEntry 0x7fd2c5e25bc0
0x00007fd2c6015120  b9400fe8		ldr w8, [sp, #12]
[33m[WRN] [0m[R31] RobEntry 0x7fd2c5e25bc0 reads init val 0x0
[34m[DBG] [0m[MEM] read addr=0x7fd2c601d2dc len=0x4 val=0x2
[33m[WRN] [0m[0x7fd2c5e25bc0] filled ticket 0x7fd2c5e267a0
#    x8: 0x0000000000000002 <- 0x00007fd2c601d2dc
[34m[DBG] [0m   Logic: 0x7fd2c5e25b60 affirmed speculative RobEntry 0x7fd2c5e27ce0
[34m[DBG] [0m   Logic: 0x7fd2c5e25b60 enacting RobEntry 0x7fd2c5e27ce0
0x00007fd2c6015124  b9400be9		ldr w9, [sp, #8]
[33m[WRN] [0m[R31] RobEntry 0x7fd2c5e27ce0 reads init val 0x0
[34m[DBG] [0m[MEM] read addr=0x7fd2c601d2d8 len=0x4 val=0x1baf80
[33m[WRN] [0m[0x7fd2c5e27ce0] filled ticket 0x7fd2c5e267c0
#    x9: 0x00000000001baf80 <- 0x00007fd2c601d2d8
[34m[DBG] [0m   Logic: 0x7fd2c5e25b60 affirmed speculative RobEntry 0x7fd2c5e2a4a0
[34m[DBG] [0m   Logic: 0x7fd2c5e25b60 enacting RobEntry 0x7fd2c5e2a4a0
0x00007fd2c6015128  1b087d28		mul w8, w9, w8
[33m[WRN] [0m[0x7fd2c5e2a4a0] filled ticket 0x7fd2c5c2a8a0
#    x8: 0x0000000000375f00
[34m[DBG] [0m   Logic: 0x7fd2c5e25b60 affirmed speculative RobEntry 0x7fd2c5e2cec0
[34m[DBG] [0m   Logic: 0x7fd2c5e25b60 affirmed speculative RobEntry 0x7fd2c5e2cf20
[34m[DBG] [0m   Logic: 0x7fd2c5e25b60 enacting RobEntry 0x7fd2c5e2cf20
0x00007fd2c6015130  b9400fe8		ldr w8, [sp, #12]
[33m[WRN] [0m[R31] RobEntry 0x7fd2c5e2cf20 reads init val 0x0
[34m[DBG] [0m[MEM] read addr=0x7fd2c601d2dc len=0x4 val=0x2
[33m[WRN] [0m[0x7fd2c5e2cf20] filled ticket 0x7fd2c5c2a940
#    x8: 0x0000000000000002 <- 0x00007fd2c601d2dc
[34m[DBG] [0m   Logic: 0x7fd2c5e25b60 affirmed speculative RobEntry 0x7fd2c5e2cf80
[34m[DBG] [0m   Logic: 0x7fd2c5e25b60 affirmed speculative RobEntry 0x7fd2c5e2cfe0
[34m[DBG] [0m   Logic: 0x7fd2c5e25b60 affirmed speculative RobEntry 0x7fd2c5c230d0
[34m[DBG] [0m   Logic: 0x7fd2c5e25b60 affirmed speculative RobEntry 0x7fd2c5c2b300
[34m[DBG] [0m   Logic: instr executed ? yes: 4
[34m[DBG] [0m   Logic: rStation size <- 60, rsVacancy <- 4
[34m[DBG] [0m======================================== Sync [68/109] 
[34m[DBG] [0m======================================== Cycle End

[34m[DBG] [0m======================================== Compute[69/109]
[34m[DBG] [0mPC Offsest: 0x140
[34m[DBG] [0m   Fetcher: at: 0x7fd2c6015140 (buffer 0:2798)
[34m[DBG] [0m   Fetcher: front instr = 0x7fd2c6015140, fetched 64, tmpBuffer: 64
[34m[DBG] [0m   Decoder: front instr = 0x7fd2c6015138
[34m[DBG] [0m   Decoder: Logic reservation station is full
0x00007fd2c601512c  b9000be8		str w8, [sp, #8]
[33m[WRN] [0mRobEntry 0x7fd2c5e2cec0 ready with 0x7fd2c5c2a8a0
0x00007fd2c6015134  12800009		mov w9, #0xffffffff
0x00007fd2c6015138  0b090108		add w8, w8, w9
0x00007fd2c601513c  b9000fe8		str w8, [sp, #12]
[33m[WRN] [0mRobEntry 0x7fd2c5c230d0 not ready due to 0x7fd2c5c207a0
0x00007fd2c6015140  17fffff4		b #-0x30 (addr 0x7fd2c6015110)
0x00007fd2c6015110  b9400fe8		ldr w8, [sp, #12]
0x00007fd2c6015114  7100051f		cmp w8, #0x1 (1)
0x00007fd2c6015118  54000041		b.ne #+0x8 (addr 0x7fd2c6015120)
0x00007fd2c6015120  b9400fe8		ldr w8, [sp, #12]
0x00007fd2c6015124  b9400be9		ldr w9, [sp, #8]
0x00007fd2c6015128  1b087d28		mul w8, w9, w8
0x00007fd2c601512c  b9000be8		str w8, [sp, #8]
[33m[WRN] [0mRobEntry 0x7fd2c5c36970 not ready due to 0x7fd2c5c34940
0x00007fd2c6015130  b9400fe8		ldr w8, [sp, #12]
0x00007fd2c6015134  12800009		mov w9, #0xffffffff
0x00007fd2c6015138  0b090108		add w8, w8, w9
0x00007fd2c601513c  b9000fe8		str w8, [sp, #12]
[33m[WRN] [0mRobEntry 0x7fd2c5c38bd0 not ready due to 0x7fd2c5c39600
0x00007fd2c6015140  17fffff4		b #-0x30 (addr 0x7fd2c6015110)
0x00007fd2c6015110  b9400fe8		ldr w8, [sp, #12]
0x00007fd2c6015114  7100051f		cmp w8, #0x1 (1)
0x00007fd2c6015118  54000041		b.ne #+0x8 (addr 0x7fd2c6015120)
0x00007fd2c6015120  b9400fe8		ldr w8, [sp, #12]
0x00007fd2c6015124  b9400be9		ldr w9, [sp, #8]
0x00007fd2c6015128  1b087d28		mul w8, w9, w8
0x00007fd2c601512c  b9000be8		str w8, [sp, #8]
[33m[WRN] [0mRobEntry 0x7fd2c5c44540 not ready due to 0x7fd2c5c42510
0x00007fd2c6015130  b9400fe8		ldr w8, [sp, #12]
0x00007fd2c6015134  12800009		mov w9, #0xffffffff
0x00007fd2c6015138  0b090108		add w8, w8, w9
0x00007fd2c601513c  b9000fe8		str w8, [sp, #12]
[33m[WRN] [0mRobEntry 0x7fd2c5c465a0 not ready due to 0x7fd2c5c46fd0
0x00007fd2c6015140  17fffff4		b #-0x30 (addr 0x7fd2c6015110)
0x00007fd2c6015110  b9400fe8		ldr w8, [sp, #12]
0x00007fd2c6015114  7100051f		cmp w8, #0x1 (1)
0x00007fd2c6015118  54000041		b.ne #+0x8 (addr 0x7fd2c6015120)
0x00007fd2c6015120  b9400fe8		ldr w8, [sp, #12]
0x00007fd2c6015124  b9400be9		ldr w9, [sp, #8]
0x00007fd2c6015128  1b087d28		mul w8, w9, w8
0x00007fd2c601512c  b9000be8		str w8, [sp, #8]
[33m[WRN] [0mRobEntry 0x7fd2c5c51ca0 not ready due to 0x7fd2c5c4fc70
0x00007fd2c6015130  b9400fe8		ldr w8, [sp, #12]
0x00007fd2c6015134  12800009		mov w9, #0xffffffff
0x00007fd2c6015138  0b090108		add w8, w8, w9
0x00007fd2c601513c  b9000fe8		str w8, [sp, #12]
[33m[WRN] [0mRobEntry 0x7fd2c5c53d00 not ready due to 0x7fd2c5c54730
0x00007fd2c6015140  17fffff4		b #-0x30 (addr 0x7fd2c6015110)
0x00007fd2c6015110  b9400fe8		ldr w8, [sp, #12]
0x00007fd2c6015114  7100051f		cmp w8, #0x1 (1)
0x00007fd2c6015118  54000041		b.ne #+0x8 (addr 0x7fd2c6015120)
0x00007fd2c6015120  b9400fe8		ldr w8, [sp, #12]
0x00007fd2c6015124  b9400be9		ldr w9, [sp, #8]
0x00007fd2c6015128  1b087d28		mul w8, w9, w8
0x00007fd2c601512c  b9000be8		str w8, [sp, #8]
[33m[WRN] [0mRobEntry 0x7fd2c5c5d940 not ready due to 0x7fd2c5c58d00
0x00007fd2c6015130  b9400fe8		ldr w8, [sp, #12]
0x00007fd2c6015134  12800009		mov w9, #0xffffffff
0x00007fd2c6015138  0b090108		add w8, w8, w9
0x00007fd2c601513c  b9000fe8		str w8, [sp, #12]
[33m[WRN] [0mRobEntry 0x7fd2c5c5f9b0 not ready due to 0x7fd2c5d01f40
0x00007fd2c6015140  17fffff4		b #-0x30 (addr 0x7fd2c6015110)
0x00007fd2c6015110  b9400fe8		ldr w8, [sp, #12]
0x00007fd2c6015114  7100051f		cmp w8, #0x1 (1)
0x00007fd2c6015118  54000041		b.ne #+0x8 (addr 0x7fd2c6015120)
0x00007fd2c6015120  b9400fe8		ldr w8, [sp, #12]
0x00007fd2c6015124  b9400be9		ldr w9, [sp, #8]
0x00007fd2c6015128  1b087d28		mul w8, w9, w8
[33m[WRN] [0m[R9] RobCusor 0x7fd2c5e35490 read-depends on 0x7fd2c5e317b0
[33m[WRN] [0m[R8] RobCusor 0x7fd2c5e35490 read-depends on 0x7fd2c5e31790
[33m[WRN] [0m[R9] RobCusor 0x7fd2c5e35490 read-depends on 0x7fd2c5e317b0
[33m[WRN] [0m[R8] RobCusor 0x7fd2c5e35490 read-depends on 0x7fd2c5e31790
[33m[WRN] [0m[R9] RobCusor 0x7fd2c5e35490 read-depends on 0x7fd2c5e317b0
[33m[WRN] [0m[R8] RobCusor 0x7fd2c5e35490 read-depends on 0x7fd2c5e31790
[33m[WRN] [0m[R8] RobCusor 0x7fd2c5e35490 write can go ahead with ticket 0x7fd2c5e35e80
[33m[WRN] [0m----------------------Experimental Execute--------------
[33m[WRN] [0mRobEntry 0x7fd2c5e2cec0 ready with 0x7fd2c5c2a8a0
[33m[WRN] [0mRobEntry 0x7fd2c5e2cfe0 not ready due to 0x7fd2c5c2a960
[33m[WRN] [0mRobEntry 0x7fd2c5c2d640 not ready due to 0x7fd2c5c2c110
[33m[WRN] [0mRobEntry 0x7fd2c5c2f610 not ready due to 0x7fd2c5c2fe28
[33m[WRN] [0mRobEntry 0x7fd2c5c33f50 not ready due to 0x7fd2c5c30270
[33m[WRN] [0mRobEntry 0x7fd2c5c36a90 not ready due to 0x7fd2c5c377a0
[33m[WRN] [0mRobEntry 0x7fd2c5c030c0 not ready due to 0x7fd2c5c39a60
[33m[WRN] [0mRobEntry 0x7fd2c5c3cf80 not ready due to 0x7fd2c5c3d788
[33m[WRN] [0mRobEntry 0x7fd2c5c41b20 not ready due to 0x7fd2c5c3dbd0
[33m[WRN] [0mRobEntry 0x7fd2c5c44660 not ready due to 0x7fd2c5c45370
[33m[WRN] [0mRobEntry 0x7fd2c5c48970 not ready due to 0x7fd2c5c47440
[33m[WRN] [0mRobEntry 0x7fd2c5c4a940 not ready due to 0x7fd2c5c4b158
[33m[WRN] [0mRobEntry 0x7fd2c5c4f280 not ready due to 0x7fd2c5c4b5a0
[33m[WRN] [0mRobEntry 0x7fd2c5c51dc0 not ready due to 0x7fd2c5c52ad0
[33m[WRN] [0mRobEntry 0x7fd2c5c560d0 not ready due to 0x7fd2c5c54ba0
[33m[WRN] [0mRobEntry 0x7fd2c5c580a0 not ready due to 0x7fd2c5c588b8
[33m[WRN] [0mRobEntry 0x7fd2c5c5c9e0 not ready due to 0x7fd2c5d00110
[33m[WRN] [0mRobEntry 0x7fd2c5c5da60 not ready due to 0x7fd2c5d002c0
[33m[WRN] [0mRobEntry 0x7fd2c5e2ebc0 not ready due to 0x7fd2c5e2ae90
[33m[WRN] [0mRobEntry 0x7fd2c5e30b60 not ready due to 0x7fd2c5e31368
[33m[WRN] [0mRobEntry 0x7fd2c5e35490 not ready due to 0x7fd2c5e317b0
0x00007fd2c601512c  b9000be8		str w8, [sp, #8]
[33m[WRN] [0m[R31] RobEntry 0x7fd2c5e2cec0 reads init val 0x0
[33m[WRN] [0mReal write: 0x7fd2c601d2d8, 0x375f00
#    w8:         0x00000002 -> 0x00007fd2c601d2d8
[34m[DBG] [0m   Logic[0]: newPc <- 0x7fd2c6015130
0x00007fd2c6015134  12800009		mov w9, #0xffffffff
[33m[WRN] [0m[0x7fd2c5e2cf80] filled ticket 0x7fd2c5c2a960
#    x9: 0x00000000ffffffff
[34m[DBG] [0m   Logic[1]: newPc <- 0x7fd2c6015138
[34m[DBG] [0m   Scribe: retired 4 ROB entries (now: 0x7fd2c5e2cec0:Done)
[34m[DBG] [0m======================================== Update[69/113] 
[34m[DBG] [0m   Fetcher: buffer.size = 2861
[34m[DBG] [0m   Logic: instr executed ? yes: 3
[34m[DBG] [0m   Logic: rStation size <- 61, rsVacancy <- 3
[34m[DBG] [0m======================================== Sync [69/113] 
[34m[DBG] [0m======================================== Cycle End

[34m[DBG] [0m======================================== Compute[70/113]
[34m[DBG] [0mPC Offsest: 0x120
[34m[DBG] [0m   Fetcher: at: 0x7fd2c6015120 (buffer 0:2861)
[34m[DBG] [0m   Fetcher: front instr = 0x7fd2c6015120, fetched 64, tmpBuffer: 64
[34m[DBG] [0m   Decoder: front instr = 0x7fd2c601513c
[34m[DBG] [0m   Decoder: Logic reservation station is full
0x00007fd2c6015138  0b090108		add w8, w8, w9
0x00007fd2c601513c  b9000fe8		str w8, [sp, #12]
[33m[WRN] [0mRobEntry 0x7fd2c5c230d0 not ready due to 0x7fd2c5c207a0
0x00007fd2c6015140  17fffff4		b #-0x30 (addr 0x7fd2c6015110)
0x00007fd2c6015110  b9400fe8		ldr w8, [sp, #12]
0x00007fd2c6015114  7100051f		cmp w8, #0x1 (1)
0x00007fd2c6015118  54000041		b.ne #+0x8 (addr 0x7fd2c6015120)
0x00007fd2c6015120  b9400fe8		ldr w8, [sp, #12]
0x00007fd2c6015124  b9400be9		ldr w9, [sp, #8]
0x00007fd2c6015128  1b087d28		mul w8, w9, w8
0x00007fd2c601512c  b9000be8		str w8, [sp, #8]
[33m[WRN] [0mRobEntry 0x7fd2c5c36970 not ready due to 0x7fd2c5c34940
0x00007fd2c6015130  b9400fe8		ldr w8, [sp, #12]
0x00007fd2c6015134  12800009		mov w9, #0xffffffff
0x00007fd2c6015138  0b090108		add w8, w8, w9
0x00007fd2c601513c  b9000fe8		str w8, [sp, #12]
[33m[WRN] [0mRobEntry 0x7fd2c5c38bd0 not ready due to 0x7fd2c5c39600
0x00007fd2c6015140  17fffff4		b #-0x30 (addr 0x7fd2c6015110)
0x00007fd2c6015110  b9400fe8		ldr w8, [sp, #12]
0x00007fd2c6015114  7100051f		cmp w8, #0x1 (1)
0x00007fd2c6015118  54000041		b.ne #+0x8 (addr 0x7fd2c6015120)
0x00007fd2c6015120  b9400fe8		ldr w8, [sp, #12]
0x00007fd2c6015124  b9400be9		ldr w9, [sp, #8]
0x00007fd2c6015128  1b087d28		mul w8, w9, w8
0x00007fd2c601512c  b9000be8		str w8, [sp, #8]
[33m[WRN] [0mRobEntry 0x7fd2c5c44540 not ready due to 0x7fd2c5c42510
0x00007fd2c6015130  b9400fe8		ldr w8, [sp, #12]
0x00007fd2c6015134  12800009		mov w9, #0xffffffff
0x00007fd2c6015138  0b090108		add w8, w8, w9
0x00007fd2c601513c  b9000fe8		str w8, [sp, #12]
[33m[WRN] [0mRobEntry 0x7fd2c5c465a0 not ready due to 0x7fd2c5c46fd0
0x00007fd2c6015140  17fffff4		b #-0x30 (addr 0x7fd2c6015110)
0x00007fd2c6015110  b9400fe8		ldr w8, [sp, #12]
0x00007fd2c6015114  7100051f		cmp w8, #0x1 (1)
0x00007fd2c6015118  54000041		b.ne #+0x8 (addr 0x7fd2c6015120)
0x00007fd2c6015120  b9400fe8		ldr w8, [sp, #12]
0x00007fd2c6015124  b9400be9		ldr w9, [sp, #8]
0x00007fd2c6015128  1b087d28		mul w8, w9, w8
0x00007fd2c601512c  b9000be8		str w8, [sp, #8]
[33m[WRN] [0mRobEntry 0x7fd2c5c51ca0 not ready due to 0x7fd2c5c4fc70
0x00007fd2c6015130  b9400fe8		ldr w8, [sp, #12]
0x00007fd2c6015134  12800009		mov w9, #0xffffffff
0x00007fd2c6015138  0b090108		add w8, w8, w9
0x00007fd2c601513c  b9000fe8		str w8, [sp, #12]
[33m[WRN] [0mRobEntry 0x7fd2c5c53d00 not ready due to 0x7fd2c5c54730
0x00007fd2c6015140  17fffff4		b #-0x30 (addr 0x7fd2c6015110)
0x00007fd2c6015110  b9400fe8		ldr w8, [sp, #12]
0x00007fd2c6015114  7100051f		cmp w8, #0x1 (1)
0x00007fd2c6015118  54000041		b.ne #+0x8 (addr 0x7fd2c6015120)
0x00007fd2c6015120  b9400fe8		ldr w8, [sp, #12]
0x00007fd2c6015124  b9400be9		ldr w9, [sp, #8]
0x00007fd2c6015128  1b087d28		mul w8, w9, w8
0x00007fd2c601512c  b9000be8		str w8, [sp, #8]
[33m[WRN] [0mRobEntry 0x7fd2c5c5d940 not ready due to 0x7fd2c5c58d00
0x00007fd2c6015130  b9400fe8		ldr w8, [sp, #12]
0x00007fd2c6015134  12800009		mov w9, #0xffffffff
0x00007fd2c6015138  0b090108		add w8, w8, w9
0x00007fd2c601513c  b9000fe8		str w8, [sp, #12]
[33m[WRN] [0mRobEntry 0x7fd2c5c5f9b0 not ready due to 0x7fd2c5d01f40
0x00007fd2c6015140  17fffff4		b #-0x30 (addr 0x7fd2c6015110)
0x00007fd2c6015110  b9400fe8		ldr w8, [sp, #12]
0x00007fd2c6015114  7100051f		cmp w8, #0x1 (1)
0x00007fd2c6015118  54000041		b.ne #+0x8 (addr 0x7fd2c6015120)
0x00007fd2c6015120  b9400fe8		ldr w8, [sp, #12]
0x00007fd2c6015124  b9400be9		ldr w9, [sp, #8]
0x00007fd2c6015128  1b087d28		mul w8, w9, w8
0x00007fd2c601512c  b9000be8		str w8, [sp, #8]
[33m[WRN] [0m[R31] RobCusor 0x7fd2c5e37eb0 read can go ahead (init)
[33m[WRN] [0m[R8] RobCusor 0x7fd2c5e37eb0 read-depends on 0x7fd2c5e35e80
[33m[WRN] [0mRobEntry 0x7fd2c5e37eb0 not ready due to 0x7fd2c5e35e80
0x00007fd2c6015130  b9400fe8		ldr w8, [sp, #12]
[33m[WRN] [0m[R31] RobCusor 0x7fd2c5e37f10 read can go ahead (init)
[33m[WRN] [0m[R8] RobCusor 0x7fd2c5e37f10 write can go ahead with ticket 0x7fd2c5e38ab0
0x00007fd2c6015134  12800009		mov w9, #0xffffffff
[33m[WRN] [0m[R9] RobCusor 0x7fd2c5e37f70 write can go ahead with ticket 0x7fd2c5e38ce0
0x00007fd2c6015138  0b090108		add w8, w8, w9
[33m[WRN] [0m[R9] RobCusor 0x7fd2c5e37fd0 read-depends on 0x7fd2c5e38ce0
[33m[WRN] [0m[R8] RobCusor 0x7fd2c5e37fd0 read-depends on 0x7fd2c5e38ab0
[33m[WRN] [0m[R8] RobCusor 0x7fd2c5e37fd0 write can go ahead with ticket 0x7fd2c5e3a940
[33m[WRN] [0m----------------------Experimental Execute--------------
[33m[WRN] [0mRobEntry 0x7fd2c5e2cfe0 ready with 0x7fd2c5c2a960
[33m[WRN] [0mRobEntry 0x7fd2c5e2cfe0 ready with 0x7fd2c5c2a940
[33m[WRN] [0mRobEntry 0x7fd2c5c2d640 not ready due to 0x7fd2c5c2c110
[33m[WRN] [0mRobEntry 0x7fd2c5c2f610 not ready due to 0x7fd2c5c2fe28
[33m[WRN] [0mRobEntry 0x7fd2c5c33f50 not ready due to 0x7fd2c5c30270
[33m[WRN] [0mRobEntry 0x7fd2c5c36a90 not ready due to 0x7fd2c5c377a0
[33m[WRN] [0mRobEntry 0x7fd2c5c030c0 not ready due to 0x7fd2c5c39a60
[33m[WRN] [0mRobEntry 0x7fd2c5c3cf80 not ready due to 0x7fd2c5c3d788
[33m[WRN] [0mRobEntry 0x7fd2c5c41b20 not ready due to 0x7fd2c5c3dbd0
[33m[WRN] [0mRobEntry 0x7fd2c5c44660 not ready due to 0x7fd2c5c45370
[33m[WRN] [0mRobEntry 0x7fd2c5c48970 not ready due to 0x7fd2c5c47440
[33m[WRN] [0mRobEntry 0x7fd2c5c4a940 not ready due to 0x7fd2c5c4b158
[33m[WRN] [0mRobEntry 0x7fd2c5c4f280 not ready due to 0x7fd2c5c4b5a0
[33m[WRN] [0mRobEntry 0x7fd2c5c51dc0 not ready due to 0x7fd2c5c52ad0
[33m[WRN] [0mRobEntry 0x7fd2c5c560d0 not ready due to 0x7fd2c5c54ba0
[33m[WRN] [0mRobEntry 0x7fd2c5c580a0 not ready due to 0x7fd2c5c588b8
[33m[WRN] [0mRobEntry 0x7fd2c5c5c9e0 not ready due to 0x7fd2c5d00110
[33m[WRN] [0mRobEntry 0x7fd2c5c5da60 not ready due to 0x7fd2c5d002c0
[33m[WRN] [0mRobEntry 0x7fd2c5e2ebc0 not ready due to 0x7fd2c5e2ae90
[33m[WRN] [0mRobEntry 0x7fd2c5e30b60 not ready due to 0x7fd2c5e31368
[33m[WRN] [0mRobEntry 0x7fd2c5e35490 not ready due to 0x7fd2c5e317b0
[33m[WRN] [0mRobEntry 0x7fd2c5e37fd0 not ready due to 0x7fd2c5e38ce0
0x00007fd2c6015138  0b090108		add w8, w8, w9
[33m[WRN] [0m[0x7fd2c5e2cfe0] filled ticket 0x7fd2c5c207a0
#    x8: 0x0000000000000001
[34m[DBG] [0m   Logic[0]: newPc <- 0x7fd2c601513c
0x00007fd2c6015140  17fffff4		b #-0x30 (addr 0x7fd2c6015110)
#    pc: 0x7fd2c6015110 (by 0x7fd2c5c2b300)
[33m[WRN] [0m[0x7fd2c5c2b300] filled ticket 0x7fd2c5c2bec0
[34m[DBG] [0m   Logic[1]: newPc <- 0x7fd2c6015110
[34m[DBG] [0m   Scribe: retired 3 ROB entries (now: 0x7fd2c5e2cfe0:Done)
[34m[DBG] [0m======================================== Update[70/116] 
[34m[DBG] [0m   Fetcher: buffer.size = 2921
[34m[DBG] [0m   Logic: Branch prediction 0x7fd2c6015140 was correct: 17
[34m[DBG] [0m   Logic: Correct branch: 0x7fd2c5c2b300 succ 0x7fd2c5c2b360
[34m[DBG] [0m   Logic: 0x7fd2c5c2b300 affirmed speculative RobEntry 0x7fd2c5c2b360
[34m[DBG] [0m   Logic: 0x7fd2c5c2b300 affirmed speculative RobEntry 0x7fd2c5c2d640
[34m[DBG] [0m   Logic: 0x7fd2c5c2b300 affirmed speculative RobEntry 0x7fd2c5c2f610
[34m[DBG] [0m   Logic: instr executed ? yes: 1
[34m[DBG] [0m   Logic: rStation size <- 63, rsVacancy <- 1
[34m[DBG] [0m======================================== Sync [70/116] 
[34m[DBG] [0m======================================== Cycle End

[34m[DBG] [0m======================================== Compute[71/116]
[34m[DBG] [0mPC Offsest: 0x130
[34m[DBG] [0m   Fetcher: at: 0x7fd2c6015130 (buffer 0:2921)
[34m[DBG] [0m   Fetcher: front instr = 0x7fd2c6015130, fetched 64, tmpBuffer: 64
[34m[DBG] [0m   Decoder: front instr = 0x7fd2c6015118
[34m[DBG] [0m   Decoder: Logic reservation station is full
0x00007fd2c601513c  b9000fe8		str w8, [sp, #12]
[33m[WRN] [0mRobEntry 0x7fd2c5c230d0 ready with 0x7fd2c5c207a0
0x00007fd2c6015110  b9400fe8		ldr w8, [sp, #12]
0x00007fd2c6015114  7100051f		cmp w8, #0x1 (1)
0x00007fd2c6015118  54000041		b.ne #+0x8 (addr 0x7fd2c6015120)
0x00007fd2c6015120  b9400fe8		ldr w8, [sp, #12]
0x00007fd2c6015124  b9400be9		ldr w9, [sp, #8]
0x00007fd2c6015128  1b087d28		mul w8, w9, w8
0x00007fd2c601512c  b9000be8		str w8, [sp, #8]
[33m[WRN] [0mRobEntry 0x7fd2c5c36970 not ready due to 0x7fd2c5c34940
0x00007fd2c6015130  b9400fe8		ldr w8, [sp, #12]
0x00007fd2c6015134  12800009		mov w9, #0xffffffff
0x00007fd2c6015138  0b090108		add w8, w8, w9
0x00007fd2c601513c  b9000fe8		str w8, [sp, #12]
[33m[WRN] [0mRobEntry 0x7fd2c5c38bd0 not ready due to 0x7fd2c5c39600
0x00007fd2c6015140  17fffff4		b #-0x30 (addr 0x7fd2c6015110)
0x00007fd2c6015110  b9400fe8		ldr w8, [sp, #12]
0x00007fd2c6015114  7100051f		cmp w8, #0x1 (1)
0x00007fd2c6015118  54000041		b.ne #+0x8 (addr 0x7fd2c6015120)
0x00007fd2c6015120  b9400fe8		ldr w8, [sp, #12]
0x00007fd2c6015124  b9400be9		ldr w9, [sp, #8]
0x00007fd2c6015128  1b087d28		mul w8, w9, w8
0x00007fd2c601512c  b9000be8		str w8, [sp, #8]
[33m[WRN] [0mRobEntry 0x7fd2c5c44540 not ready due to 0x7fd2c5c42510
0x00007fd2c6015130  b9400fe8		ldr w8, [sp, #12]
0x00007fd2c6015134  12800009		mov w9, #0xffffffff
0x00007fd2c6015138  0b090108		add w8, w8, w9
0x00007fd2c601513c  b9000fe8		str w8, [sp, #12]
[33m[WRN] [0mRobEntry 0x7fd2c5c465a0 not ready due to 0x7fd2c5c46fd0
0x00007fd2c6015140  17fffff4		b #-0x30 (addr 0x7fd2c6015110)
0x00007fd2c6015110  b9400fe8		ldr w8, [sp, #12]
0x00007fd2c6015114  7100051f		cmp w8, #0x1 (1)
0x00007fd2c6015118  54000041		b.ne #+0x8 (addr 0x7fd2c6015120)
0x00007fd2c6015120  b9400fe8		ldr w8, [sp, #12]
0x00007fd2c6015124  b9400be9		ldr w9, [sp, #8]
0x00007fd2c6015128  1b087d28		mul w8, w9, w8
0x00007fd2c601512c  b9000be8		str w8, [sp, #8]
[33m[WRN] [0mRobEntry 0x7fd2c5c51ca0 not ready due to 0x7fd2c5c4fc70
0x00007fd2c6015130  b9400fe8		ldr w8, [sp, #12]
0x00007fd2c6015134  12800009		mov w9, #0xffffffff
0x00007fd2c6015138  0b090108		add w8, w8, w9
0x00007fd2c601513c  b9000fe8		str w8, [sp, #12]
[33m[WRN] [0mRobEntry 0x7fd2c5c53d00 not ready due to 0x7fd2c5c54730
0x00007fd2c6015140  17fffff4		b #-0x30 (addr 0x7fd2c6015110)
0x00007fd2c6015110  b9400fe8		ldr w8, [sp, #12]
0x00007fd2c6015114  7100051f		cmp w8, #0x1 (1)
0x00007fd2c6015118  54000041		b.ne #+0x8 (addr 0x7fd2c6015120)
0x00007fd2c6015120  b9400fe8		ldr w8, [sp, #12]
0x00007fd2c6015124  b9400be9		ldr w9, [sp, #8]
0x00007fd2c6015128  1b087d28		mul w8, w9, w8
0x00007fd2c601512c  b9000be8		str w8, [sp, #8]
[33m[WRN] [0mRobEntry 0x7fd2c5c5d940 not ready due to 0x7fd2c5c58d00
0x00007fd2c6015130  b9400fe8		ldr w8, [sp, #12]
0x00007fd2c6015134  12800009		mov w9, #0xffffffff
0x00007fd2c6015138  0b090108		add w8, w8, w9
0x00007fd2c601513c  b9000fe8		str w8, [sp, #12]
[33m[WRN] [0mRobEntry 0x7fd2c5c5f9b0 not ready due to 0x7fd2c5d01f40
0x00007fd2c6015140  17fffff4		b #-0x30 (addr 0x7fd2c6015110)
0x00007fd2c6015110  b9400fe8		ldr w8, [sp, #12]
0x00007fd2c6015114  7100051f		cmp w8, #0x1 (1)
0x00007fd2c6015118  54000041		b.ne #+0x8 (addr 0x7fd2c6015120)
0x00007fd2c6015120  b9400fe8		ldr w8, [sp, #12]
0x00007fd2c6015124  b9400be9		ldr w9, [sp, #8]
0x00007fd2c6015128  1b087d28		mul w8, w9, w8
0x00007fd2c601512c  b9000be8		str w8, [sp, #8]
[33m[WRN] [0mRobEntry 0x7fd2c5e37eb0 not ready due to 0x7fd2c5e35e80
0x00007fd2c6015130  b9400fe8		ldr w8, [sp, #12]
0x00007fd2c6015134  12800009		mov w9, #0xffffffff
0x00007fd2c6015138  0b090108		add w8, w8, w9
0x00007fd2c601513c  b9000fe8		str w8, [sp, #12]
[33m[WRN] [0m[R31] RobCusor 0x7fd2c5e39f10 read can go ahead (init)
[33m[WRN] [0m[R8] RobCusor 0x7fd2c5e39f10 read-depends on 0x7fd2c5e3a940
[33m[WRN] [0mRobEntry 0x7fd2c5e39f10 not ready due to 0x7fd2c5e3a940
0x00007fd2c6015140  17fffff4		b #-0x30 (addr 0x7fd2c6015110)
0x00007fd2c6015110  b9400fe8		ldr w8, [sp, #12]
[33m[WRN] [0m[R31] RobCusor 0x7fd2c5e39fd0 read can go ahead (init)
[33m[WRN] [0m[R8] RobCusor 0x7fd2c5e39fd0 write can go ahead with ticket 0x7fd2c5e3adb0
[33m[WRN] [0m----------------------Experimental Execute--------------
[33m[WRN] [0mRobEntry 0x7fd2c5c230d0 ready with 0x7fd2c5c207a0
[33m[WRN] [0mRobEntry 0x7fd2c5c2d640 not ready due to 0x7fd2c5c2c110
[33m[WRN] [0mRobEntry 0x7fd2c5c2f610 not ready due to 0x7fd2c5c2fe28
[33m[WRN] [0mRobEntry 0x7fd2c5c33f50 not ready due to 0x7fd2c5c30270
[33m[WRN] [0mRobEntry 0x7fd2c5c36a90 not ready due to 0x7fd2c5c377a0
[33m[WRN] [0mRobEntry 0x7fd2c5c030c0 not ready due to 0x7fd2c5c39a60
[33m[WRN] [0mRobEntry 0x7fd2c5c3cf80 not ready due to 0x7fd2c5c3d788
[33m[WRN] [0mRobEntry 0x7fd2c5c41b20 not ready due to 0x7fd2c5c3dbd0
[33m[WRN] [0mRobEntry 0x7fd2c5c44660 not ready due to 0x7fd2c5c45370
[33m[WRN] [0mRobEntry 0x7fd2c5c48970 not ready due to 0x7fd2c5c47440
[33m[WRN] [0mRobEntry 0x7fd2c5c4a940 not ready due to 0x7fd2c5c4b158
[33m[WRN] [0mRobEntry 0x7fd2c5c4f280 not ready due to 0x7fd2c5c4b5a0
[33m[WRN] [0mRobEntry 0x7fd2c5c51dc0 not ready due to 0x7fd2c5c52ad0
[33m[WRN] [0mRobEntry 0x7fd2c5c560d0 not ready due to 0x7fd2c5c54ba0
[33m[WRN] [0mRobEntry 0x7fd2c5c580a0 not ready due to 0x7fd2c5c588b8
[33m[WRN] [0mRobEntry 0x7fd2c5c5c9e0 not ready due to 0x7fd2c5d00110
[33m[WRN] [0mRobEntry 0x7fd2c5c5da60 not ready due to 0x7fd2c5d002c0
[33m[WRN] [0mRobEntry 0x7fd2c5e2ebc0 not ready due to 0x7fd2c5e2ae90
[33m[WRN] [0mRobEntry 0x7fd2c5e30b60 not ready due to 0x7fd2c5e31368
[33m[WRN] [0mRobEntry 0x7fd2c5e35490 not ready due to 0x7fd2c5e317b0
[33m[WRN] [0mRobEntry 0x7fd2c5e37fd0 not ready due to 0x7fd2c5e38ce0
0x00007fd2c601513c  b9000fe8		str w8, [sp, #12]
[33m[WRN] [0m[R31] RobEntry 0x7fd2c5c230d0 reads init val 0x0
[33m[WRN] [0mReal write: 0x7fd2c601d2dc, 0x1
#    w8:         0x00000001 -> 0x00007fd2c601d2dc
[34m[DBG] [0m   Logic[0]: newPc <- 0x7fd2c6015140
0x00007fd2c6015124  b9400be9		ldr w9, [sp, #8]
[33m[WRN] [0m[R31] RobEntry 0x7fd2c5c31790 reads init val 0x0
[34m[DBG] [0m[MEM] read addr=0x7fd2c601d2d8 len=0x4 val=0x375f00
[33m[WRN] [0m[R9] Speculative write by 0x7fd2c5c31790 val=0x375f00
[33m[WRN] [0m[0x7fd2c5c31790] filled ticket 0x7fd2c5c30270
#    x9: 0x00000000ffffffff <- 0x00007fd2c601d2d8
[34m[DBG] [0m   Logic[1]: speculation no set pc
[34m[DBG] [0m   Scribe: retired 1 ROB entries (now: 0x7fd2c5c230d0:Done)
[34m[DBG] [0m======================================== Update[71/117] 
[34m[DBG] [0m   Fetcher: buffer.size = 2982
[34m[DBG] [0m   Logic: instr executed ? yes: 2
[34m[DBG] [0m   Logic: rStation size <- 62, rsVacancy <- 2
[34m[DBG] [0m======================================== Sync [71/117] 
[34m[DBG] [0m======================================== Cycle End

[34m[DBG] [0m======================================== Compute[72/117]
[34m[DBG] [0mPC Offsest: 0x140
[34m[DBG] [0m   Fetcher: at: 0x7fd2c6015140 (buffer 0:2982)
[34m[DBG] [0m   Fetcher: front instr = 0x7fd2c6015140, fetched 64, tmpBuffer: 64
[34m[DBG] [0m   Decoder: front instr = 0x7fd2c6015128
[34m[DBG] [0m   Decoder: Logic reservation station is full
0x00007fd2c6015110  b9400fe8		ldr w8, [sp, #12]
0x00007fd2c6015114  7100051f		cmp w8, #0x1 (1)
0x00007fd2c6015118  54000041		b.ne #+0x8 (addr 0x7fd2c6015120)
0x00007fd2c6015120  b9400fe8		ldr w8, [sp, #12]
0x00007fd2c6015128  1b087d28		mul w8, w9, w8
0x00007fd2c601512c  b9000be8		str w8, [sp, #8]
[33m[WRN] [0mRobEntry 0x7fd2c5c36970 not ready due to 0x7fd2c5c34940
0x00007fd2c6015130  b9400fe8		ldr w8, [sp, #12]
0x00007fd2c6015134  12800009		mov w9, #0xffffffff
0x00007fd2c6015138  0b090108		add w8, w8, w9
0x00007fd2c601513c  b9000fe8		str w8, [sp, #12]
[33m[WRN] [0mRobEntry 0x7fd2c5c38bd0 not ready due to 0x7fd2c5c39600
0x00007fd2c6015140  17fffff4		b #-0x30 (addr 0x7fd2c6015110)
0x00007fd2c6015110  b9400fe8		ldr w8, [sp, #12]
0x00007fd2c6015114  7100051f		cmp w8, #0x1 (1)
0x00007fd2c6015118  54000041		b.ne #+0x8 (addr 0x7fd2c6015120)
0x00007fd2c6015120  b9400fe8		ldr w8, [sp, #12]
0x00007fd2c6015124  b9400be9		ldr w9, [sp, #8]
0x00007fd2c6015128  1b087d28		mul w8, w9, w8
0x00007fd2c601512c  b9000be8		str w8, [sp, #8]
[33m[WRN] [0mRobEntry 0x7fd2c5c44540 not ready due to 0x7fd2c5c42510
0x00007fd2c6015130  b9400fe8		ldr w8, [sp, #12]
0x00007fd2c6015134  12800009		mov w9, #0xffffffff
0x00007fd2c6015138  0b090108		add w8, w8, w9
0x00007fd2c601513c  b9000fe8		str w8, [sp, #12]
[33m[WRN] [0mRobEntry 0x7fd2c5c465a0 not ready due to 0x7fd2c5c46fd0
0x00007fd2c6015140  17fffff4		b #-0x30 (addr 0x7fd2c6015110)
0x00007fd2c6015110  b9400fe8		ldr w8, [sp, #12]
0x00007fd2c6015114  7100051f		cmp w8, #0x1 (1)
0x00007fd2c6015118  54000041		b.ne #+0x8 (addr 0x7fd2c6015120)
0x00007fd2c6015120  b9400fe8		ldr w8, [sp, #12]
0x00007fd2c6015124  b9400be9		ldr w9, [sp, #8]
0x00007fd2c6015128  1b087d28		mul w8, w9, w8
0x00007fd2c601512c  b9000be8		str w8, [sp, #8]
[33m[WRN] [0mRobEntry 0x7fd2c5c51ca0 not ready due to 0x7fd2c5c4fc70
0x00007fd2c6015130  b9400fe8		ldr w8, [sp, #12]
0x00007fd2c6015134  12800009		mov w9, #0xffffffff
0x00007fd2c6015138  0b090108		add w8, w8, w9
0x00007fd2c601513c  b9000fe8		str w8, [sp, #12]
[33m[WRN] [0mRobEntry 0x7fd2c5c53d00 not ready due to 0x7fd2c5c54730
0x00007fd2c6015140  17fffff4		b #-0x30 (addr 0x7fd2c6015110)
0x00007fd2c6015110  b9400fe8		ldr w8, [sp, #12]
0x00007fd2c6015114  7100051f		cmp w8, #0x1 (1)
0x00007fd2c6015118  54000041		b.ne #+0x8 (addr 0x7fd2c6015120)
0x00007fd2c6015120  b9400fe8		ldr w8, [sp, #12]
0x00007fd2c6015124  b9400be9		ldr w9, [sp, #8]
0x00007fd2c6015128  1b087d28		mul w8, w9, w8
0x00007fd2c601512c  b9000be8		str w8, [sp, #8]
[33m[WRN] [0mRobEntry 0x7fd2c5c5d940 not ready due to 0x7fd2c5c58d00
0x00007fd2c6015130  b9400fe8		ldr w8, [sp, #12]
0x00007fd2c6015134  12800009		mov w9, #0xffffffff
0x00007fd2c6015138  0b090108		add w8, w8, w9
0x00007fd2c601513c  b9000fe8		str w8, [sp, #12]
[33m[WRN] [0mRobEntry 0x7fd2c5c5f9b0 not ready due to 0x7fd2c5d01f40
0x00007fd2c6015140  17fffff4		b #-0x30 (addr 0x7fd2c6015110)
0x00007fd2c6015110  b9400fe8		ldr w8, [sp, #12]
0x00007fd2c6015114  7100051f		cmp w8, #0x1 (1)
0x00007fd2c6015118  54000041		b.ne #+0x8 (addr 0x7fd2c6015120)
0x00007fd2c6015120  b9400fe8		ldr w8, [sp, #12]
0x00007fd2c6015124  b9400be9		ldr w9, [sp, #8]
0x00007fd2c6015128  1b087d28		mul w8, w9, w8
0x00007fd2c601512c  b9000be8		str w8, [sp, #8]
[33m[WRN] [0mRobEntry 0x7fd2c5e37eb0 not ready due to 0x7fd2c5e35e80
0x00007fd2c6015130  b9400fe8		ldr w8, [sp, #12]
0x00007fd2c6015134  12800009		mov w9, #0xffffffff
0x00007fd2c6015138  0b090108		add w8, w8, w9
0x00007fd2c601513c  b9000fe8		str w8, [sp, #12]
[33m[WRN] [0mRobEntry 0x7fd2c5e39f10 not ready due to 0x7fd2c5e3a940
0x00007fd2c6015140  17fffff4		b #-0x30 (addr 0x7fd2c6015110)
0x00007fd2c6015110  b9400fe8		ldr w8, [sp, #12]
0x00007fd2c6015114  7100051f		cmp w8, #0x1 (1)
[33m[WRN] [0m[R8] RobCusor 0x7fd2c5e3c2e0 read-depends on 0x7fd2c5e3adb0
[33m[WRN] [0m[NZCV] RobCusor 0x7fd2c5e3c2e0 write can go ahead with ticket 0x7fd2c5e3cdd0
[33m[WRN] [0m[NZCV] RobCusor 0x7fd2c5e3c2e0 write can go ahead with ticket 0x7fd2c5e3d018
[33m[WRN] [0m[NZCV] RobCusor 0x7fd2c5e3c2e0 write can go ahead with ticket 0x7fd2c5e3eab0
[33m[WRN] [0m[NZCV] RobCusor 0x7fd2c5e3c2e0 write can go ahead with ticket 0x7fd2c5e3eac8
[33m[WRN] [0m----------------------Experimental Execute--------------
[33m[WRN] [0mRobEntry 0x7fd2c5c2d640 not ready due to 0x7fd2c5c2c110
[33m[WRN] [0mRobEntry 0x7fd2c5c2f610 not ready due to 0x7fd2c5c2fe28
[33m[WRN] [0mRobEntry 0x7fd2c5c33f50 ready with 0x7fd2c5c30270
[33m[WRN] [0mRobEntry 0x7fd2c5c33f50 not ready due to 0x7fd2c5c30250
[33m[WRN] [0mRobEntry 0x7fd2c5c36a90 not ready due to 0x7fd2c5c377a0
[33m[WRN] [0mRobEntry 0x7fd2c5c030c0 not ready due to 0x7fd2c5c39a60
[33m[WRN] [0mRobEntry 0x7fd2c5c3cf80 not ready due to 0x7fd2c5c3d788
[33m[WRN] [0mRobEntry 0x7fd2c5c41b20 not ready due to 0x7fd2c5c3dbd0
[33m[WRN] [0mRobEntry 0x7fd2c5c44660 not ready due to 0x7fd2c5c45370
[33m[WRN] [0mRobEntry 0x7fd2c5c48970 not ready due to 0x7fd2c5c47440
[33m[WRN] [0mRobEntry 0x7fd2c5c4a940 not ready due to 0x7fd2c5c4b158
[33m[WRN] [0mRobEntry 0x7fd2c5c4f280 not ready due to 0x7fd2c5c4b5a0
[33m[WRN] [0mRobEntry 0x7fd2c5c51dc0 not ready due to 0x7fd2c5c52ad0
[33m[WRN] [0mRobEntry 0x7fd2c5c560d0 not ready due to 0x7fd2c5c54ba0
[33m[WRN] [0mRobEntry 0x7fd2c5c580a0 not ready due to 0x7fd2c5c588b8
[33m[WRN] [0mRobEntry 0x7fd2c5c5c9e0 not ready due to 0x7fd2c5d00110
[33m[WRN] [0mRobEntry 0x7fd2c5c5da60 not ready due to 0x7fd2c5d002c0
[33m[WRN] [0mRobEntry 0x7fd2c5e2ebc0 not ready due to 0x7fd2c5e2ae90
[33m[WRN] [0mRobEntry 0x7fd2c5e30b60 not ready due to 0x7fd2c5e31368
[33m[WRN] [0mRobEntry 0x7fd2c5e35490 not ready due to 0x7fd2c5e317b0
[33m[WRN] [0mRobEntry 0x7fd2c5e37fd0 not ready due to 0x7fd2c5e38ce0
[33m[WRN] [0mRobEntry 0x7fd2c5e3c2e0 not ready due to 0x7fd2c5e3adb0
0x00007fd2c6015110  b9400fe8		ldr w8, [sp, #12]
[33m[WRN] [0m[R31] RobEntry 0x7fd2c5c2b360 reads init val 0x0
[34m[DBG] [0m[MEM] read addr=0x7fd2c601d2dc len=0x4 val=0x1
[33m[WRN] [0m[0x7fd2c5c2b360] filled ticket 0x7fd2c5c2c110
#    x8: 0x0000000000000001 <- 0x00007fd2c601d2dc
[34m[DBG] [0m   Logic[0]: newPc <- 0x7fd2c6015114
0x00007fd2c6015120  b9400fe8		ldr w8, [sp, #12]
[33m[WRN] [0m[R31] RobEntry 0x7fd2c5c2f670 reads init val 0x0
[34m[DBG] [0m[MEM] read addr=0x7fd2c601d2dc len=0x4 val=0x1
[33m[WRN] [0m[R8] Speculative write by 0x7fd2c5c2f670 val=0x1
[33m[WRN] [0m[0x7fd2c5c2f670] filled ticket 0x7fd2c5c30250
#    x8: 0x0000000000000001 <- 0x00007fd2c601d2dc
[34m[DBG] [0m   Logic[1]: speculation no set pc
[34m[DBG] [0m   Scribe: retired 2 ROB entries (now: 0x7fd2c5c2b360:Done)
[34m[DBG] [0m======================================== Update[72/119] 
[34m[DBG] [0m   Fetcher: buffer.size = 3045
[34m[DBG] [0m   Logic: instr executed ? yes: 1
[34m[DBG] [0m   Logic: rStation size <- 63, rsVacancy <- 1
[34m[DBG] [0m======================================== Sync [72/119] 
[34m[DBG] [0m======================================== Cycle End

[34m[DBG] [0m======================================== Compute[73/119]
[34m[DBG] [0mPC Offsest: 0x120
[34m[DBG] [0m   Fetcher: at: 0x7fd2c6015120 (buffer 0:3045)
[34m[DBG] [0m   Fetcher: front instr = 0x7fd2c6015120, fetched 64, tmpBuffer: 64
[34m[DBG] [0m   Decoder: front instr = 0x7fd2c601512c
[34m[DBG] [0m   Decoder: Logic reservation station is full
0x00007fd2c6015114  7100051f		cmp w8, #0x1 (1)
0x00007fd2c6015118  54000041		b.ne #+0x8 (addr 0x7fd2c6015120)
0x00007fd2c6015128  1b087d28		mul w8, w9, w8
0x00007fd2c601512c  b9000be8		str w8, [sp, #8]
[33m[WRN] [0mRobEntry 0x7fd2c5c36970 not ready due to 0x7fd2c5c34940
0x00007fd2c6015130  b9400fe8		ldr w8, [sp, #12]
0x00007fd2c6015134  12800009		mov w9, #0xffffffff
0x00007fd2c6015138  0b090108		add w8, w8, w9
0x00007fd2c601513c  b9000fe8		str w8, [sp, #12]
[33m[WRN] [0mRobEntry 0x7fd2c5c38bd0 not ready due to 0x7fd2c5c39600
0x00007fd2c6015140  17fffff4		b #-0x30 (addr 0x7fd2c6015110)
0x00007fd2c6015110  b9400fe8		ldr w8, [sp, #12]
0x00007fd2c6015114  7100051f		cmp w8, #0x1 (1)
0x00007fd2c6015118  54000041		b.ne #+0x8 (addr 0x7fd2c6015120)
0x00007fd2c6015120  b9400fe8		ldr w8, [sp, #12]
0x00007fd2c6015124  b9400be9		ldr w9, [sp, #8]
0x00007fd2c6015128  1b087d28		mul w8, w9, w8
0x00007fd2c601512c  b9000be8		str w8, [sp, #8]
[33m[WRN] [0mRobEntry 0x7fd2c5c44540 not ready due to 0x7fd2c5c42510
0x00007fd2c6015130  b9400fe8		ldr w8, [sp, #12]
0x00007fd2c6015134  12800009		mov w9, #0xffffffff
0x00007fd2c6015138  0b090108		add w8, w8, w9
0x00007fd2c601513c  b9000fe8		str w8, [sp, #12]
[33m[WRN] [0mRobEntry 0x7fd2c5c465a0 not ready due to 0x7fd2c5c46fd0
0x00007fd2c6015140  17fffff4		b #-0x30 (addr 0x7fd2c6015110)
0x00007fd2c6015110  b9400fe8		ldr w8, [sp, #12]
0x00007fd2c6015114  7100051f		cmp w8, #0x1 (1)
0x00007fd2c6015118  54000041		b.ne #+0x8 (addr 0x7fd2c6015120)
0x00007fd2c6015120  b9400fe8		ldr w8, [sp, #12]
0x00007fd2c6015124  b9400be9		ldr w9, [sp, #8]
0x00007fd2c6015128  1b087d28		mul w8, w9, w8
0x00007fd2c601512c  b9000be8		str w8, [sp, #8]
[33m[WRN] [0mRobEntry 0x7fd2c5c51ca0 not ready due to 0x7fd2c5c4fc70
0x00007fd2c6015130  b9400fe8		ldr w8, [sp, #12]
0x00007fd2c6015134  12800009		mov w9, #0xffffffff
0x00007fd2c6015138  0b090108		add w8, w8, w9
0x00007fd2c601513c  b9000fe8		str w8, [sp, #12]
[33m[WRN] [0mRobEntry 0x7fd2c5c53d00 not ready due to 0x7fd2c5c54730
0x00007fd2c6015140  17fffff4		b #-0x30 (addr 0x7fd2c6015110)
0x00007fd2c6015110  b9400fe8		ldr w8, [sp, #12]
0x00007fd2c6015114  7100051f		cmp w8, #0x1 (1)
0x00007fd2c6015118  54000041		b.ne #+0x8 (addr 0x7fd2c6015120)
0x00007fd2c6015120  b9400fe8		ldr w8, [sp, #12]
0x00007fd2c6015124  b9400be9		ldr w9, [sp, #8]
0x00007fd2c6015128  1b087d28		mul w8, w9, w8
0x00007fd2c601512c  b9000be8		str w8, [sp, #8]
[33m[WRN] [0mRobEntry 0x7fd2c5c5d940 not ready due to 0x7fd2c5c58d00
0x00007fd2c6015130  b9400fe8		ldr w8, [sp, #12]
0x00007fd2c6015134  12800009		mov w9, #0xffffffff
0x00007fd2c6015138  0b090108		add w8, w8, w9
0x00007fd2c601513c  b9000fe8		str w8, [sp, #12]
[33m[WRN] [0mRobEntry 0x7fd2c5c5f9b0 not ready due to 0x7fd2c5d01f40
0x00007fd2c6015140  17fffff4		b #-0x30 (addr 0x7fd2c6015110)
0x00007fd2c6015110  b9400fe8		ldr w8, [sp, #12]
0x00007fd2c6015114  7100051f		cmp w8, #0x1 (1)
0x00007fd2c6015118  54000041		b.ne #+0x8 (addr 0x7fd2c6015120)
0x00007fd2c6015120  b9400fe8		ldr w8, [sp, #12]
0x00007fd2c6015124  b9400be9		ldr w9, [sp, #8]
0x00007fd2c6015128  1b087d28		mul w8, w9, w8
0x00007fd2c601512c  b9000be8		str w8, [sp, #8]
[33m[WRN] [0mRobEntry 0x7fd2c5e37eb0 not ready due to 0x7fd2c5e35e80
0x00007fd2c6015130  b9400fe8		ldr w8, [sp, #12]
0x00007fd2c6015134  12800009		mov w9, #0xffffffff
0x00007fd2c6015138  0b090108		add w8, w8, w9
0x00007fd2c601513c  b9000fe8		str w8, [sp, #12]
[33m[WRN] [0mRobEntry 0x7fd2c5e39f10 not ready due to 0x7fd2c5e3a940
0x00007fd2c6015140  17fffff4		b #-0x30 (addr 0x7fd2c6015110)
0x00007fd2c6015110  b9400fe8		ldr w8, [sp, #12]
0x00007fd2c6015114  7100051f		cmp w8, #0x1 (1)
0x00007fd2c6015118  54000041		b.ne #+0x8 (addr 0x7fd2c6015120)
[33m[WRN] [0m[NZCV] RobCusor 0x7fd2c5e3e2b0 read-depends on 0x7fd2c5e3eac8
0x00007fd2c6015120  b9400fe8		ldr w8, [sp, #12]
[33m[WRN] [0m[R31] RobCusor 0x7fd2c5e3e310 read can go ahead (init)
[33m[WRN] [0m[R8] RobCusor 0x7fd2c5e3e310 write can go ahead with ticket 0x7fd2c6901c30
[33m[WRN] [0m----------------------Experimental Execute--------------
[33m[WRN] [0mRobEntry 0x7fd2c5c2d640 ready with 0x7fd2c5c2c110
[33m[WRN] [0mRobEntry 0x7fd2c5c2f610 not ready due to 0x7fd2c5c2fe28
[33m[WRN] [0mRobEntry 0x7fd2c5c33f50 ready with 0x7fd2c5c30270
[33m[WRN] [0mRobEntry 0x7fd2c5c33f50 ready with 0x7fd2c5c30250
[33m[WRN] [0mRobEntry 0x7fd2c5c33f50 ready with 0x7fd2c5c30270
[33m[WRN] [0mRobEntry 0x7fd2c5c33f50 ready with 0x7fd2c5c30250
[33m[WRN] [0mRobEntry 0x7fd2c5c33f50 ready with 0x7fd2c5c30270
[33m[WRN] [0mRobEntry 0x7fd2c5c33f50 ready with 0x7fd2c5c30250
[33m[WRN] [0mRobEntry 0x7fd2c5c36a90 not ready due to 0x7fd2c5c377a0
[33m[WRN] [0mRobEntry 0x7fd2c5c030c0 not ready due to 0x7fd2c5c39a60
[33m[WRN] [0mRobEntry 0x7fd2c5c3cf80 not ready due to 0x7fd2c5c3d788
[33m[WRN] [0mRobEntry 0x7fd2c5c41b20 not ready due to 0x7fd2c5c3dbd0
[33m[WRN] [0mRobEntry 0x7fd2c5c44660 not ready due to 0x7fd2c5c45370
[33m[WRN] [0mRobEntry 0x7fd2c5c48970 not ready due to 0x7fd2c5c47440
[33m[WRN] [0mRobEntry 0x7fd2c5c4a940 not ready due to 0x7fd2c5c4b158
[33m[WRN] [0mRobEntry 0x7fd2c5c4f280 not ready due to 0x7fd2c5c4b5a0
[33m[WRN] [0mRobEntry 0x7fd2c5c51dc0 not ready due to 0x7fd2c5c52ad0
[33m[WRN] [0mRobEntry 0x7fd2c5c560d0 not ready due to 0x7fd2c5c54ba0
[33m[WRN] [0mRobEntry 0x7fd2c5c580a0 not ready due to 0x7fd2c5c588b8
[33m[WRN] [0mRobEntry 0x7fd2c5c5c9e0 not ready due to 0x7fd2c5d00110
[33m[WRN] [0mRobEntry 0x7fd2c5c5da60 not ready due to 0x7fd2c5d002c0
[33m[WRN] [0mRobEntry 0x7fd2c5e2ebc0 not ready due to 0x7fd2c5e2ae90
[33m[WRN] [0mRobEntry 0x7fd2c5e30b60 not ready due to 0x7fd2c5e31368
[33m[WRN] [0mRobEntry 0x7fd2c5e35490 not ready due to 0x7fd2c5e317b0
[33m[WRN] [0mRobEntry 0x7fd2c5e37fd0 not ready due to 0x7fd2c5e38ce0
[33m[WRN] [0mRobEntry 0x7fd2c5e3c2e0 not ready due to 0x7fd2c5e3adb0
[33m[WRN] [0mRobEntry 0x7fd2c5e3e2b0 not ready due to 0x7fd2c5e3eac8
0x00007fd2c6015114  7100051f		cmp w8, #0x1 (1)
[33m[WRN] [0m[0x7fd2c5c2d640] filled ticket 0x7fd2c5c2fde0
[33m[WRN] [0m[0x7fd2c5c2d640] filled ticket 0x7fd2c5c2fdf8
[33m[WRN] [0m[0x7fd2c5c2d640] filled ticket 0x7fd2c5c2fe10
[33m[WRN] [0m[0x7fd2c5c2d640] filled ticket 0x7fd2c5c2fe28
[33m[WRN] [0m[0x7fd2c5c2d640] filled ticket 0x7fd2c5c2fde0
[33m[WRN] [0m[0x7fd2c5c2d640] filled ticket 0x7fd2c5c2fdf8
[33m[WRN] [0m[0x7fd2c5c2d640] filled ticket 0x7fd2c5c2fe10
[33m[WRN] [0m[0x7fd2c5c2d640] filled ticket 0x7fd2c5c2fe28
[33m[WRN] [0m[0x7fd2c5c2d640] filled ticket 0x7fd2c5c2fde0
[33m[WRN] [0m[0x7fd2c5c2d640] filled ticket 0x7fd2c5c2fdf8
[33m[WRN] [0m[0x7fd2c5c2d640] filled ticket 0x7fd2c5c2fe10
[33m[WRN] [0m[0x7fd2c5c2d640] filled ticket 0x7fd2c5c2fe28
[33m[WRN] [0m[0x7fd2c5c2d640] filled ticket 0x7fd2c5c2fde0
[33m[WRN] [0m[0x7fd2c5c2d640] filled ticket 0x7fd2c5c2fdf8
[33m[WRN] [0m[0x7fd2c5c2d640] filled ticket 0x7fd2c5c2fe10
[33m[WRN] [0m[0x7fd2c5c2d640] filled ticket 0x7fd2c5c2fe28
# NZCV: N:0 Z:1 C:1 V:0
[34m[DBG] [0m   Logic[0]: newPc <- 0x7fd2c6015118
0x00007fd2c6015128  1b087d28		mul w8, w9, w8
[33m[WRN] [0m[R8] Speculative write by 0x7fd2c5c33f50 val=0xffffffff
[33m[WRN] [0m[0x7fd2c5c33f50] filled ticket 0x7fd2c5c34940
#    x8: 0x0000000000000001
[34m[DBG] [0m   Logic[1]: speculation no set pc
[34m[DBG] [0m   Scribe: retired 1 ROB entries (now: 0x7fd2c5c2d640:Done)
[34m[DBG] [0m======================================== Update[73/120] 
[34m[DBG] [0m   Fetcher: buffer.size = 3107
[34m[DBG] [0m   Logic: instr executed ? yes: 1
[34m[DBG] [0m   Logic: rStation size <- 63, rsVacancy <- 1
[34m[DBG] [0m======================================== Sync [73/120] 
[34m[DBG] [0m======================================== Cycle End

[34m[DBG] [0m======================================== Compute[74/120]
[34m[DBG] [0mPC Offsest: 0x130
[34m[DBG] [0m   Fetcher: at: 0x7fd2c6015130 (buffer 0:3107)
[34m[DBG] [0m   Fetcher: front instr = 0x7fd2c6015130, fetched 64, tmpBuffer: 64
[34m[DBG] [0m   Decoder: front instr = 0x7fd2c6015134
[34m[DBG] [0m   Decoder: Logic reservation station is full
0x00007fd2c6015118  54000041		b.ne #+0x8 (addr 0x7fd2c6015120)
0x00007fd2c601512c  b9000be8		str w8, [sp, #8]
[33m[WRN] [0mRobEntry 0x7fd2c5c36970 ready with 0x7fd2c5c34940
0x00007fd2c6015130  b9400fe8		ldr w8, [sp, #12]
0x00007fd2c6015134  12800009		mov w9, #0xffffffff
0x00007fd2c6015138  0b090108		add w8, w8, w9
0x00007fd2c601513c  b9000fe8		str w8, [sp, #12]
[33m[WRN] [0mRobEntry 0x7fd2c5c38bd0 not ready due to 0x7fd2c5c39600
0x00007fd2c6015140  17fffff4		b #-0x30 (addr 0x7fd2c6015110)
0x00007fd2c6015110  b9400fe8		ldr w8, [sp, #12]
0x00007fd2c6015114  7100051f		cmp w8, #0x1 (1)
0x00007fd2c6015118  54000041		b.ne #+0x8 (addr 0x7fd2c6015120)
0x00007fd2c6015120  b9400fe8		ldr w8, [sp, #12]
0x00007fd2c6015124  b9400be9		ldr w9, [sp, #8]
0x00007fd2c6015128  1b087d28		mul w8, w9, w8
0x00007fd2c601512c  b9000be8		str w8, [sp, #8]
[33m[WRN] [0mRobEntry 0x7fd2c5c44540 not ready due to 0x7fd2c5c42510
0x00007fd2c6015130  b9400fe8		ldr w8, [sp, #12]
0x00007fd2c6015134  12800009		mov w9, #0xffffffff
0x00007fd2c6015138  0b090108		add w8, w8, w9
0x00007fd2c601513c  b9000fe8		str w8, [sp, #12]
[33m[WRN] [0mRobEntry 0x7fd2c5c465a0 not ready due to 0x7fd2c5c46fd0
0x00007fd2c6015140  17fffff4		b #-0x30 (addr 0x7fd2c6015110)
0x00007fd2c6015110  b9400fe8		ldr w8, [sp, #12]
0x00007fd2c6015114  7100051f		cmp w8, #0x1 (1)
0x00007fd2c6015118  54000041		b.ne #+0x8 (addr 0x7fd2c6015120)
0x00007fd2c6015120  b9400fe8		ldr w8, [sp, #12]
0x00007fd2c6015124  b9400be9		ldr w9, [sp, #8]
0x00007fd2c6015128  1b087d28		mul w8, w9, w8
0x00007fd2c601512c  b9000be8		str w8, [sp, #8]
[33m[WRN] [0mRobEntry 0x7fd2c5c51ca0 not ready due to 0x7fd2c5c4fc70
0x00007fd2c6015130  b9400fe8		ldr w8, [sp, #12]
0x00007fd2c6015134  12800009		mov w9, #0xffffffff
0x00007fd2c6015138  0b090108		add w8, w8, w9
0x00007fd2c601513c  b9000fe8		str w8, [sp, #12]
[33m[WRN] [0mRobEntry 0x7fd2c5c53d00 not ready due to 0x7fd2c5c54730
0x00007fd2c6015140  17fffff4		b #-0x30 (addr 0x7fd2c6015110)
0x00007fd2c6015110  b9400fe8		ldr w8, [sp, #12]
0x00007fd2c6015114  7100051f		cmp w8, #0x1 (1)
0x00007fd2c6015118  54000041		b.ne #+0x8 (addr 0x7fd2c6015120)
0x00007fd2c6015120  b9400fe8		ldr w8, [sp, #12]
0x00007fd2c6015124  b9400be9		ldr w9, [sp, #8]
0x00007fd2c6015128  1b087d28		mul w8, w9, w8
0x00007fd2c601512c  b9000be8		str w8, [sp, #8]
[33m[WRN] [0mRobEntry 0x7fd2c5c5d940 not ready due to 0x7fd2c5c58d00
0x00007fd2c6015130  b9400fe8		ldr w8, [sp, #12]
0x00007fd2c6015134  12800009		mov w9, #0xffffffff
0x00007fd2c6015138  0b090108		add w8, w8, w9
0x00007fd2c601513c  b9000fe8		str w8, [sp, #12]
[33m[WRN] [0mRobEntry 0x7fd2c5c5f9b0 not ready due to 0x7fd2c5d01f40
0x00007fd2c6015140  17fffff4		b #-0x30 (addr 0x7fd2c6015110)
0x00007fd2c6015110  b9400fe8		ldr w8, [sp, #12]
0x00007fd2c6015114  7100051f		cmp w8, #0x1 (1)
0x00007fd2c6015118  54000041		b.ne #+0x8 (addr 0x7fd2c6015120)
0x00007fd2c6015120  b9400fe8		ldr w8, [sp, #12]
0x00007fd2c6015124  b9400be9		ldr w9, [sp, #8]
0x00007fd2c6015128  1b087d28		mul w8, w9, w8
0x00007fd2c601512c  b9000be8		str w8, [sp, #8]
[33m[WRN] [0mRobEntry 0x7fd2c5e37eb0 not ready due to 0x7fd2c5e35e80
0x00007fd2c6015130  b9400fe8		ldr w8, [sp, #12]
0x00007fd2c6015134  12800009		mov w9, #0xffffffff
0x00007fd2c6015138  0b090108		add w8, w8, w9
0x00007fd2c601513c  b9000fe8		str w8, [sp, #12]
[33m[WRN] [0mRobEntry 0x7fd2c5e39f10 not ready due to 0x7fd2c5e3a940
0x00007fd2c6015140  17fffff4		b #-0x30 (addr 0x7fd2c6015110)
0x00007fd2c6015110  b9400fe8		ldr w8, [sp, #12]
0x00007fd2c6015114  7100051f		cmp w8, #0x1 (1)
0x00007fd2c6015118  54000041		b.ne #+0x8 (addr 0x7fd2c6015120)
0x00007fd2c6015120  b9400fe8		ldr w8, [sp, #12]
0x00007fd2c6015124  b9400be9		ldr w9, [sp, #8]
[33m[WRN] [0m[R31] RobCusor 0x7fd2c6901500 read can go ahead (init)
[33m[WRN] [0m[R9] RobCusor 0x7fd2c6901500 write can go ahead with ticket 0x7fd2c6902160
[33m[WRN] [0m----------------------Experimental Execute--------------
[33m[WRN] [0mRobEntry 0x7fd2c5c2f610 ready with 0x7fd2c5c2fe28
[33m[WRN] [0mRobEntry 0x7fd2c5c36a90 not ready due to 0x7fd2c5c377a0
[33m[WRN] [0mRobEntry 0x7fd2c5c030c0 not ready due to 0x7fd2c5c39a60
[33m[WRN] [0mRobEntry 0x7fd2c5c3cf80 not ready due to 0x7fd2c5c3d788
[33m[WRN] [0mRobEntry 0x7fd2c5c41b20 not ready due to 0x7fd2c5c3dbd0
[33m[WRN] [0mRobEntry 0x7fd2c5c44660 not ready due to 0x7fd2c5c45370
[33m[WRN] [0mRobEntry 0x7fd2c5c48970 not ready due to 0x7fd2c5c47440
[33m[WRN] [0mRobEntry 0x7fd2c5c4a940 not ready due to 0x7fd2c5c4b158
[33m[WRN] [0mRobEntry 0x7fd2c5c4f280 not ready due to 0x7fd2c5c4b5a0
[33m[WRN] [0mRobEntry 0x7fd2c5c51dc0 not ready due to 0x7fd2c5c52ad0
[33m[WRN] [0mRobEntry 0x7fd2c5c560d0 not ready due to 0x7fd2c5c54ba0
[33m[WRN] [0mRobEntry 0x7fd2c5c580a0 not ready due to 0x7fd2c5c588b8
[33m[WRN] [0mRobEntry 0x7fd2c5c5c9e0 not ready due to 0x7fd2c5d00110
[33m[WRN] [0mRobEntry 0x7fd2c5c5da60 not ready due to 0x7fd2c5d002c0
[33m[WRN] [0mRobEntry 0x7fd2c5e2ebc0 not ready due to 0x7fd2c5e2ae90
[33m[WRN] [0mRobEntry 0x7fd2c5e30b60 not ready due to 0x7fd2c5e31368
[33m[WRN] [0mRobEntry 0x7fd2c5e35490 not ready due to 0x7fd2c5e317b0
[33m[WRN] [0mRobEntry 0x7fd2c5e37fd0 not ready due to 0x7fd2c5e38ce0
[33m[WRN] [0mRobEntry 0x7fd2c5e3c2e0 not ready due to 0x7fd2c5e3adb0
[33m[WRN] [0mRobEntry 0x7fd2c5e3e2b0 not ready due to 0x7fd2c5e3eac8
0x00007fd2c6015118  54000041		b.ne #+0x8 (addr 0x7fd2c6015120)
[34m[DBG] [0m   Logic[0]: newPc <- 0x7fd2c601511c
0x00007fd2c6015130  b9400fe8		ldr w8, [sp, #12]
[33m[WRN] [0m[R31] RobEntry 0x7fd2c5c369d0 reads init val 0x0
[34m[DBG] [0m[MEM] read addr=0x7fd2c601d2dc len=0x4 val=0x1
[33m[WRN] [0m[R8] Speculative write by 0x7fd2c5c369d0 val=0x1
[33m[WRN] [0m[0x7fd2c5c369d0] filled ticket 0x7fd2c5c37570
#    x8: 0x0000000000000001 <- 0x00007fd2c601d2dc
[34m[DBG] [0m   Logic[1]: speculation no set pc
[34m[DBG] [0m   Scribe: retired 1 ROB entries (now: 0x7fd2c5c2f610:Done)
[34m[DBG] [0m======================================== Update[74/121] 
[34m[DBG] [0m   Fetcher: buffer.size = 3170
[34m[DBG] [0m   Logic: BP wrong: 3; Fetcher pc <- 0x7fd2c601511c
[34m[DBG] [0m   Fetcher: soft reset
[34m[DBG] [0m   Decoder: soft reset
[34m[DBG] [0m   Logic: instr executed ? yes: 1
[34m[DBG] [0m   Logic: rStation size <- 0, rsVacancy <- 64
[34m[DBG] [0m======================================== Sync [74/121] 
[34m[DBG] [0m======================================== Cycle End

[34m[DBG] [0m======================================== Compute[75/121]
[34m[DBG] [0mPC Offsest: 0x11c
[34m[DBG] [0m   Fetcher: at: 0x7fd2c601511c (buffer 0:0)
[34m[DBG] [0m   Fetcher: front instr = 0x7fd2c601511c, fetched 64, tmpBuffer: 64
[34m[DBG] [0m   Decoder: fetcher buffer is dry
[34m[DBG] [0m   Logic: reservation station is dry
[34m[DBG] [0m   Scribe: retired 64 ROB entries (now: 0x7fd2c6903d50:NoSucc)
[34m[DBG] [0m======================================== Update[75/122] 
[34m[DBG] [0m   Fetcher: buffer.size = 64
[34m[DBG] [0m   Logic: instr executed ? no: 0
[34m[DBG] [0m   Logic: rStation size <- 0, rsVacancy <- 64
[34m[DBG] [0m======================================== Sync [75/122] 
[34m[DBG] [0m======================================== Cycle End

[34m[DBG] [0m======================================== Compute[76/122]
[34m[DBG] [0mPC Offsest: 0x114
[34m[DBG] [0m   Fetcher: at: 0x7fd2c6015114 (buffer 0:64)
[34m[DBG] [0m   Fetcher: front instr = 0x7fd2c6015114, fetched 64, tmpBuffer: 64
[34m[DBG] [0m   Decoder: front instr = 0x7fd2c601511c
[34m[DBG] [0m   Logic: reservation station is dry
[34m[DBG] [0m   Scribe: retired 1 ROB entries (now: 0x7fd2c6903d50:NoSucc)
[34m[DBG] [0m======================================== Update[76/122] 
[34m[DBG] [0m   Fetcher: buffer.size = 64
[34m[DBG] [0m   Logic: instr executed ? no: 0
[34m[DBG] [0m   Logic: rStation size <- 0, rsVacancy <- 64
[34m[DBG] [0m======================================== Sync [76/122] 
[34m[DBG] [0m======================================== Cycle End

[34m[DBG] [0m======================================== Compute[77/122]
[34m[DBG] [0mPC Offsest: 0x128
[34m[DBG] [0m   Fetcher: at: 0x7fd2c6015128 (buffer 0:64)
[34m[DBG] [0m   Fetcher: front instr = 0x7fd2c6015128, fetched 64, tmpBuffer: 64
[34m[DBG] [0m   Logic: reservation station is dry
[34m[DBG] [0m   Scribe: retired 1 ROB entries (now: 0x7fd2c69067f0:Idle)
[34m[DBG] [0m======================================== Update[77/122] 
[34m[DBG] [0m   Fetcher: buffer.size = 128
[34m[DBG] [0m   Logic: instr executed ? no: 0
[34m[DBG] [0m   Logic: rStation size <- 64, rsVacancy <- 0
[34m[DBG] [0m======================================== Sync [77/122] 
[34m[DBG] [0m======================================== Cycle End

[34m[DBG] [0m======================================== Compute[78/122]
[34m[DBG] [0mPC Offsest: 0x138
[34m[DBG] [0m   Fetcher: at: 0x7fd2c6015138 (buffer 0:128)
[34m[DBG] [0m   Fetcher: front instr = 0x7fd2c6015138, fetched 64, tmpBuffer: 64
[34m[DBG] [0m   Decoder: front instr = 0x7fd2c6015114
0x00007fd2c601511c  1400000a		b #+0x28 (addr 0x7fd2c6015144)
0x00007fd2c6015144  b9400be0		ldr w0, [sp, #8]
[33m[WRN] [0m[R31] RobCusor 0x7fd2c6906850 read can go ahead (init)
[33m[WRN] [0m[R0] RobCusor 0x7fd2c6906850 write can go ahead with ticket 0x7fd2c6904730
0x00007fd2c6015148  910043ff		add sp, sp, #0x10 (16)
[33m[WRN] [0m[R31] RobCusor 0x7fd2c69068b0 read can go ahead (init)
[33m[WRN] [0m[R31] RobCusor 0x7fd2c69068b0 write can go ahead with ticket 0x7fd2c6904750
0x00007fd2c601514c  d65f03c0		ret
[33m[WRN] [0m[R30] RobCusor 0x7fd2c6906910 read can go ahead (init)
0x00007fd2c6015150  a9bf7bfd		stp x29, x30, [sp, #-16]!
[33m[WRN] [0m[R31] RobCusor 0x7fd2c6906970 read-depends on 0x7fd2c6904750
[33m[WRN] [0m[R31] RobCusor 0x7fd2c6906970 write can go ahead with ticket 0x7fd2c6908bc0
[33m[WRN] [0m[R29] RobCusor 0x7fd2c6906970 read can go ahead (init)
[33m[WRN] [0mRobEntry 0x7fd2c6906970 not ready due to 0x7fd2c6904750
[33m[WRN] [0m[R30] RobCusor 0x7fd2c6906970 read can go ahead (init)
[33m[WRN] [0mRobEntry 0x7fd2c6906970 not ready due to 0x7fd2c6904750
0x00007fd2c6015154  910003fd		mov x29, sp
[33m[WRN] [0m[R31] RobCusor 0x7fd2c69069d0 read-depends on 0x7fd2c6908bc0
[33m[WRN] [0m[R29] RobCusor 0x7fd2c69069d0 write can go ahead with ticket 0x7fd2c6908f00
0x00007fd2c6015158  d10043ff		sub sp, sp, #0x10 (16)
[33m[WRN] [0m[R31] RobCusor 0x7fd2c6906a30 read-depends on 0x7fd2c6908bc0
[33m[WRN] [0m[R31] RobCusor 0x7fd2c6906a30 write can go ahead with ticket 0x7fd2c6909040
0x00007fd2c601515c  52800140		mov w0, #0xa
[33m[WRN] [0m[R0] RobCusor 0x7fd2c6906a90 write can go ahead with ticket 0x7fd2c69090f0
0x00007fd2c6015160  52800008		mov w8, #0x0
[33m[WRN] [0m[R8] RobCusor 0x7fd2c6906af0 write can go ahead with ticket 0x7fd2c69091a0
0x00007fd2c6015164  b81fc3a8		stur w8, [x29, #-4]
[33m[WRN] [0m[R29] RobCusor 0x7fd2c6906570 read-depends on 0x7fd2c6908f00
[33m[WRN] [0m[R8] RobCusor 0x7fd2c6906570 read-depends on 0x7fd2c69091a0
[33m[WRN] [0mRobEntry 0x7fd2c6906570 not ready due to 0x7fd2c6908f00
0x00007fd2c6015168  97ffffe6		bl #-0x68 (addr 0x7fd2c6015100)
[33m[WRN] [0m[R30] RobCusor 0x7fd2c69065d0 write can go ahead with ticket 0x7fd2c69093e0
0x00007fd2c6015100  d10043ff		sub sp, sp, #0x10 (16)
[33m[WRN] [0m[R31] RobCusor 0x7fd2c6906630 read-depends on 0x7fd2c6909040
[33m[WRN] [0m[R31] RobCusor 0x7fd2c6906630 write can go ahead with ticket 0x7fd2c69093e0
0x00007fd2c6015104  320003e8		orr w8, wzr, #0x1
[33m[WRN] [0m[R8] RobCusor 0x7fd2c6906690 write can go ahead with ticket 0x7fd2c69095f0
0x00007fd2c6015108  b9000fe0		str w0, [sp, #12]
[33m[WRN] [0m[R31] RobCusor 0x7fd2c69066f0 read-depends on 0x7fd2c69093e0
[33m[WRN] [0m[R0] RobCusor 0x7fd2c69066f0 read-depends on 0x7fd2c69090f0
[33m[WRN] [0mRobEntry 0x7fd2c69066f0 not ready due to 0x7fd2c69093e0
0x00007fd2c601510c  b9000be8		str w8, [sp, #8]
[33m[WRN] [0m[R31] RobCusor 0x7fd2c6906b50 read-depends on 0x7fd2c69093e0
[33m[WRN] [0m[R8] RobCusor 0x7fd2c6906b50 read-depends on 0x7fd2c69095f0
[33m[WRN] [0mRobEntry 0x7fd2c6906b50 not ready due to 0x7fd2c69093e0
0x00007fd2c6015110  b9400fe8		ldr w8, [sp, #12]
[33m[WRN] [0m[R31] RobCusor 0x7fd2c6906bb0 read-depends on 0x7fd2c69093e0
[33m[WRN] [0mRobEntry 0x7fd2c6906bb0 not ready due to 0x7fd2c69093e0
[33m[WRN] [0m[R8] RobCusor 0x7fd2c6906bb0 write can go ahead with ticket 0x7fd2c6909ad0
0x00007fd2c6015114  7100051f		cmp w8, #0x1 (1)
[33m[WRN] [0m[R8] RobCusor 0x7fd2c6906c10 read-depends on 0x7fd2c6909ad0
[33m[WRN] [0m[NZCV] RobCusor 0x7fd2c6906c10 write can go ahead with ticket 0x7fd2c6909c10
[33m[WRN] [0m[NZCV] RobCusor 0x7fd2c6906c10 write can go ahead with ticket 0x7fd2c6909cd8
[33m[WRN] [0m[NZCV] RobCusor 0x7fd2c6906c10 write can go ahead with ticket 0x7fd2c6909db0
[33m[WRN] [0m[NZCV] RobCusor 0x7fd2c6906c10 write can go ahead with ticket 0x7fd2c6909dc8
0x00007fd2c6015118  54000041		b.ne #+0x8 (addr 0x7fd2c6015120)
[33m[WRN] [0m[NZCV] RobCusor 0x7fd2c6906c70 read-depends on 0x7fd2c6909dc8
0x00007fd2c6015120  b9400fe8		ldr w8, [sp, #12]
[33m[WRN] [0m[R31] RobCusor 0x7fd2c6906cd0 read-depends on 0x7fd2c69093e0
[33m[WRN] [0mRobEntry 0x7fd2c6906cd0 not ready due to 0x7fd2c69093e0
[33m[WRN] [0m[R8] RobCusor 0x7fd2c6906cd0 write can go ahead with ticket 0x7fd2c690a0b0
0x00007fd2c6015124  b9400be9		ldr w9, [sp, #8]
[33m[WRN] [0m[R31] RobCusor 0x7fd2c6906d30 read-depends on 0x7fd2c69093e0
[33m[WRN] [0mRobEntry 0x7fd2c6906d30 not ready due to 0x7fd2c69093e0
[33m[WRN] [0m[R9] RobCusor 0x7fd2c6906d30 write can go ahead with ticket 0x7fd2c690a270
0x00007fd2c6015128  1b087d28		mul w8, w9, w8
[33m[WRN] [0m[R9] RobCusor 0x7fd2c6906d90 read-depends on 0x7fd2c690a270
[33m[WRN] [0m[R8] RobCusor 0x7fd2c6906d90 read-depends on 0x7fd2c690a0b0
[33m[WRN] [0m[R9] RobCusor 0x7fd2c6906d90 read-depends on 0x7fd2c690a270
[33m[WRN] [0m[R8] RobCusor 0x7fd2c6906d90 read-depends on 0x7fd2c690a0b0
[33m[WRN] [0m[R9] RobCusor 0x7fd2c6906d90 read-depends on 0x7fd2c690a270
[33m[WRN] [0m[R8] RobCusor 0x7fd2c6906d90 read-depends on 0x7fd2c690a0b0
[33m[WRN] [0m[R8] RobCusor 0x7fd2c6906d90 write can go ahead with ticket 0x7fd2c6909cc0
0x00007fd2c601512c  b9000be8		str w8, [sp, #8]
[33m[WRN] [0m[R31] RobCusor 0x7fd2c6906df0 read-depends on 0x7fd2c69093e0
[33m[WRN] [0m[R8] RobCusor 0x7fd2c6906df0 read-depends on 0x7fd2c6909cc0
[33m[WRN] [0mRobEntry 0x7fd2c6906df0 not ready due to 0x7fd2c69093e0
0x00007fd2c6015130  b9400fe8		ldr w8, [sp, #12]
[33m[WRN] [0m[R31] RobCusor 0x7fd2c6906e50 read-depends on 0x7fd2c69093e0
[33m[WRN] [0mRobEntry 0x7fd2c6906e50 not ready due to 0x7fd2c69093e0
[33m[WRN] [0m[R8] RobCusor 0x7fd2c6906e50 write can go ahead with ticket 0x7fd2c690a980
0x00007fd2c6015134  12800009		mov w9, #0xffffffff
[33m[WRN] [0m[R9] RobCusor 0x7fd2c6906eb0 write can go ahead with ticket 0x7fd2c690aa30
0x00007fd2c6015138  0b090108		add w8, w8, w9
[33m[WRN] [0m[R9] RobCusor 0x7fd2c6906f10 read-depends on 0x7fd2c690aa30
[33m[WRN] [0m[R8] RobCusor 0x7fd2c6906f10 read-depends on 0x7fd2c690a980
[33m[WRN] [0m[R8] RobCusor 0x7fd2c6906f10 write can go ahead with ticket 0x7fd2c690abf0
0x00007fd2c601513c  b9000fe8		str w8, [sp, #12]
[33m[WRN] [0m[R31] RobCusor 0x7fd2c6906f70 read-depends on 0x7fd2c69093e0
[33m[WRN] [0m[R8] RobCusor 0x7fd2c6906f70 read-depends on 0x7fd2c690abf0
[33m[WRN] [0mRobEntry 0x7fd2c6906f70 not ready due to 0x7fd2c69093e0
0x00007fd2c6015140  17fffff4		b #-0x30 (addr 0x7fd2c6015110)
0x00007fd2c6015110  b9400fe8		ldr w8, [sp, #12]
[33m[WRN] [0m[R31] RobCusor 0x7fd2c6907030 read-depends on 0x7fd2c69093e0
[33m[WRN] [0mRobEntry 0x7fd2c6907030 not ready due to 0x7fd2c69093e0
[33m[WRN] [0m[R8] RobCusor 0x7fd2c6907030 write can go ahead with ticket 0x7fd2c690af70
0x00007fd2c6015114  7100051f		cmp w8, #0x1 (1)
[33m[WRN] [0m[R8] RobCusor 0x7fd2c6907090 read-depends on 0x7fd2c690af70
[33m[WRN] [0m[NZCV] RobCusor 0x7fd2c6907090 write can go ahead with ticket 0x7fd2c690b0b0
[33m[WRN] [0m[NZCV] RobCusor 0x7fd2c6907090 write can go ahead with ticket 0x7fd2c690b178
[33m[WRN] [0m[NZCV] RobCusor 0x7fd2c6907090 write can go ahead with ticket 0x7fd2c690b250
[33m[WRN] [0m[NZCV] RobCusor 0x7fd2c6907090 write can go ahead with ticket 0x7fd2c690b268
0x00007fd2c6015118  54000041		b.ne #+0x8 (addr 0x7fd2c6015120)
[33m[WRN] [0m[NZCV] RobCusor 0x7fd2c69070f0 read-depends on 0x7fd2c690b268
0x00007fd2c6015120  b9400fe8		ldr w8, [sp, #12]
[33m[WRN] [0m[R31] RobCusor 0x7fd2c6907150 read-depends on 0x7fd2c69093e0
[33m[WRN] [0mRobEntry 0x7fd2c6907150 not ready due to 0x7fd2c69093e0
[33m[WRN] [0m[R8] RobCusor 0x7fd2c6907150 write can go ahead with ticket 0x7fd2c690b550
0x00007fd2c6015124  b9400be9		ldr w9, [sp, #8]
[33m[WRN] [0m[R31] RobCusor 0x7fd2c69071b0 read-depends on 0x7fd2c69093e0
[33m[WRN] [0mRobEntry 0x7fd2c69071b0 not ready due to 0x7fd2c69093e0
[33m[WRN] [0m[R9] RobCusor 0x7fd2c69071b0 write can go ahead with ticket 0x7fd2c690b710
0x00007fd2c6015128  1b087d28		mul w8, w9, w8
[33m[WRN] [0m[R9] RobCusor 0x7fd2c6907210 read-depends on 0x7fd2c690b710
[33m[WRN] [0m[R8] RobCusor 0x7fd2c6907210 read-depends on 0x7fd2c690b550
[33m[WRN] [0m[R9] RobCusor 0x7fd2c6907210 read-depends on 0x7fd2c690b710
[33m[WRN] [0m[R8] RobCusor 0x7fd2c6907210 read-depends on 0x7fd2c690b550
[33m[WRN] [0m[R9] RobCusor 0x7fd2c6907210 read-depends on 0x7fd2c690b710
[33m[WRN] [0m[R8] RobCusor 0x7fd2c6907210 read-depends on 0x7fd2c690b550
[33m[WRN] [0m[R8] RobCusor 0x7fd2c6907210 write can go ahead with ticket 0x7fd2c690b160
0x00007fd2c601512c  b9000be8		str w8, [sp, #8]
[33m[WRN] [0m[R31] RobCusor 0x7fd2c6907270 read-depends on 0x7fd2c69093e0
[33m[WRN] [0m[R8] RobCusor 0x7fd2c6907270 read-depends on 0x7fd2c690b160
[33m[WRN] [0mRobEntry 0x7fd2c6907270 not ready due to 0x7fd2c69093e0
0x00007fd2c6015130  b9400fe8		ldr w8, [sp, #12]
[33m[WRN] [0m[R31] RobCusor 0x7fd2c69072d0 read-depends on 0x7fd2c69093e0
[33m[WRN] [0mRobEntry 0x7fd2c69072d0 not ready due to 0x7fd2c69093e0
[33m[WRN] [0m[R8] RobCusor 0x7fd2c69072d0 write can go ahead with ticket 0x7fd2c690be20
0x00007fd2c6015134  12800009		mov w9, #0xffffffff
[33m[WRN] [0m[R9] RobCusor 0x7fd2c6907330 write can go ahead with ticket 0x7fd2c690bed0
0x00007fd2c6015138  0b090108		add w8, w8, w9
[33m[WRN] [0m[R9] RobCusor 0x7fd2c6907390 read-depends on 0x7fd2c690bed0
[33m[WRN] [0m[R8] RobCusor 0x7fd2c6907390 read-depends on 0x7fd2c690be20
[33m[WRN] [0m[R8] RobCusor 0x7fd2c6907390 write can go ahead with ticket 0x7fd2c690c090
0x00007fd2c601513c  b9000fe8		str w8, [sp, #12]
[33m[WRN] [0m[R31] RobCusor 0x7fd2c69073f0 read-depends on 0x7fd2c69093e0
[33m[WRN] [0m[R8] RobCusor 0x7fd2c69073f0 read-depends on 0x7fd2c690c090
[33m[WRN] [0mRobEntry 0x7fd2c69073f0 not ready due to 0x7fd2c69093e0
0x00007fd2c6015140  17fffff4		b #-0x30 (addr 0x7fd2c6015110)
0x00007fd2c6015110  b9400fe8		ldr w8, [sp, #12]
[33m[WRN] [0m[R31] RobCusor 0x7fd2c69074b0 read-depends on 0x7fd2c69093e0
[33m[WRN] [0mRobEntry 0x7fd2c69074b0 not ready due to 0x7fd2c69093e0
[33m[WRN] [0m[R8] RobCusor 0x7fd2c69074b0 write can go ahead with ticket 0x7fd2c690c410
0x00007fd2c6015114  7100051f		cmp w8, #0x1 (1)
[33m[WRN] [0m[R8] RobCusor 0x7fd2c6907510 read-depends on 0x7fd2c690c410
[33m[WRN] [0m[NZCV] RobCusor 0x7fd2c6907510 write can go ahead with ticket 0x7fd2c690c550
[33m[WRN] [0m[NZCV] RobCusor 0x7fd2c6907510 write can go ahead with ticket 0x7fd2c690c618
[33m[WRN] [0m[NZCV] RobCusor 0x7fd2c6907510 write can go ahead with ticket 0x7fd2c690c6f0
[33m[WRN] [0m[NZCV] RobCusor 0x7fd2c6907510 write can go ahead with ticket 0x7fd2c690c708
0x00007fd2c6015118  54000041		b.ne #+0x8 (addr 0x7fd2c6015120)
[33m[WRN] [0m[NZCV] RobCusor 0x7fd2c6906370 read-depends on 0x7fd2c690c708
0x00007fd2c6015120  b9400fe8		ldr w8, [sp, #12]
[33m[WRN] [0m[R31] RobCusor 0x7fd2c69063d0 read-depends on 0x7fd2c69093e0
[33m[WRN] [0mRobEntry 0x7fd2c69063d0 not ready due to 0x7fd2c69093e0
[33m[WRN] [0m[R8] RobCusor 0x7fd2c69063d0 write can go ahead with ticket 0x7fd2c690c9f0
0x00007fd2c6015124  b9400be9		ldr w9, [sp, #8]
[33m[WRN] [0m[R31] RobCusor 0x7fd2c6906430 read-depends on 0x7fd2c69093e0
[33m[WRN] [0mRobEntry 0x7fd2c6906430 not ready due to 0x7fd2c69093e0
[33m[WRN] [0m[R9] RobCusor 0x7fd2c6906430 write can go ahead with ticket 0x7fd2c690cbb0
0x00007fd2c6015128  1b087d28		mul w8, w9, w8
[33m[WRN] [0m[R9] RobCusor 0x7fd2c6906490 read-depends on 0x7fd2c690cbb0
[33m[WRN] [0m[R8] RobCusor 0x7fd2c6906490 read-depends on 0x7fd2c690c9f0
[33m[WRN] [0m[R9] RobCusor 0x7fd2c6906490 read-depends on 0x7fd2c690cbb0
[33m[WRN] [0m[R8] RobCusor 0x7fd2c6906490 read-depends on 0x7fd2c690c9f0
[33m[WRN] [0m[R9] RobCusor 0x7fd2c6906490 read-depends on 0x7fd2c690cbb0
[33m[WRN] [0m[R8] RobCusor 0x7fd2c6906490 read-depends on 0x7fd2c690c9f0
[33m[WRN] [0m[R8] RobCusor 0x7fd2c6906490 write can go ahead with ticket 0x7fd2c690c600
0x00007fd2c601512c  b9000be8		str w8, [sp, #8]
[33m[WRN] [0m[R31] RobCusor 0x7fd2c69064f0 read-depends on 0x7fd2c69093e0
[33m[WRN] [0m[R8] RobCusor 0x7fd2c69064f0 read-depends on 0x7fd2c690c600
[33m[WRN] [0mRobEntry 0x7fd2c69064f0 not ready due to 0x7fd2c69093e0
0x00007fd2c6015130  b9400fe8		ldr w8, [sp, #12]
[33m[WRN] [0m[R31] RobCusor 0x7fd2c6907570 read-depends on 0x7fd2c69093e0
[33m[WRN] [0mRobEntry 0x7fd2c6907570 not ready due to 0x7fd2c69093e0
[33m[WRN] [0m[R8] RobCusor 0x7fd2c6907570 write can go ahead with ticket 0x7fd2c690d2c0
0x00007fd2c6015134  12800009		mov w9, #0xffffffff
[33m[WRN] [0m[R9] RobCusor 0x7fd2c69075d0 write can go ahead with ticket 0x7fd2c690d370
0x00007fd2c6015138  0b090108		add w8, w8, w9
[33m[WRN] [0m[R9] RobCusor 0x7fd2c6907630 read-depends on 0x7fd2c690d370
[33m[WRN] [0m[R8] RobCusor 0x7fd2c6907630 read-depends on 0x7fd2c690d2c0
[33m[WRN] [0m[R8] RobCusor 0x7fd2c6907630 write can go ahead with ticket 0x7fd2c690d530
0x00007fd2c601513c  b9000fe8		str w8, [sp, #12]
[33m[WRN] [0m[R31] RobCusor 0x7fd2c6907690 read-depends on 0x7fd2c69093e0
[33m[WRN] [0m[R8] RobCusor 0x7fd2c6907690 read-depends on 0x7fd2c690d530
[33m[WRN] [0mRobEntry 0x7fd2c6907690 not ready due to 0x7fd2c69093e0
0x00007fd2c6015140  17fffff4		b #-0x30 (addr 0x7fd2c6015110)
0x00007fd2c6015110  b9400fe8		ldr w8, [sp, #12]
[33m[WRN] [0m[R31] RobCusor 0x7fd2c6907750 read-depends on 0x7fd2c69093e0
[33m[WRN] [0mRobEntry 0x7fd2c6907750 not ready due to 0x7fd2c69093e0
[33m[WRN] [0m[R8] RobCusor 0x7fd2c6907750 write can go ahead with ticket 0x7fd2c690d8b0
0x00007fd2c6015114  7100051f		cmp w8, #0x1 (1)
[33m[WRN] [0m[R8] RobCusor 0x7fd2c69077b0 read-depends on 0x7fd2c690d8b0
[33m[WRN] [0m[NZCV] RobCusor 0x7fd2c69077b0 write can go ahead with ticket 0x7fd2c690d9f0
[33m[WRN] [0m[NZCV] RobCusor 0x7fd2c69077b0 write can go ahead with ticket 0x7fd2c690dab8
[33m[WRN] [0m[NZCV] RobCusor 0x7fd2c69077b0 write can go ahead with ticket 0x7fd2c690db90
[33m[WRN] [0m[NZCV] RobCusor 0x7fd2c69077b0 write can go ahead with ticket 0x7fd2c690dba8
0x00007fd2c6015118  54000041		b.ne #+0x8 (addr 0x7fd2c6015120)
[33m[WRN] [0m[NZCV] RobCusor 0x7fd2c6907810 read-depends on 0x7fd2c690dba8
0x00007fd2c6015120  b9400fe8		ldr w8, [sp, #12]
[33m[WRN] [0m[R31] RobCusor 0x7fd2c6907870 read-depends on 0x7fd2c69093e0
[33m[WRN] [0mRobEntry 0x7fd2c6907870 not ready due to 0x7fd2c69093e0
[33m[WRN] [0m[R8] RobCusor 0x7fd2c6907870 write can go ahead with ticket 0x7fd2c690de90
0x00007fd2c6015124  b9400be9		ldr w9, [sp, #8]
[33m[WRN] [0m[R31] RobCusor 0x7fd2c69078d0 read-depends on 0x7fd2c69093e0
[33m[WRN] [0mRobEntry 0x7fd2c69078d0 not ready due to 0x7fd2c69093e0
[33m[WRN] [0m[R9] RobCusor 0x7fd2c69078d0 write can go ahead with ticket 0x7fd2c690e050
0x00007fd2c6015128  1b087d28		mul w8, w9, w8
[33m[WRN] [0m[R9] RobCusor 0x7fd2c6907930 read-depends on 0x7fd2c690e050
[33m[WRN] [0m[R8] RobCusor 0x7fd2c6907930 read-depends on 0x7fd2c690de90
[33m[WRN] [0m[R9] RobCusor 0x7fd2c6907930 read-depends on 0x7fd2c690e050
[33m[WRN] [0m[R8] RobCusor 0x7fd2c6907930 read-depends on 0x7fd2c690de90
[33m[WRN] [0m[R9] RobCusor 0x7fd2c6907930 read-depends on 0x7fd2c690e050
[33m[WRN] [0m[R8] RobCusor 0x7fd2c6907930 read-depends on 0x7fd2c690de90
[33m[WRN] [0m[R8] RobCusor 0x7fd2c6907930 write can go ahead with ticket 0x7fd2c690daa0
0x00007fd2c601512c  b9000be8		str w8, [sp, #8]
[33m[WRN] [0m[R31] RobCusor 0x7fd2c6907990 read-depends on 0x7fd2c69093e0
[33m[WRN] [0m[R8] RobCusor 0x7fd2c6907990 read-depends on 0x7fd2c690daa0
[33m[WRN] [0mRobEntry 0x7fd2c6907990 not ready due to 0x7fd2c69093e0
0x00007fd2c6015130  b9400fe8		ldr w8, [sp, #12]
[33m[WRN] [0m[R31] RobCusor 0x7fd2c69079f0 read-depends on 0x7fd2c69093e0
[33m[WRN] [0mRobEntry 0x7fd2c69079f0 not ready due to 0x7fd2c69093e0
[33m[WRN] [0m[R8] RobCusor 0x7fd2c69079f0 write can go ahead with ticket 0x7fd2c690e760
0x00007fd2c6015134  12800009		mov w9, #0xffffffff
[33m[WRN] [0m[R9] RobCusor 0x7fd2c6907a50 write can go ahead with ticket 0x7fd2c690e810
0x00007fd2c6015138  0b090108		add w8, w8, w9
[33m[WRN] [0m[R9] RobCusor 0x7fd2c6907ab0 read-depends on 0x7fd2c690e810
[33m[WRN] [0m[R8] RobCusor 0x7fd2c6907ab0 read-depends on 0x7fd2c690e760
[33m[WRN] [0m[R8] RobCusor 0x7fd2c6907ab0 write can go ahead with ticket 0x7fd2c690e9d0
0x00007fd2c601513c  b9000fe8		str w8, [sp, #12]
[33m[WRN] [0m[R31] RobCusor 0x7fd2c6907b10 read-depends on 0x7fd2c69093e0
[33m[WRN] [0m[R8] RobCusor 0x7fd2c6907b10 read-depends on 0x7fd2c690e9d0
[33m[WRN] [0mRobEntry 0x7fd2c6907b10 not ready due to 0x7fd2c69093e0
0x00007fd2c6015140  17fffff4		b #-0x30 (addr 0x7fd2c6015110)
0x00007fd2c6015110  b9400fe8		ldr w8, [sp, #12]
[33m[WRN] [0m[R31] RobCusor 0x7fd2c6907bd0 read-depends on 0x7fd2c69093e0
[33m[WRN] [0mRobEntry 0x7fd2c6907bd0 not ready due to 0x7fd2c69093e0
[33m[WRN] [0m[R8] RobCusor 0x7fd2c6907bd0 write can go ahead with ticket 0x7fd2c690ed50
[33m[WRN] [0m----------------------Experimental Execute--------------
[33m[WRN] [0mRobEntry 0x7fd2c69069d0 not ready due to 0x7fd2c6908bc0
[33m[WRN] [0mRobEntry 0x7fd2c6906a30 not ready due to 0x7fd2c6908bc0
[33m[WRN] [0mRobEntry 0x7fd2c6906630 not ready due to 0x7fd2c6909040
[33m[WRN] [0mRobEntry 0x7fd2c6906c10 not ready due to 0x7fd2c6909ad0
[33m[WRN] [0mRobEntry 0x7fd2c6906c70 not ready due to 0x7fd2c6909dc8
[33m[WRN] [0mRobEntry 0x7fd2c6906d90 not ready due to 0x7fd2c690a270
[33m[WRN] [0mRobEntry 0x7fd2c6906f10 not ready due to 0x7fd2c690aa30
[33m[WRN] [0mRobEntry 0x7fd2c6907090 not ready due to 0x7fd2c690af70
[33m[WRN] [0mRobEntry 0x7fd2c69070f0 not ready due to 0x7fd2c690b268
[33m[WRN] [0mRobEntry 0x7fd2c6907210 not ready due to 0x7fd2c690b710
[33m[WRN] [0mRobEntry 0x7fd2c6907390 not ready due to 0x7fd2c690bed0
[33m[WRN] [0mRobEntry 0x7fd2c6907510 not ready due to 0x7fd2c690c410
[33m[WRN] [0mRobEntry 0x7fd2c6906370 not ready due to 0x7fd2c690c708
[33m[WRN] [0mRobEntry 0x7fd2c6906490 not ready due to 0x7fd2c690cbb0
[33m[WRN] [0mRobEntry 0x7fd2c6907630 not ready due to 0x7fd2c690d370
[33m[WRN] [0mRobEntry 0x7fd2c69077b0 not ready due to 0x7fd2c690d8b0
[33m[WRN] [0mRobEntry 0x7fd2c6907810 not ready due to 0x7fd2c690dba8
[33m[WRN] [0mRobEntry 0x7fd2c6907930 not ready due to 0x7fd2c690e050
[33m[WRN] [0mRobEntry 0x7fd2c6907ab0 not ready due to 0x7fd2c690e810
0x00007fd2c601511c  1400000a		b #+0x28 (addr 0x7fd2c6015144)
#    pc: 0x7fd2c6015144 (by 0x7fd2c69067f0)
[33m[WRN] [0m[0x7fd2c69067f0] filled ticket 0x7fd2c6906550
[34m[DBG] [0m   Logic[0]: newPc <- 0x7fd2c6015144
0x00007fd2c6015144  b9400be0		ldr w0, [sp, #8]
[33m[WRN] [0m[R31] RobEntry 0x7fd2c6906850 reads init val 0x0
[34m[DBG] [0m[MEM] read addr=0x7fd2c601d2d8 len=0x4 val=0x375f00
[33m[WRN] [0m[R0] Speculative write by 0x7fd2c6906850 val=0x375f00
[33m[WRN] [0m[0x7fd2c6906850] filled ticket 0x7fd2c6904730
#    x0: 0x000000000000000a <- 0x00007fd2c601d2d8
[34m[DBG] [0m   Logic[1]: speculation no set pc
[34m[DBG] [0m   Scribe: retired 0 ROB entries (now: 0x7fd2c69067f0:Done)
[34m[DBG] [0m======================================== Update[78/122] 
[34m[DBG] [0m   Fetcher: buffer.size = 128
[34m[DBG] [0m   Logic: Branch prediction 0x7fd2c601511c was correct: 18
[34m[DBG] [0m   Logic: Correct branch: 0x7fd2c69067f0 succ 0x7fd2c6906850
[34m[DBG] [0mAdding new BP record for 0x7fd2c601511c -> 0x7fd2c6015144
[34m[DBG] [0m   Logic: 0x7fd2c69067f0 affirmed speculative RobEntry 0x7fd2c6906850
[34m[DBG] [0m   Logic: 0x7fd2c69067f0 enacting RobEntry 0x7fd2c6906850
0x00007fd2c6015144  b9400be0		ldr w0, [sp, #8]
[33m[WRN] [0m[R31] RobEntry 0x7fd2c6906850 reads init val 0x0
[34m[DBG] [0m[MEM] read addr=0x7fd2c601d2d8 len=0x4 val=0x375f00
[33m[WRN] [0m[0x7fd2c6906850] filled ticket 0x7fd2c6904730
#    x0: 0x0000000000375f00 <- 0x00007fd2c601d2d8
[34m[DBG] [0m   Logic: 0x7fd2c69067f0 affirmed speculative RobEntry 0x7fd2c69068b0
[34m[DBG] [0m   Logic: 0x7fd2c69067f0 affirmed speculative RobEntry 0x7fd2c6906910
[34m[DBG] [0m   Logic: instr executed ? yes: 2
[34m[DBG] [0m   Logic: rStation size <- 62, rsVacancy <- 2
[34m[DBG] [0m======================================== Sync [78/122] 
[34m[DBG] [0m======================================== Cycle End

[34m[DBG] [0m======================================== Compute[79/122]
[34m[DBG] [0mPC Offsest: 0x114
[34m[DBG] [0m   Fetcher: at: 0x7fd2c6015114 (buffer 0:128)
[34m[DBG] [0m   Fetcher: front instr = 0x7fd2c6015114, fetched 64, tmpBuffer: 64
[34m[DBG] [0m   Decoder: Logic reservation station is full
0x00007fd2c6015148  910043ff		add sp, sp, #0x10 (16)
0x00007fd2c601514c  d65f03c0		ret
0x00007fd2c6015150  a9bf7bfd		stp x29, x30, [sp, #-16]!
[33m[WRN] [0mRobEntry 0x7fd2c6906970 not ready due to 0x7fd2c6904750
[33m[WRN] [0mRobEntry 0x7fd2c6906970 not ready due to 0x7fd2c6904750
0x00007fd2c6015154  910003fd		mov x29, sp
0x00007fd2c6015158  d10043ff		sub sp, sp, #0x10 (16)
0x00007fd2c601515c  52800140		mov w0, #0xa
0x00007fd2c6015160  52800008		mov w8, #0x0
0x00007fd2c6015164  b81fc3a8		stur w8, [x29, #-4]
[33m[WRN] [0mRobEntry 0x7fd2c6906570 not ready due to 0x7fd2c6908f00
0x00007fd2c6015168  97ffffe6		bl #-0x68 (addr 0x7fd2c6015100)
0x00007fd2c6015100  d10043ff		sub sp, sp, #0x10 (16)
0x00007fd2c6015104  320003e8		orr w8, wzr, #0x1
0x00007fd2c6015108  b9000fe0		str w0, [sp, #12]
[33m[WRN] [0mRobEntry 0x7fd2c69066f0 not ready due to 0x7fd2c69093e0
0x00007fd2c601510c  b9000be8		str w8, [sp, #8]
[33m[WRN] [0mRobEntry 0x7fd2c6906b50 not ready due to 0x7fd2c69093e0
0x00007fd2c6015110  b9400fe8		ldr w8, [sp, #12]
[33m[WRN] [0mRobEntry 0x7fd2c6906bb0 not ready due to 0x7fd2c69093e0
0x00007fd2c6015114  7100051f		cmp w8, #0x1 (1)
0x00007fd2c6015118  54000041		b.ne #+0x8 (addr 0x7fd2c6015120)
0x00007fd2c6015120  b9400fe8		ldr w8, [sp, #12]
[33m[WRN] [0mRobEntry 0x7fd2c6906cd0 not ready due to 0x7fd2c69093e0
0x00007fd2c6015124  b9400be9		ldr w9, [sp, #8]
[33m[WRN] [0mRobEntry 0x7fd2c6906d30 not ready due to 0x7fd2c69093e0
0x00007fd2c6015128  1b087d28		mul w8, w9, w8
0x00007fd2c601512c  b9000be8		str w8, [sp, #8]
[33m[WRN] [0mRobEntry 0x7fd2c6906df0 not ready due to 0x7fd2c69093e0
0x00007fd2c6015130  b9400fe8		ldr w8, [sp, #12]
[33m[WRN] [0mRobEntry 0x7fd2c6906e50 not ready due to 0x7fd2c69093e0
0x00007fd2c6015134  12800009		mov w9, #0xffffffff
0x00007fd2c6015138  0b090108		add w8, w8, w9
0x00007fd2c601513c  b9000fe8		str w8, [sp, #12]
[33m[WRN] [0mRobEntry 0x7fd2c6906f70 not ready due to 0x7fd2c69093e0
0x00007fd2c6015140  17fffff4		b #-0x30 (addr 0x7fd2c6015110)
0x00007fd2c6015110  b9400fe8		ldr w8, [sp, #12]
[33m[WRN] [0mRobEntry 0x7fd2c6907030 not ready due to 0x7fd2c69093e0
0x00007fd2c6015114  7100051f		cmp w8, #0x1 (1)
0x00007fd2c6015118  54000041		b.ne #+0x8 (addr 0x7fd2c6015120)
0x00007fd2c6015120  b9400fe8		ldr w8, [sp, #12]
[33m[WRN] [0mRobEntry 0x7fd2c6907150 not ready due to 0x7fd2c69093e0
0x00007fd2c6015124  b9400be9		ldr w9, [sp, #8]
[33m[WRN] [0mRobEntry 0x7fd2c69071b0 not ready due to 0x7fd2c69093e0
0x00007fd2c6015128  1b087d28		mul w8, w9, w8
0x00007fd2c601512c  b9000be8		str w8, [sp, #8]
[33m[WRN] [0mRobEntry 0x7fd2c6907270 not ready due to 0x7fd2c69093e0
0x00007fd2c6015130  b9400fe8		ldr w8, [sp, #12]
[33m[WRN] [0mRobEntry 0x7fd2c69072d0 not ready due to 0x7fd2c69093e0
0x00007fd2c6015134  12800009		mov w9, #0xffffffff
0x00007fd2c6015138  0b090108		add w8, w8, w9
0x00007fd2c601513c  b9000fe8		str w8, [sp, #12]
[33m[WRN] [0mRobEntry 0x7fd2c69073f0 not ready due to 0x7fd2c69093e0
0x00007fd2c6015140  17fffff4		b #-0x30 (addr 0x7fd2c6015110)
0x00007fd2c6015110  b9400fe8		ldr w8, [sp, #12]
[33m[WRN] [0mRobEntry 0x7fd2c69074b0 not ready due to 0x7fd2c69093e0
0x00007fd2c6015114  7100051f		cmp w8, #0x1 (1)
0x00007fd2c6015118  54000041		b.ne #+0x8 (addr 0x7fd2c6015120)
0x00007fd2c6015120  b9400fe8		ldr w8, [sp, #12]
[33m[WRN] [0mRobEntry 0x7fd2c69063d0 not ready due to 0x7fd2c69093e0
0x00007fd2c6015124  b9400be9		ldr w9, [sp, #8]
[33m[WRN] [0mRobEntry 0x7fd2c6906430 not ready due to 0x7fd2c69093e0
0x00007fd2c6015128  1b087d28		mul w8, w9, w8
0x00007fd2c601512c  b9000be8		str w8, [sp, #8]
[33m[WRN] [0mRobEntry 0x7fd2c69064f0 not ready due to 0x7fd2c69093e0
0x00007fd2c6015130  b9400fe8		ldr w8, [sp, #12]
[33m[WRN] [0mRobEntry 0x7fd2c6907570 not ready due to 0x7fd2c69093e0
0x00007fd2c6015134  12800009		mov w9, #0xffffffff
0x00007fd2c6015138  0b090108		add w8, w8, w9
0x00007fd2c601513c  b9000fe8		str w8, [sp, #12]
[33m[WRN] [0mRobEntry 0x7fd2c6907690 not ready due to 0x7fd2c69093e0
0x00007fd2c6015140  17fffff4		b #-0x30 (addr 0x7fd2c6015110)
0x00007fd2c6015110  b9400fe8		ldr w8, [sp, #12]
[33m[WRN] [0mRobEntry 0x7fd2c6907750 not ready due to 0x7fd2c69093e0
0x00007fd2c6015114  7100051f		cmp w8, #0x1 (1)
0x00007fd2c6015118  54000041		b.ne #+0x8 (addr 0x7fd2c6015120)
0x00007fd2c6015120  b9400fe8		ldr w8, [sp, #12]
[33m[WRN] [0mRobEntry 0x7fd2c6907870 not ready due to 0x7fd2c69093e0
0x00007fd2c6015124  b9400be9		ldr w9, [sp, #8]
[33m[WRN] [0mRobEntry 0x7fd2c69078d0 not ready due to 0x7fd2c69093e0
0x00007fd2c6015128  1b087d28		mul w8, w9, w8
0x00007fd2c601512c  b9000be8		str w8, [sp, #8]
[33m[WRN] [0mRobEntry 0x7fd2c6907990 not ready due to 0x7fd2c69093e0
0x00007fd2c6015130  b9400fe8		ldr w8, [sp, #12]
[33m[WRN] [0mRobEntry 0x7fd2c69079f0 not ready due to 0x7fd2c69093e0
0x00007fd2c6015134  12800009		mov w9, #0xffffffff
0x00007fd2c6015138  0b090108		add w8, w8, w9
0x00007fd2c601513c  b9000fe8		str w8, [sp, #12]
[33m[WRN] [0mRobEntry 0x7fd2c6907b10 not ready due to 0x7fd2c69093e0
0x00007fd2c6015140  17fffff4		b #-0x30 (addr 0x7fd2c6015110)
0x00007fd2c6015110  b9400fe8		ldr w8, [sp, #12]
[33m[WRN] [0mRobEntry 0x7fd2c6907bd0 not ready due to 0x7fd2c69093e0
[33m[WRN] [0m----------------------Experimental Execute--------------
[33m[WRN] [0mRobEntry 0x7fd2c69069d0 not ready due to 0x7fd2c6908bc0
[33m[WRN] [0mRobEntry 0x7fd2c6906a30 not ready due to 0x7fd2c6908bc0
[33m[WRN] [0mRobEntry 0x7fd2c6906630 not ready due to 0x7fd2c6909040
[33m[WRN] [0mRobEntry 0x7fd2c6906c10 not ready due to 0x7fd2c6909ad0
[33m[WRN] [0mRobEntry 0x7fd2c6906c70 not ready due to 0x7fd2c6909dc8
[33m[WRN] [0mRobEntry 0x7fd2c6906d90 not ready due to 0x7fd2c690a270
[33m[WRN] [0mRobEntry 0x7fd2c6906f10 not ready due to 0x7fd2c690aa30
[33m[WRN] [0mRobEntry 0x7fd2c6907090 not ready due to 0x7fd2c690af70
[33m[WRN] [0mRobEntry 0x7fd2c69070f0 not ready due to 0x7fd2c690b268
[33m[WRN] [0mRobEntry 0x7fd2c6907210 not ready due to 0x7fd2c690b710
[33m[WRN] [0mRobEntry 0x7fd2c6907390 not ready due to 0x7fd2c690bed0
[33m[WRN] [0mRobEntry 0x7fd2c6907510 not ready due to 0x7fd2c690c410
[33m[WRN] [0mRobEntry 0x7fd2c6906370 not ready due to 0x7fd2c690c708
[33m[WRN] [0mRobEntry 0x7fd2c6906490 not ready due to 0x7fd2c690cbb0
[33m[WRN] [0mRobEntry 0x7fd2c6907630 not ready due to 0x7fd2c690d370
[33m[WRN] [0mRobEntry 0x7fd2c69077b0 not ready due to 0x7fd2c690d8b0
[33m[WRN] [0mRobEntry 0x7fd2c6907810 not ready due to 0x7fd2c690dba8
[33m[WRN] [0mRobEntry 0x7fd2c6907930 not ready due to 0x7fd2c690e050
[33m[WRN] [0mRobEntry 0x7fd2c6907ab0 not ready due to 0x7fd2c690e810
0x00007fd2c6015148  910043ff		add sp, sp, #0x10 (16)
[33m[WRN] [0m[R31] RobEntry 0x7fd2c69068b0 reads init val 0x0
[33m[WRN] [0m[0x7fd2c69068b0] filled ticket 0x7fd2c6904750
#    sp: 0x00007fd2c601d2e0
[34m[DBG] [0m   Logic[0]: newPc <- 0x7fd2c601514c
0x00007fd2c601514c  d65f03c0		ret
[33m[WRN] [0m[R30] RobEntry 0x7fd2c6906910 reads init val 0x0
#    pc: 0x7fd2c601516c (by 0x7fd2c6906910)
[33m[WRN] [0m[0x7fd2c6906910] filled ticket 0x7fd2c6902220
[34m[DBG] [0m   Logic[1]: newPc <- 0x7fd2c601516c
[34m[DBG] [0m   Scribe: retired 2 ROB entries (now: 0x7fd2c69068b0:Done)
[34m[DBG] [0m======================================== Update[79/124] 
[34m[DBG] [0m   Fetcher: buffer.size = 192
[34m[DBG] [0m   Logic: BP wrong: 4; Fetcher pc <- 0x7fd2c601516c
[34m[DBG] [0mAdding new BP record for 0x7fd2c601514c -> 0x7fd2c601516c
[34m[DBG] [0m   Fetcher: soft reset
[34m[DBG] [0m   Decoder: soft reset
[34m[DBG] [0m   Logic: instr executed ? yes: 2
[34m[DBG] [0m   Logic: rStation size <- 0, rsVacancy <- 64
[34m[DBG] [0m======================================== Sync [79/124] 
[34m[DBG] [0m======================================== Cycle End

[34m[DBG] [0m======================================== Compute[80/124]
[34m[DBG] [0mPC Offsest: 0x16c
[34m[DBG] [0m   Fetcher: at: 0x7fd2c601516c (buffer 0:0)
[34m[DBG] [0m   Fetcher: PC reached end of .text: 0x7fd2c6015180/0x7fd2c6015180
[34m[DBG] [0m   Fetcher: front instr = 0x7fd2c601516c, fetched 5, tmpBuffer: 5
[34m[DBG] [0m   Decoder: fetcher buffer is dry
[34m[DBG] [0m   Logic: reservation station is dry
[34m[DBG] [0m   Scribe: retired 64 ROB entries (now: 0x7fd2c6910b50:NoSucc)
[34m[DBG] [0m======================================== Update[80/126] 
[34m[DBG] [0m   Fetcher: buffer.size = 5
[34m[DBG] [0m   Logic: instr executed ? no: 0
[34m[DBG] [0m   Logic: rStation size <- 0, rsVacancy <- 64
[34m[DBG] [0m======================================== Sync [80/126] 
[34m[DBG] [0m======================================== Cycle End

[34m[DBG] [0m======================================== Compute[81/126]
[34m[DBG] [0mPC Offsest: 0x180
[34m[DBG] [0m   Fetcher: at: 0x7fd2c6015180 (buffer 0:5)
[34m[DBG] [0m   Fetcher: PC reached end of .text: 0x7fd2c6015180/0x7fd2c6015180
[34m[DBG] [0m   Decoder: fetcher buffer is dry
[34m[DBG] [0m   Decoder: front instr = 0x7fd2c601516c
[34m[DBG] [0m   Logic: reservation station is dry
[34m[DBG] [0m   Scribe: retired 1 ROB entries (now: 0x7fd2c6910b50:NoSucc)
[34m[DBG] [0m======================================== Update[81/126] 
[34m[DBG] [0m   Fetcher: buffer.size = 0
[34m[DBG] [0m   Logic: instr executed ? no: 0
[34m[DBG] [0m   Logic: rStation size <- 0, rsVacancy <- 64
[34m[DBG] [0m======================================== Sync [81/126] 
[34m[DBG] [0m======================================== Cycle End

[34m[DBG] [0m======================================== Compute[82/126]
[34m[DBG] [0mPC Offsest: 0x180
[34m[DBG] [0m   Fetcher: at: 0x7fd2c6015180 (buffer 0:0)
[34m[DBG] [0m   Fetcher: PC reached end of .text: 0x7fd2c6015180/0x7fd2c6015180
[34m[DBG] [0m   Decoder: fetcher buffer is dry
[34m[DBG] [0m   Logic: reservation station is dry
[34m[DBG] [0m   Scribe: retired 1 ROB entries (now: 0x7fd2c6914330:Idle)
[34m[DBG] [0m======================================== Update[82/126] 
[34m[DBG] [0m   Fetcher: buffer.size = 0
[34m[DBG] [0m   Logic: instr executed ? no: 0
[34m[DBG] [0m   Logic: rStation size <- 5, rsVacancy <- 59
[34m[DBG] [0m======================================== Sync [82/126] 
[34m[DBG] [0m======================================== Cycle End

[34m[DBG] [0m======================================== Compute[83/126]
[34m[DBG] [0mPC Offsest: 0x180
[34m[DBG] [0m   Fetcher: at: 0x7fd2c6015180 (buffer 0:0)
[34m[DBG] [0m   Fetcher: PC reached end of .text: 0x7fd2c6015180/0x7fd2c6015180
[34m[DBG] [0m   Decoder: fetcher buffer is dry
0x00007fd2c601516c  b9000be0		str w0, [sp, #8]
[33m[WRN] [0m[R31] RobCusor 0x7fd2c6914330 read can go ahead (init)
[33m[WRN] [0m[R0] RobCusor 0x7fd2c6914330 read can go ahead (init)
0x00007fd2c6015170  b9400be0		ldr w0, [sp, #8]
[33m[WRN] [0m[R31] RobCusor 0x7fd2c6914390 read can go ahead (init)
[33m[WRN] [0m[R0] RobCusor 0x7fd2c6914390 write can go ahead with ticket 0x7fd2c6914d20
0x00007fd2c6015174  910003bf		mov sp, x29
[33m[WRN] [0m[R29] RobCusor 0x7fd2c69143f0 read can go ahead (init)
[33m[WRN] [0m[R31] RobCusor 0x7fd2c69143f0 write can go ahead with ticket 0x7fd2c6914e50
0x00007fd2c6015178  a8c17bfd		ldp x29, x30, [sp], #16
[33m[WRN] [0m[R31] RobCusor 0x7fd2c6914450 read-depends on 0x7fd2c6914e50
[33m[WRN] [0m[R31] RobCusor 0x7fd2c6914450 write can go ahead with ticket 0x7fd2c6914f90
[33m[WRN] [0mRobEntry 0x7fd2c6914450 not ready due to 0x7fd2c6914e50
[33m[WRN] [0m[R29] RobCusor 0x7fd2c6914450 write can go ahead with ticket 0x7fd2c69150d8
[33m[WRN] [0mRobEntry 0x7fd2c6914450 not ready due to 0x7fd2c6914e50
[33m[WRN] [0m[R30] RobCusor 0x7fd2c6914450 write can go ahead with ticket 0x7fd2c6915220
0x00007fd2c601517c  d65f03c0		ret
[33m[WRN] [0m[R30] RobCusor 0x7fd2c69144b0 read-depends on 0x7fd2c6915220
[33m[WRN] [0m----------------------Experimental Execute--------------
[33m[WRN] [0mRobEntry 0x7fd2c69144b0 not ready due to 0x7fd2c6915220
0x00007fd2c601516c  b9000be0		str w0, [sp, #8]
[33m[WRN] [0m[R31] RobEntry 0x7fd2c6914330 reads init val 0x0
[33m[WRN] [0m[R0] RobEntry 0x7fd2c6914330 reads init val 0x0
[33m[WRN] [0mReal write: 0x7fd2c601d2e8, 0x375f00
#    w0:         0x00375f00 -> 0x00007fd2c601d2e8
[34m[DBG] [0m   Logic[0]: newPc <- 0x7fd2c6015170
0x00007fd2c6015174  910003bf		mov sp, x29
[33m[WRN] [0m[R29] RobEntry 0x7fd2c69143f0 reads init val 0x0
[33m[WRN] [0m[0x7fd2c69143f0] filled ticket 0x7fd2c6914e50
#    sp: 0x00007fd2c601d2f0
[34m[DBG] [0m   Logic[1]: newPc <- 0x7fd2c6015178
[34m[DBG] [0m   Scribe: retired 0 ROB entries (now: 0x7fd2c6914330:Done)
[34m[DBG] [0m======================================== Update[83/126] 
[34m[DBG] [0m   Fetcher: buffer.size = 0
[34m[DBG] [0m   Logic: instr executed ? yes: 1
[34m[DBG] [0m   Logic: rStation size <- 4, rsVacancy <- 60
[34m[DBG] [0m======================================== Sync [83/126] 
[34m[DBG] [0m======================================== Cycle End

[34m[DBG] [0m======================================== Compute[84/126]
[34m[DBG] [0mPC Offsest: 0x180
[34m[DBG] [0m   Fetcher: at: 0x7fd2c6015180 (buffer 0:0)
[34m[DBG] [0m   Fetcher: PC reached end of .text: 0x7fd2c6015180/0x7fd2c6015180
[34m[DBG] [0m   Decoder: fetcher buffer is dry
0x00007fd2c6015170  b9400be0		ldr w0, [sp, #8]
0x00007fd2c6015178  a8c17bfd		ldp x29, x30, [sp], #16
[33m[WRN] [0mRobEntry 0x7fd2c6914450 ready with 0x7fd2c6914e50
[33m[WRN] [0mRobEntry 0x7fd2c6914450 ready with 0x7fd2c6914e50
0x00007fd2c601517c  d65f03c0		ret
[33m[WRN] [0m----------------------Experimental Execute--------------
[33m[WRN] [0mRobEntry 0x7fd2c6914450 ready with 0x7fd2c6914e50
[33m[WRN] [0mRobEntry 0x7fd2c69144b0 not ready due to 0x7fd2c6915220
0x00007fd2c6015170  b9400be0		ldr w0, [sp, #8]
[33m[WRN] [0m[R31] RobEntry 0x7fd2c6914390 reads init val 0x0
[34m[DBG] [0m[MEM] read addr=0x7fd2c601d2f8 len=0x4 val=0x0
[33m[WRN] [0m[0x7fd2c6914390] filled ticket 0x7fd2c6914d20
#    x0: 0x0000000000000000 <- 0x00007fd2c601d2f8
[34m[DBG] [0m   Logic[0]: newPc <- 0x7fd2c6015174
0x00007fd2c6015178  a8c17bfd		ldp x29, x30, [sp], #16
[33m[WRN] [0m[0x7fd2c6914450] filled ticket 0x7fd2c69151f0
[33m[WRN] [0m[0x7fd2c6914450] did not fill ticket 0x7fd2c6915208
[33m[WRN] [0m[0x7fd2c6914450] did not fill ticket 0x7fd2c6915220
[34m[DBG] [0m[MEM] read addr=0x7fd2c601d2f0 len=0x8 val=0xbadbeef
[33m[WRN] [0m[0x7fd2c6914450] did not fill ticket 0x7fd2c69151f0
[33m[WRN] [0m[0x7fd2c6914450] filled ticket 0x7fd2c6915208
[33m[WRN] [0m[0x7fd2c6914450] did not fill ticket 0x7fd2c6915220
[34m[DBG] [0m[MEM] read addr=0x7fd2c601d2f8 len=0x8 val=0x0
[33m[WRN] [0m[0x7fd2c6914450] did not fill ticket 0x7fd2c69151f0
[33m[WRN] [0m[0x7fd2c6914450] did not fill ticket 0x7fd2c6915208
[33m[WRN] [0m[0x7fd2c6914450] filled ticket 0x7fd2c6915220
#   x29: 0x000000000badbeef <- 0x00007fd2c601d2f0
#    lr: 0x0000000000000000 <- 0x00007fd2c601d2f8
#    sp: 0x00007fd2c601d300
[34m[DBG] [0m   Logic[1]: newPc <- 0x7fd2c601517c
[34m[DBG] [0m   Scribe: retired 1 ROB entries (now: 0x7fd2c6914390:Done)
[34m[DBG] [0m======================================== Update[84/127] 
[34m[DBG] [0m   Fetcher: buffer.size = 0
[34m[DBG] [0m   Logic: instr executed ? yes: 3
[34m[DBG] [0m   Logic: rStation size <- 1, rsVacancy <- 63
[34m[DBG] [0m======================================== Sync [84/127] 
[34m[DBG] [0m======================================== Cycle End

[34m[DBG] [0m======================================== Compute[85/127]
[34m[DBG] [0mPC Offsest: 0x180
[34m[DBG] [0m   Fetcher: at: 0x7fd2c6015180 (buffer 0:0)
[34m[DBG] [0m   Fetcher: PC reached end of .text: 0x7fd2c6015180/0x7fd2c6015180
[34m[DBG] [0m   Decoder: fetcher buffer is dry
0x00007fd2c601517c  d65f03c0		ret
[33m[WRN] [0m----------------------Experimental Execute--------------
[33m[WRN] [0mRobEntry 0x7fd2c69144b0 ready with 0x7fd2c6915220
0x00007fd2c601517c  d65f03c0		ret
#    pc: 0x0 (by 0x7fd2c69144b0)
[33m[WRN] [0m[0x7fd2c69144b0] filled ticket 0x7fd2c690efc0
[34m[DBG] [0m   Logic[0]: newPc <- 0x0
[34m[DBG] [0m   Scribe: retired 3 ROB entries (now: 0x7fd2c69144b0:Done)
[34m[DBG] [0m======================================== Update[85/130] 
[34m[DBG] [0m   Fetcher: buffer.size = 0
[34m[DBG] [0m   Logic: Branch prediction 0x7fd2c601517c was correct: 19
[34m[DBG] [0m   Logic: Correct branch: 0x7fd2c69144b0 succ 0x0
[34m[DBG] [0mAdding new BP record for 0x7fd2c601517c -> 0x0
[34m[DBG] [0m   Logic: Ret detected
[34m[DBG] [0m   Fetcher: soft reset
[34m[DBG] [0m   Decoder: soft reset
[34m[DBG] [0m   Logic: instr executed ? yes: 1
[34m[DBG] [0m   Logic: rStation size <- 0, rsVacancy <- 64
[34m[DBG] [0m======================================== Halt Sequence
[34m[DBG] [0m   Scribe: retired 1 ROB entries (now: 0x7fd2c69144b0:NoSucc)
[34m[DBG] [0m======================================== Proc Halts
#    x0: 0x0000000000000000
[35m[MSG] [0mReturn code as long:  0
[35m[MSG] [0m131 instructions in 85 cycles; I/C = 1.54
[35m[MSG] [0mBranch Prediction Accuracy: 82.61% (19/23)
